Archive member included because of file (symbol)

../../../../../microchip/harmony/v1_11/bin/framework/peripheral/PIC32MX795F512L_peripherals.a(plib_eth_lib.o)
                              build/DM30004-2/production/_ext/854379441/drv_ethmac.o (PLIB_ETH_MACSetAddress)

Optional file libmchp_peripheral.a not found

Optional file libmchp_peripheral_32MX795F512L.a not found
/opt/microchip/xc32/v1.43/bin/bin/../../lib/gcc/pic32mx/4.8.3/libgcc.a(_divdi3.o)
                              build/DM30004-2/production/_ext/2107900007/unabto_harmony_time.o (__divdi3)
/opt/microchip/xc32/v1.43/bin/bin/../../lib/gcc/pic32mx/4.8.3/libgcc.a(_udivdi3.o)
                              build/DM30004-2/production/_ext/62100799/sys_tmr.o (__udivdi3)
/opt/microchip/xc32/v1.43/bin/bin/../../lib/gcc/pic32mx/4.8.3/libgcc.a(floatunsisf.o)
                              build/DM30004-2/production/_ext/1442095083/unabto_stream_window.o (__floatunsisf)
/opt/microchip/xc32/v1.43/bin/bin/../../lib/gcc/pic32mx/4.8.3/../../../../pic32mx/lib/libpic32.a(memcmp.o)
                              build/DM30004-2/production/_ext/458569783/asn.o (memcmp)
/opt/microchip/xc32/v1.43/bin/bin/../../lib/gcc/pic32mx/4.8.3/../../../../pic32mx/lib/libpic32.a(memcpy.o)
                              build/DM30004-2/production/_ext/134845378/deflate.o (memcpy)
/opt/microchip/xc32/v1.43/bin/bin/../../lib/gcc/pic32mx/4.8.3/../../../../pic32mx/lib/libpic32.a(memset.o)
                              build/DM30004-2/production/_ext/1360937237/app.o (memset)
/opt/microchip/xc32/v1.43/bin/bin/../../lib/gcc/pic32mx/4.8.3/../../../../pic32mx/lib/libpic32.a(strcmp.o)
                              build/DM30004-2/production/_ext/1899562614/dns.o (strcmp)
/opt/microchip/xc32/v1.43/bin/bin/../../lib/gcc/pic32mx/4.8.3/../../../../pic32mx/lib/libpic32.a(strcpy.o)
                              build/DM30004-2/production/_ext/1899562614/tcpip_helpers.o (strcpy)
/opt/microchip/xc32/v1.43/bin/bin/../../lib/gcc/pic32mx/4.8.3/../../../../pic32mx/lib/libpic32.a(strlen.o)
                              build/DM30004-2/production/_ext/1360937237/stream_echo.o (strlen)
/opt/microchip/xc32/v1.43/bin/bin/../../lib/gcc/pic32mx/4.8.3/../../../../pic32mx/lib/libpic32.a(default-bootstrap-exception-handler.o)
                              /opt/microchip/xc32/v1.43/bin/bin/../../lib/gcc/pic32mx/4.8.3/../../../../pic32mx/lib/./proc/32MX795F512L/crt0_mips32r2.o (_bootstrap_exception_handler)
/opt/microchip/xc32/v1.43/bin/bin/../../lib/gcc/pic32mx/4.8.3/../../../../pic32mx/lib/libpic32.a(default-on-reset.o)
                              /opt/microchip/xc32/v1.43/bin/bin/../../lib/gcc/pic32mx/4.8.3/../../../../pic32mx/lib/./proc/32MX795F512L/crt0_mips32r2.o (_on_reset)
/opt/microchip/xc32/v1.43/bin/bin/../../lib/gcc/pic32mx/4.8.3/../../../../pic32mx/lib/libpic32.a(default-on-bootstrap.o)
                              /opt/microchip/xc32/v1.43/bin/bin/../../lib/gcc/pic32mx/4.8.3/../../../../pic32mx/lib/./proc/32MX795F512L/crt0_mips32r2.o (_on_bootstrap)
/opt/microchip/xc32/v1.43/bin/bin/../../lib/gcc/pic32mx/4.8.3/../../../../pic32mx/lib/libpic32.a(default-nmi-handler.o)
                              /opt/microchip/xc32/v1.43/bin/bin/../../lib/gcc/pic32mx/4.8.3/../../../../pic32mx/lib/./proc/32MX795F512L/crt0_mips32r2.o (_nmi_handler)
/opt/microchip/xc32/v1.43/bin/bin/../../lib/gcc/pic32mx/4.8.3/../../../../pic32mx/lib/libpic32.a(general-exception.o)
                              /opt/microchip/xc32/v1.43/bin/bin/../../lib/gcc/pic32mx/4.8.3/../../../../pic32mx/lib/./proc/32MX795F512L/crt0_mips32r2.o (_general_exception_context)
/opt/microchip/xc32/v1.43/bin/bin/../../lib/gcc/pic32mx/4.8.3/../../../../pic32mx/lib/libpic32.a(vector0.o)
                              /opt/microchip/xc32/v1.43/bin/bin/../../lib/gcc/pic32mx/4.8.3/../../../../pic32mx/lib/./proc/32MX795F512L/default_isr_vectors.o (__vector_dispatch_0)
/opt/microchip/xc32/v1.43/bin/bin/../../lib/gcc/pic32mx/4.8.3/../../../../pic32mx/lib/libpic32.a(vector1.o)
                              /opt/microchip/xc32/v1.43/bin/bin/../../lib/gcc/pic32mx/4.8.3/../../../../pic32mx/lib/./proc/32MX795F512L/default_isr_vectors.o (__vector_dispatch_1)
/opt/microchip/xc32/v1.43/bin/bin/../../lib/gcc/pic32mx/4.8.3/../../../../pic32mx/lib/libpic32.a(vector2.o)
                              /opt/microchip/xc32/v1.43/bin/bin/../../lib/gcc/pic32mx/4.8.3/../../../../pic32mx/lib/./proc/32MX795F512L/default_isr_vectors.o (__vector_dispatch_2)
/opt/microchip/xc32/v1.43/bin/bin/../../lib/gcc/pic32mx/4.8.3/../../../../pic32mx/lib/libpic32.a(vector3.o)
                              /opt/microchip/xc32/v1.43/bin/bin/../../lib/gcc/pic32mx/4.8.3/../../../../pic32mx/lib/./proc/32MX795F512L/default_isr_vectors.o (__vector_dispatch_3)
/opt/microchip/xc32/v1.43/bin/bin/../../lib/gcc/pic32mx/4.8.3/../../../../pic32mx/lib/libpic32.a(vector5.o)
                              /opt/microchip/xc32/v1.43/bin/bin/../../lib/gcc/pic32mx/4.8.3/../../../../pic32mx/lib/./proc/32MX795F512L/default_isr_vectors.o (__vector_dispatch_5)
/opt/microchip/xc32/v1.43/bin/bin/../../lib/gcc/pic32mx/4.8.3/../../../../pic32mx/lib/libpic32.a(vector6.o)
                              /opt/microchip/xc32/v1.43/bin/bin/../../lib/gcc/pic32mx/4.8.3/../../../../pic32mx/lib/./proc/32MX795F512L/default_isr_vectors.o (__vector_dispatch_6)
/opt/microchip/xc32/v1.43/bin/bin/../../lib/gcc/pic32mx/4.8.3/../../../../pic32mx/lib/libpic32.a(vector7.o)
                              /opt/microchip/xc32/v1.43/bin/bin/../../lib/gcc/pic32mx/4.8.3/../../../../pic32mx/lib/./proc/32MX795F512L/default_isr_vectors.o (__vector_dispatch_7)
/opt/microchip/xc32/v1.43/bin/bin/../../lib/gcc/pic32mx/4.8.3/../../../../pic32mx/lib/libpic32.a(vector8.o)
                              /opt/microchip/xc32/v1.43/bin/bin/../../lib/gcc/pic32mx/4.8.3/../../../../pic32mx/lib/./proc/32MX795F512L/default_isr_vectors.o (__vector_dispatch_8)
/opt/microchip/xc32/v1.43/bin/bin/../../lib/gcc/pic32mx/4.8.3/../../../../pic32mx/lib/libpic32.a(vector9.o)
                              /opt/microchip/xc32/v1.43/bin/bin/../../lib/gcc/pic32mx/4.8.3/../../../../pic32mx/lib/./proc/32MX795F512L/default_isr_vectors.o (__vector_dispatch_9)
/opt/microchip/xc32/v1.43/bin/bin/../../lib/gcc/pic32mx/4.8.3/../../../../pic32mx/lib/libpic32.a(vector10.o)
                              /opt/microchip/xc32/v1.43/bin/bin/../../lib/gcc/pic32mx/4.8.3/../../../../pic32mx/lib/./proc/32MX795F512L/default_isr_vectors.o (__vector_dispatch_10)
/opt/microchip/xc32/v1.43/bin/bin/../../lib/gcc/pic32mx/4.8.3/../../../../pic32mx/lib/libpic32.a(vector11.o)
                              /opt/microchip/xc32/v1.43/bin/bin/../../lib/gcc/pic32mx/4.8.3/../../../../pic32mx/lib/./proc/32MX795F512L/default_isr_vectors.o (__vector_dispatch_11)
/opt/microchip/xc32/v1.43/bin/bin/../../lib/gcc/pic32mx/4.8.3/../../../../pic32mx/lib/libpic32.a(vector12.o)
                              /opt/microchip/xc32/v1.43/bin/bin/../../lib/gcc/pic32mx/4.8.3/../../../../pic32mx/lib/./proc/32MX795F512L/default_isr_vectors.o (__vector_dispatch_12)
/opt/microchip/xc32/v1.43/bin/bin/../../lib/gcc/pic32mx/4.8.3/../../../../pic32mx/lib/libpic32.a(vector13.o)
                              /opt/microchip/xc32/v1.43/bin/bin/../../lib/gcc/pic32mx/4.8.3/../../../../pic32mx/lib/./proc/32MX795F512L/default_isr_vectors.o (__vector_dispatch_13)
/opt/microchip/xc32/v1.43/bin/bin/../../lib/gcc/pic32mx/4.8.3/../../../../pic32mx/lib/libpic32.a(vector14.o)
                              /opt/microchip/xc32/v1.43/bin/bin/../../lib/gcc/pic32mx/4.8.3/../../../../pic32mx/lib/./proc/32MX795F512L/default_isr_vectors.o (__vector_dispatch_14)
/opt/microchip/xc32/v1.43/bin/bin/../../lib/gcc/pic32mx/4.8.3/../../../../pic32mx/lib/libpic32.a(vector15.o)
                              /opt/microchip/xc32/v1.43/bin/bin/../../lib/gcc/pic32mx/4.8.3/../../../../pic32mx/lib/./proc/32MX795F512L/default_isr_vectors.o (__vector_dispatch_15)
/opt/microchip/xc32/v1.43/bin/bin/../../lib/gcc/pic32mx/4.8.3/../../../../pic32mx/lib/libpic32.a(vector16.o)
                              /opt/microchip/xc32/v1.43/bin/bin/../../lib/gcc/pic32mx/4.8.3/../../../../pic32mx/lib/./proc/32MX795F512L/default_isr_vectors.o (__vector_dispatch_16)
/opt/microchip/xc32/v1.43/bin/bin/../../lib/gcc/pic32mx/4.8.3/../../../../pic32mx/lib/libpic32.a(vector17.o)
                              /opt/microchip/xc32/v1.43/bin/bin/../../lib/gcc/pic32mx/4.8.3/../../../../pic32mx/lib/./proc/32MX795F512L/default_isr_vectors.o (__vector_dispatch_17)
/opt/microchip/xc32/v1.43/bin/bin/../../lib/gcc/pic32mx/4.8.3/../../../../pic32mx/lib/libpic32.a(vector18.o)
                              /opt/microchip/xc32/v1.43/bin/bin/../../lib/gcc/pic32mx/4.8.3/../../../../pic32mx/lib/./proc/32MX795F512L/default_isr_vectors.o (__vector_dispatch_18)
/opt/microchip/xc32/v1.43/bin/bin/../../lib/gcc/pic32mx/4.8.3/../../../../pic32mx/lib/libpic32.a(vector19.o)
                              /opt/microchip/xc32/v1.43/bin/bin/../../lib/gcc/pic32mx/4.8.3/../../../../pic32mx/lib/./proc/32MX795F512L/default_isr_vectors.o (__vector_dispatch_19)
/opt/microchip/xc32/v1.43/bin/bin/../../lib/gcc/pic32mx/4.8.3/../../../../pic32mx/lib/libpic32.a(vector20.o)
                              /opt/microchip/xc32/v1.43/bin/bin/../../lib/gcc/pic32mx/4.8.3/../../../../pic32mx/lib/./proc/32MX795F512L/default_isr_vectors.o (__vector_dispatch_20)
/opt/microchip/xc32/v1.43/bin/bin/../../lib/gcc/pic32mx/4.8.3/../../../../pic32mx/lib/libpic32.a(vector21.o)
                              /opt/microchip/xc32/v1.43/bin/bin/../../lib/gcc/pic32mx/4.8.3/../../../../pic32mx/lib/./proc/32MX795F512L/default_isr_vectors.o (__vector_dispatch_21)
/opt/microchip/xc32/v1.43/bin/bin/../../lib/gcc/pic32mx/4.8.3/../../../../pic32mx/lib/libpic32.a(vector22.o)
                              /opt/microchip/xc32/v1.43/bin/bin/../../lib/gcc/pic32mx/4.8.3/../../../../pic32mx/lib/./proc/32MX795F512L/default_isr_vectors.o (__vector_dispatch_22)
/opt/microchip/xc32/v1.43/bin/bin/../../lib/gcc/pic32mx/4.8.3/../../../../pic32mx/lib/libpic32.a(vector23.o)
                              /opt/microchip/xc32/v1.43/bin/bin/../../lib/gcc/pic32mx/4.8.3/../../../../pic32mx/lib/./proc/32MX795F512L/default_isr_vectors.o (__vector_dispatch_23)
/opt/microchip/xc32/v1.43/bin/bin/../../lib/gcc/pic32mx/4.8.3/../../../../pic32mx/lib/libpic32.a(vector24.o)
                              /opt/microchip/xc32/v1.43/bin/bin/../../lib/gcc/pic32mx/4.8.3/../../../../pic32mx/lib/./proc/32MX795F512L/default_isr_vectors.o (__vector_dispatch_24)
/opt/microchip/xc32/v1.43/bin/bin/../../lib/gcc/pic32mx/4.8.3/../../../../pic32mx/lib/libpic32.a(vector25.o)
                              /opt/microchip/xc32/v1.43/bin/bin/../../lib/gcc/pic32mx/4.8.3/../../../../pic32mx/lib/./proc/32MX795F512L/default_isr_vectors.o (__vector_dispatch_25)
/opt/microchip/xc32/v1.43/bin/bin/../../lib/gcc/pic32mx/4.8.3/../../../../pic32mx/lib/libpic32.a(vector26.o)
                              /opt/microchip/xc32/v1.43/bin/bin/../../lib/gcc/pic32mx/4.8.3/../../../../pic32mx/lib/./proc/32MX795F512L/default_isr_vectors.o (__vector_dispatch_26)
/opt/microchip/xc32/v1.43/bin/bin/../../lib/gcc/pic32mx/4.8.3/../../../../pic32mx/lib/libpic32.a(vector27.o)
                              /opt/microchip/xc32/v1.43/bin/bin/../../lib/gcc/pic32mx/4.8.3/../../../../pic32mx/lib/./proc/32MX795F512L/default_isr_vectors.o (__vector_dispatch_27)
/opt/microchip/xc32/v1.43/bin/bin/../../lib/gcc/pic32mx/4.8.3/../../../../pic32mx/lib/libpic32.a(vector28.o)
                              /opt/microchip/xc32/v1.43/bin/bin/../../lib/gcc/pic32mx/4.8.3/../../../../pic32mx/lib/./proc/32MX795F512L/default_isr_vectors.o (__vector_dispatch_28)
/opt/microchip/xc32/v1.43/bin/bin/../../lib/gcc/pic32mx/4.8.3/../../../../pic32mx/lib/libpic32.a(vector29.o)
                              /opt/microchip/xc32/v1.43/bin/bin/../../lib/gcc/pic32mx/4.8.3/../../../../pic32mx/lib/./proc/32MX795F512L/default_isr_vectors.o (__vector_dispatch_29)
/opt/microchip/xc32/v1.43/bin/bin/../../lib/gcc/pic32mx/4.8.3/../../../../pic32mx/lib/libpic32.a(vector30.o)
                              /opt/microchip/xc32/v1.43/bin/bin/../../lib/gcc/pic32mx/4.8.3/../../../../pic32mx/lib/./proc/32MX795F512L/default_isr_vectors.o (__vector_dispatch_30)
/opt/microchip/xc32/v1.43/bin/bin/../../lib/gcc/pic32mx/4.8.3/../../../../pic32mx/lib/libpic32.a(vector31.o)
                              /opt/microchip/xc32/v1.43/bin/bin/../../lib/gcc/pic32mx/4.8.3/../../../../pic32mx/lib/./proc/32MX795F512L/default_isr_vectors.o (__vector_dispatch_31)
/opt/microchip/xc32/v1.43/bin/bin/../../lib/gcc/pic32mx/4.8.3/../../../../pic32mx/lib/libpic32.a(vector32.o)
                              /opt/microchip/xc32/v1.43/bin/bin/../../lib/gcc/pic32mx/4.8.3/../../../../pic32mx/lib/./proc/32MX795F512L/default_isr_vectors.o (__vector_dispatch_32)
/opt/microchip/xc32/v1.43/bin/bin/../../lib/gcc/pic32mx/4.8.3/../../../../pic32mx/lib/libpic32.a(vector33.o)
                              /opt/microchip/xc32/v1.43/bin/bin/../../lib/gcc/pic32mx/4.8.3/../../../../pic32mx/lib/./proc/32MX795F512L/default_isr_vectors.o (__vector_dispatch_33)
/opt/microchip/xc32/v1.43/bin/bin/../../lib/gcc/pic32mx/4.8.3/../../../../pic32mx/lib/libpic32.a(vector34.o)
                              /opt/microchip/xc32/v1.43/bin/bin/../../lib/gcc/pic32mx/4.8.3/../../../../pic32mx/lib/./proc/32MX795F512L/default_isr_vectors.o (__vector_dispatch_34)
/opt/microchip/xc32/v1.43/bin/bin/../../lib/gcc/pic32mx/4.8.3/../../../../pic32mx/lib/libpic32.a(vector35.o)
                              /opt/microchip/xc32/v1.43/bin/bin/../../lib/gcc/pic32mx/4.8.3/../../../../pic32mx/lib/./proc/32MX795F512L/default_isr_vectors.o (__vector_dispatch_35)
/opt/microchip/xc32/v1.43/bin/bin/../../lib/gcc/pic32mx/4.8.3/../../../../pic32mx/lib/libpic32.a(vector36.o)
                              /opt/microchip/xc32/v1.43/bin/bin/../../lib/gcc/pic32mx/4.8.3/../../../../pic32mx/lib/./proc/32MX795F512L/default_isr_vectors.o (__vector_dispatch_36)
/opt/microchip/xc32/v1.43/bin/bin/../../lib/gcc/pic32mx/4.8.3/../../../../pic32mx/lib/libpic32.a(vector37.o)
                              /opt/microchip/xc32/v1.43/bin/bin/../../lib/gcc/pic32mx/4.8.3/../../../../pic32mx/lib/./proc/32MX795F512L/default_isr_vectors.o (__vector_dispatch_37)
/opt/microchip/xc32/v1.43/bin/bin/../../lib/gcc/pic32mx/4.8.3/../../../../pic32mx/lib/libpic32.a(vector38.o)
                              /opt/microchip/xc32/v1.43/bin/bin/../../lib/gcc/pic32mx/4.8.3/../../../../pic32mx/lib/./proc/32MX795F512L/default_isr_vectors.o (__vector_dispatch_38)
/opt/microchip/xc32/v1.43/bin/bin/../../lib/gcc/pic32mx/4.8.3/../../../../pic32mx/lib/libpic32.a(vector39.o)
                              /opt/microchip/xc32/v1.43/bin/bin/../../lib/gcc/pic32mx/4.8.3/../../../../pic32mx/lib/./proc/32MX795F512L/default_isr_vectors.o (__vector_dispatch_39)
/opt/microchip/xc32/v1.43/bin/bin/../../lib/gcc/pic32mx/4.8.3/../../../../pic32mx/lib/libpic32.a(vector40.o)
                              /opt/microchip/xc32/v1.43/bin/bin/../../lib/gcc/pic32mx/4.8.3/../../../../pic32mx/lib/./proc/32MX795F512L/default_isr_vectors.o (__vector_dispatch_40)
/opt/microchip/xc32/v1.43/bin/bin/../../lib/gcc/pic32mx/4.8.3/../../../../pic32mx/lib/libpic32.a(vector41.o)
                              /opt/microchip/xc32/v1.43/bin/bin/../../lib/gcc/pic32mx/4.8.3/../../../../pic32mx/lib/./proc/32MX795F512L/default_isr_vectors.o (__vector_dispatch_41)
/opt/microchip/xc32/v1.43/bin/bin/../../lib/gcc/pic32mx/4.8.3/../../../../pic32mx/lib/libpic32.a(vector42.o)
                              /opt/microchip/xc32/v1.43/bin/bin/../../lib/gcc/pic32mx/4.8.3/../../../../pic32mx/lib/./proc/32MX795F512L/default_isr_vectors.o (__vector_dispatch_42)
/opt/microchip/xc32/v1.43/bin/bin/../../lib/gcc/pic32mx/4.8.3/../../../../pic32mx/lib/libpic32.a(vector43.o)
                              /opt/microchip/xc32/v1.43/bin/bin/../../lib/gcc/pic32mx/4.8.3/../../../../pic32mx/lib/./proc/32MX795F512L/default_isr_vectors.o (__vector_dispatch_43)
/opt/microchip/xc32/v1.43/bin/bin/../../lib/gcc/pic32mx/4.8.3/../../../../pic32mx/lib/libpic32.a(vector44.o)
                              /opt/microchip/xc32/v1.43/bin/bin/../../lib/gcc/pic32mx/4.8.3/../../../../pic32mx/lib/./proc/32MX795F512L/default_isr_vectors.o (__vector_dispatch_44)
/opt/microchip/xc32/v1.43/bin/bin/../../lib/gcc/pic32mx/4.8.3/../../../../pic32mx/lib/libpic32.a(vector45.o)
                              /opt/microchip/xc32/v1.43/bin/bin/../../lib/gcc/pic32mx/4.8.3/../../../../pic32mx/lib/./proc/32MX795F512L/default_isr_vectors.o (__vector_dispatch_45)
/opt/microchip/xc32/v1.43/bin/bin/../../lib/gcc/pic32mx/4.8.3/../../../../pic32mx/lib/libpic32.a(vector46.o)
                              /opt/microchip/xc32/v1.43/bin/bin/../../lib/gcc/pic32mx/4.8.3/../../../../pic32mx/lib/./proc/32MX795F512L/default_isr_vectors.o (__vector_dispatch_46)
/opt/microchip/xc32/v1.43/bin/bin/../../lib/gcc/pic32mx/4.8.3/../../../../pic32mx/lib/libpic32.a(vector47.o)
                              /opt/microchip/xc32/v1.43/bin/bin/../../lib/gcc/pic32mx/4.8.3/../../../../pic32mx/lib/./proc/32MX795F512L/default_isr_vectors.o (__vector_dispatch_47)
/opt/microchip/xc32/v1.43/bin/bin/../../lib/gcc/pic32mx/4.8.3/../../../../pic32mx/lib/libpic32.a(vector49.o)
                              /opt/microchip/xc32/v1.43/bin/bin/../../lib/gcc/pic32mx/4.8.3/../../../../pic32mx/lib/./proc/32MX795F512L/default_isr_vectors.o (__vector_dispatch_49)
/opt/microchip/xc32/v1.43/bin/bin/../../lib/gcc/pic32mx/4.8.3/../../../../pic32mx/lib/libpic32.a(vector50.o)
                              /opt/microchip/xc32/v1.43/bin/bin/../../lib/gcc/pic32mx/4.8.3/../../../../pic32mx/lib/./proc/32MX795F512L/default_isr_vectors.o (__vector_dispatch_50)
/opt/microchip/xc32/v1.43/bin/bin/../../lib/gcc/pic32mx/4.8.3/../../../../pic32mx/lib/libpic32.a(vector51.o)
                              /opt/microchip/xc32/v1.43/bin/bin/../../lib/gcc/pic32mx/4.8.3/../../../../pic32mx/lib/./proc/32MX795F512L/default_isr_vectors.o (__vector_dispatch_51)
/opt/microchip/xc32/v1.43/bin/bin/../../lib/gcc/pic32mx/4.8.3/../../../../pic32mx/lib/libpic32.a(defaultinterrupt.o)
                              /opt/microchip/xc32/v1.43/bin/bin/../../lib/gcc/pic32mx/4.8.3/../../../../pic32mx/lib/libpic32.a(vector0.o) (_DefaultInterrupt)
/opt/microchip/xc32/v1.43/bin/bin/../../lib/gcc/pic32mx/4.8.3/../../../../pic32mx/lib/libc.a(calloc.o)
                              build/DM30004-2/production/_ext/1280997252/system_init.o (calloc)
/opt/microchip/xc32/v1.43/bin/bin/../../lib/gcc/pic32mx/4.8.3/../../../../pic32mx/lib/libc.a(ctime.o)
                              build/DM30004-2/production/_ext/458569783/asn.o (gmtime)
/opt/microchip/xc32/v1.43/bin/bin/../../lib/gcc/pic32mx/4.8.3/../../../../pic32mx/lib/libc.a(ctype.o)
                              build/DM30004-2/production/_ext/1899562614/dhcp.o (_ctype)
/opt/microchip/xc32/v1.43/bin/bin/../../lib/gcc/pic32mx/4.8.3/../../../../pic32mx/lib/libc.a(ctypef.o)
                              build/DM30004-2/production/_ext/458569783/asn.o (tolower)
/opt/microchip/xc32/v1.43/bin/bin/../../lib/gcc/pic32mx/4.8.3/../../../../pic32mx/lib/libc.a(malloc.o)
                              build/DM30004-2/production/_ext/1280997252/system_init.o (malloc)
/opt/microchip/xc32/v1.43/bin/bin/../../lib/gcc/pic32mx/4.8.3/../../../../pic32mx/lib/libc.a(memmove.o)
                              build/DM30004-2/production/_ext/458569783/asn.o (memmove)
/opt/microchip/xc32/v1.43/bin/bin/../../lib/gcc/pic32mx/4.8.3/../../../../pic32mx/lib/libc.a(rand.o)
                              build/DM30004-2/production/_ext/458569783/random.o (srand)
/opt/microchip/xc32/v1.43/bin/bin/../../lib/gcc/pic32mx/4.8.3/../../../../pic32mx/lib/libc.a(strncmp.o)
                              build/DM30004-2/production/_ext/1442095083/unabto_buffers.o (strncmp)
/opt/microchip/xc32/v1.43/bin/bin/../../lib/gcc/pic32mx/4.8.3/../../../../pic32mx/lib/libc.a(strncpy.o)
                              build/DM30004-2/production/_ext/458569783/error.o (strncpy)
/opt/microchip/xc32/v1.43/bin/bin/../../lib/gcc/pic32mx/4.8.3/../../../../pic32mx/lib/libc.a(strtol.o)
                              build/DM30004-2/production/_ext/1899562614/tcpip_helpers.o (strtol)
/opt/microchip/xc32/v1.43/bin/bin/../../lib/gcc/pic32mx/4.8.3/../../../../pic32mx/lib/libc.a(time.o)
                              build/DM30004-2/production/_ext/458569783/asn.o (time)
/opt/microchip/xc32/v1.43/bin/bin/../../lib/gcc/pic32mx/4.8.3/../../../../pic32mx/lib/libc.a(exit.o)
                              build/DM30004-2/production/_ext/1360937237/app.o (exit)
/opt/microchip/xc32/v1.43/bin/bin/../../lib/gcc/pic32mx/4.8.3/../../../../pic32mx/lib/libc.a(stdclean_simple.o)
                              /opt/microchip/xc32/v1.43/bin/bin/../../lib/gcc/pic32mx/4.8.3/../../../../pic32mx/lib/libc.a(exit.o) (_cleanup)
/opt/microchip/xc32/v1.43/bin/bin/../../lib/gcc/pic32mx/4.8.3/../../../../pic32mx/lib/libc.a(sprintf_cdnopsuxX.eo)
                              build/DM30004-2/production/_ext/1360937237/app.o (_sprintf_cdnopsuxX)
/opt/microchip/xc32/v1.43/bin/bin/../../lib/gcc/pic32mx/4.8.3/../../../../pic32mx/lib/libc.a(sprintf_cdnopuxX.eo)
                              build/DM30004-2/production/_ext/1899562614/tcpip_helpers.o (_sprintf_cdnopuxX)
/opt/microchip/xc32/v1.43/bin/bin/../../lib/gcc/pic32mx/4.8.3/../../../../pic32mx/lib/libc.a(vsnprintf.o)
                              build/DM30004-2/production/_ext/2107900007/unabto_udp_debug.o (vsnprintf)
/opt/microchip/xc32/v1.43/bin/bin/../../lib/gcc/pic32mx/4.8.3/../../../../pic32mx/lib/libc.a(errno.o)
                              /opt/microchip/xc32/v1.43/bin/bin/../../lib/gcc/pic32mx/4.8.3/../../../../pic32mx/lib/libc.a(strtol.o) (errno)
/opt/microchip/xc32/v1.43/bin/bin/../../lib/gcc/pic32mx/4.8.3/../../../../pic32mx/lib/libc.a(doprnt_cdnopsuxX.eo)
                              /opt/microchip/xc32/v1.43/bin/bin/../../lib/gcc/pic32mx/4.8.3/../../../../pic32mx/lib/libc.a(sprintf_cdnopsuxX.eo) (_vfprintf_cdnopsuxX)
/opt/microchip/xc32/v1.43/bin/bin/../../lib/gcc/pic32mx/4.8.3/../../../../pic32mx/lib/libc.a(doprnt_cdnopuxX.eo)
                              /opt/microchip/xc32/v1.43/bin/bin/../../lib/gcc/pic32mx/4.8.3/../../../../pic32mx/lib/libc.a(sprintf_cdnopuxX.eo) (_vfprintf_cdnopuxX)
/opt/microchip/xc32/v1.43/bin/bin/../../lib/gcc/pic32mx/4.8.3/../../../../pic32mx/lib/libc.a(doprnt.o)
                              /opt/microchip/xc32/v1.43/bin/bin/../../lib/gcc/pic32mx/4.8.3/../../../../pic32mx/lib/libc.a(vsnprintf.o) (vfprintf)
/opt/microchip/xc32/v1.43/bin/bin/../../lib/gcc/pic32mx/4.8.3/../../../../pic32mx/lib/libc.a(_fputc_simple.o)
                              /opt/microchip/xc32/v1.43/bin/bin/../../lib/gcc/pic32mx/4.8.3/../../../../pic32mx/lib/libc.a(doprnt_cdnopsuxX.eo) (fputc)
/opt/microchip/xc32/v1.43/bin/bin/../../lib/gcc/pic32mx/4.8.3/../../../../pic32mx/lib/libc.a(ldpowers.o)
                              /opt/microchip/xc32/v1.43/bin/bin/../../lib/gcc/pic32mx/4.8.3/../../../../pic32mx/lib/libc.a(doprnt.o) (_npowers_)
/opt/microchip/xc32/v1.43/bin/bin/../../lib/gcc/pic32mx/4.8.3/../../../../pic32mx/lib/libc.a(_iob.o)
                              /opt/microchip/xc32/v1.43/bin/bin/../../lib/gcc/pic32mx/4.8.3/../../../../pic32mx/lib/libc.a(_fputc_simple.o) (_outdone)
/opt/microchip/xc32/v1.43/bin/bin/../../lib/gcc/pic32mx/4.8.3/../../../../pic32mx/lib/libc.a(_flsbuf_simple.o)
                              /opt/microchip/xc32/v1.43/bin/bin/../../lib/gcc/pic32mx/4.8.3/../../../../pic32mx/lib/libc.a(_fputc_simple.o) (_flsbuf)
/opt/microchip/xc32/v1.43/bin/bin/../../lib/gcc/pic32mx/4.8.3/../../../../pic32mx/lib/libm.a(dpfrexp.o)
                              /opt/microchip/xc32/v1.43/bin/bin/../../lib/gcc/pic32mx/4.8.3/../../../../pic32mx/lib/libc.a(doprnt.o) (frexpl)
/opt/microchip/xc32/v1.43/bin/bin/../../lib/gcc/pic32mx/4.8.3/../../../../pic32mx/lib/libm.a(dp32div.o)
                              /opt/microchip/xc32/v1.43/bin/bin/../../lib/gcc/pic32mx/4.8.3/../../../../pic32mx/lib/libc.a(doprnt.o) (dpdiv)
/opt/microchip/xc32/v1.43/bin/bin/../../lib/gcc/pic32mx/4.8.3/../../../../pic32mx/lib/libm.a(dp32mul.o)
                              /opt/microchip/xc32/v1.43/bin/bin/../../lib/gcc/pic32mx/4.8.3/../../../../pic32mx/lib/libc.a(doprnt.o) (dpmul)
/opt/microchip/xc32/v1.43/bin/bin/../../lib/gcc/pic32mx/4.8.3/../../../../pic32mx/lib/libm.a(dp32subadd.o)
                              /opt/microchip/xc32/v1.43/bin/bin/../../lib/gcc/pic32mx/4.8.3/../../../../pic32mx/lib/libc.a(doprnt.o) (dpsub)
/opt/microchip/xc32/v1.43/bin/bin/../../lib/gcc/pic32mx/4.8.3/../../../../pic32mx/lib/libm.a(dpcmp.o)
                              /opt/microchip/xc32/v1.43/bin/bin/../../lib/gcc/pic32mx/4.8.3/../../../../pic32mx/lib/libc.a(doprnt.o) (dpcmp)
/opt/microchip/xc32/v1.43/bin/bin/../../lib/gcc/pic32mx/4.8.3/../../../../pic32mx/lib/libm.a(dptoul.o)
                              /opt/microchip/xc32/v1.43/bin/bin/../../lib/gcc/pic32mx/4.8.3/../../../../pic32mx/lib/libc.a(doprnt.o) (dptoul)
/opt/microchip/xc32/v1.43/bin/bin/../../lib/gcc/pic32mx/4.8.3/../../../../pic32mx/lib/libm.a(fp32div.o)
                              build/DM30004-2/production/_ext/1442095083/unabto_stream_window.o (fpdiv)
/opt/microchip/xc32/v1.43/bin/bin/../../lib/gcc/pic32mx/4.8.3/../../../../pic32mx/lib/libm.a(fp32mul.o)
                              build/DM30004-2/production/_ext/1442095083/unabto_stream_window.o (fpmul)
/opt/microchip/xc32/v1.43/bin/bin/../../lib/gcc/pic32mx/4.8.3/../../../../pic32mx/lib/libm.a(fp32subadd.o)
                              build/DM30004-2/production/_ext/1442095083/unabto_stream_window.o (fpsub)
/opt/microchip/xc32/v1.43/bin/bin/../../lib/gcc/pic32mx/4.8.3/../../../../pic32mx/lib/libm.a(fpcmp.o)
                              build/DM30004-2/production/_ext/1442095083/unabto_stream_window.o (fpcmp)
/opt/microchip/xc32/v1.43/bin/bin/../../lib/gcc/pic32mx/4.8.3/../../../../pic32mx/lib/libm.a(fptodp.o)
                              /opt/microchip/xc32/v1.43/bin/bin/../../lib/gcc/pic32mx/4.8.3/../../../../pic32mx/lib/libc.a(doprnt.o) (fptodp)
/opt/microchip/xc32/v1.43/bin/bin/../../lib/gcc/pic32mx/4.8.3/../../../../pic32mx/lib/libm.a(fptoul.o)
                              build/DM30004-2/production/_ext/1442095083/unabto_stream.o (fptoui)
/opt/microchip/xc32/v1.43/bin/bin/../../lib/gcc/pic32mx/4.8.3/../../../../pic32mx/lib/libm.a(sitofp.o)
                              build/DM30004-2/production/_ext/1442095083/unabto_stream_window.o (sitofp)
/opt/microchip/xc32/v1.43/bin/bin/../../lib/gcc/pic32mx/4.8.3/../../../../pic32mx/lib/libe.a(_fixunsdfdi.o)
                              /opt/microchip/xc32/v1.43/bin/bin/../../lib/gcc/pic32mx/4.8.3/../../../../pic32mx/lib/libc.a(doprnt.o) (__fixunsdfdi)
/opt/microchip/xc32/v1.43/bin/bin/../../lib/gcc/pic32mx/4.8.3/../../../../pic32mx/lib/libe.a(_orderdf2.o)
                              /opt/microchip/xc32/v1.43/bin/bin/../../lib/gcc/pic32mx/4.8.3/../../../../pic32mx/lib/libe.a(_fixunsdfdi.o) (__orderdf2)
/opt/microchip/xc32/v1.43/bin/bin/../../lib/gcc/pic32mx/4.8.3/../../../../pic32mx/lib/libe.a(_fixdfdi.o)
                              /opt/microchip/xc32/v1.43/bin/bin/../../lib/gcc/pic32mx/4.8.3/../../../../pic32mx/lib/libe.a(_fixunsdfdi.o) (__fixdfdi)
/opt/microchip/xc32/v1.43/bin/bin/../../lib/gcc/pic32mx/4.8.3/libgcc.a(_umoddi3.o)
                              /opt/microchip/xc32/v1.43/bin/bin/../../lib/gcc/pic32mx/4.8.3/../../../../pic32mx/lib/libc.a(doprnt_cdnopsuxX.eo) (__umoddi3)
/opt/microchip/xc32/v1.43/bin/bin/../../lib/gcc/pic32mx/4.8.3/libgcc.a(floatunsidf.o)
                              /opt/microchip/xc32/v1.43/bin/bin/../../lib/gcc/pic32mx/4.8.3/../../../../pic32mx/lib/libc.a(doprnt.o) (__floatunsidf)
/opt/microchip/xc32/v1.43/bin/bin/../../lib/gcc/pic32mx/4.8.3/../../../../pic32mx/lib/libpic32.a(sbrk.o)
                              /opt/microchip/xc32/v1.43/bin/bin/../../lib/gcc/pic32mx/4.8.3/../../../../pic32mx/lib/libc.a(malloc.o) (sbrk)
/opt/microchip/xc32/v1.43/bin/bin/../../lib/gcc/pic32mx/4.8.3/../../../../pic32mx/lib/libpic32.a(write.o)
                              /opt/microchip/xc32/v1.43/bin/bin/../../lib/gcc/pic32mx/4.8.3/../../../../pic32mx/lib/libc.a(_fputc_simple.o) (write)
/opt/microchip/xc32/v1.43/bin/bin/../../lib/gcc/pic32mx/4.8.3/../../../../pic32mx/lib/libpic32.a(_mon_putc.o)
                              /opt/microchip/xc32/v1.43/bin/bin/../../lib/gcc/pic32mx/4.8.3/../../../../pic32mx/lib/libpic32.a(write.o) (_mon_putc)
/opt/microchip/xc32/v1.43/bin/bin/../../lib/gcc/pic32mx/4.8.3/../../../../pic32mx/lib/libpic32.a(xc32_uart.o)
                              /opt/microchip/xc32/v1.43/bin/bin/../../lib/gcc/pic32mx/4.8.3/../../../../pic32mx/lib/libpic32.a(_mon_putc.o) (__XC_UART)
/opt/microchip/xc32/v1.43/bin/bin/../../lib/gcc/pic32mx/4.8.3/../../../../pic32mx/lib/libm.a(litodp.o)
                              /opt/microchip/xc32/v1.43/bin/bin/../../lib/gcc/pic32mx/4.8.3/libgcc.a(floatunsidf.o) (litodp)

Allocating common symbols
Common symbol       size              file

gDrvETHPHYClientObj
                    0x38              build/DM30004-2/production/_ext/2030533247/drv_ethphy.o
connections         0xa00             build/DM30004-2/production/_ext/1442095083/unabto_connection.o
appData             0x4               build/DM30004-2/production/_ext/1360937237/app.o
x_buffers           0x230             build/DM30004-2/production/_ext/1442095083/unabto_stream_environment.o
sysObj              0x10              build/DM30004-2/production/_ext/1280997252/system_init.o
cryptoContextAttach
                    0x74              build/DM30004-2/production/_ext/1442095083/unabto_common_main.o
cryptoContextConnection
                    0x74              build/DM30004-2/production/_ext/1442095083/unabto_common_main.o
r_buffers           0xf0              build/DM30004-2/production/_ext/1442095083/unabto_stream_environment.o
x_buffer_data       0x616c            build/DM30004-2/production/_ext/1442095083/unabto_stream_environment.o
stream__            0x280             build/DM30004-2/production/_ext/1442095083/unabto_stream_environment.o
nabtoCommunicationBuffer
                    0x558             build/DM30004-2/production/_ext/1442095083/unabto_common_main.o
echo_streams        0x10              build/DM30004-2/production/_ext/1360937237/stream_echo.o
sysDevconObj        0x8               build/DM30004-2/production/_ext/1322803601/sys_devcon.o
nmc                 0xc8              build/DM30004-2/production/_ext/1442095083/unabto_common_main.o
sysRandCtx          0x108             build/DM30004-2/production/_ext/1310142747/sys_random.o
connection_timeout_cache_stamp
                    0x4               build/DM30004-2/production/_ext/1442095083/unabto_connection.o
gDrvETHPHYObj       0x28              build/DM30004-2/production/_ext/2030533247/drv_ethphy.o
r_buffer_data       0x616c            build/DM30004-2/production/_ext/1442095083/unabto_stream_environment.o
idBuffer            0x40              build/DM30004-2/production/_ext/1360937237/app.o

Microchip PIC32 Memory-Usage Report

kseg0 Program-Memory Usage
section                    address  length [bytes]      (dec)  Description
-------                 ----------  -------------------------  -----------
.rodata                 0x9d000000         0x2828       10280  Read-only const 
.text.vfprintf          0x9d002828         0x1c64        7268   
.text.Transform         0x9d00448c         0x1018        4120   
.text._vfprintf_cdnopsu 0x9d0054a4          0xc8c        3212   
.rodata                 0x9d006130         0x1684        5764  Read-only const 
.text.Transform         0x9d0077b4          0xa88        2696   
.text.nabto_stream_tcb_ 0x9d00823c          0x9a8        2472   
.rodata                 0x9d008be4          0x944        2372  Read-only const 
.text.TCPIP_DHCP_Task   0x9d009528          0x874        2164   
.text.TCPIP_STACK_Task  0x9d009d9c          0x864        2148   
.text.nabto_attach_even 0x9d00a600          0x7d4        2004   
.text.wc_AesSetKeyLocal 0x9d00add4          0x724        1828   
.text.nabto_stream_tcb_ 0x9d00b4f8          0x724        1828   
.text.nabto_init_connec 0x9d00bc1c          0x6bc        1724   
.text.wc_AesEncrypt     0x9d00c2d8          0x688        1672   
.text.wc_AesDecrypt     0x9d00c960          0x688        1672   
.text.DRV_ETHMAC_PIC32M 0x9d00cfe8          0x4f4        1268   
.text.dp32mul           0x9d00d4dc          0x4b8        1208   
.text                   0x9d00d994          0x4b4        1204  App's exec code 
.text.Transform         0x9d00de48          0x470        1136   
.text.TCPIP_ARP_Task    0x9d00e2b8          0x468        1128   
.text                   0x9d00e720          0x8bc        2236  App's exec code 
.rodata                 0x9d00efdc          0x454        1108  Read-only const 
.text.nabto_stream_even 0x9d00f430          0x444        1092   
.text.dp32subadd        0x9d00f874          0x430        1072   
.text.Hash_DRBG_Generat 0x9d00fca4          0x42c        1068   
.text.nabto_message_loc 0x9d0100d0          0x420        1056   
.text.handle_data       0x9d0104f0          0x41c        1052   
.text.handle_naf_packet 0x9d01090c          0x400        1024   
.text.TCPIP_Helper_Stri 0x9d010d0c          0x3e8        1000   
.rodata                 0x9d0110f4          0x3d8         984  Read-only const 
.dinit                  0x9d0114cc          0x3d0         976   
.text._DNS_Send_Query   0x9d01189c          0x3c0         960   
.text.TCPIP_DNS_ClientI 0x9d011c5c          0x37c         892   
.text.TCPIP_ARP_Initial 0x9d011fd8          0x36c         876   
.text.TCPIP_STACK_Initi 0x9d012344          0x348         840   
.text.nabto_connect_eve 0x9d01268c          0x338         824   
.text.dp32mul           0x9d0129c4          0x32c         812   
.text.unabto_stream_ins 0x9d012cf0          0x30c         780   
.text.SYS_TMR_Tasks     0x9d012ffc          0x300         768   
.text.TCPIP_UDP_Task    0x9d0132fc          0x2f8         760   
.text.TCPIP_STACK_Bring 0x9d0135f4          0x2f8         760   
.text._DHCPSend         0x9d0138ec          0x2ec         748   
.text.mk_invite         0x9d013bd8          0x2ec         748   
.text.TCPIP_IPV4_Packet 0x9d013ec4          0x2dc         732   
.text._DNS_ProcessPacke 0x9d0141a0          0x2cc         716   
.text.unabto_stream_eve 0x9d01446c          0x2ac         684   
.text.TCPIP_UDP_Flush   0x9d014718          0x2a8         680   
.text.build_and_send_pa 0x9d0149c0          0x2a8         680   
.text.wc_Sha256Final    0x9d014c68          0x290         656   
.text.malloc            0x9d014ef8          0x28c         652   
.text.send_rendezvous_s 0x9d015184          0x288         648   
.text.fpsubadd          0x9d01540c          0x278         632   
.rodata                 0x9d015684          0x270         624  Read-only const 
.text.connect_event     0x9d0158f4          0x26c         620   
.text.nabto_stream_tcb_ 0x9d015b60          0x260         608   
.text                   0x9d015dc0          0x25c         604  App's exec code 
.text.handle_ack        0x9d01601c          0x25c         604   
.text.TCPIP_IPV4_Task   0x9d016278          0x258         600   
.text._DHCPReceive      0x9d0164d0          0x254         596   
.text.nabto_message_eve 0x9d016724          0x254         596   
.text.nabto_packet_even 0x9d016978          0x254         596   
.text.wc_ShaFinal       0x9d016bcc          0x24c         588   
.text.Hash_df           0x9d016e18          0x244         580   
.text.DRV_ETHMAC_PIC32M 0x9d01705c          0x244         580   
.text._DHCPOptionHostNa 0x9d0172a0          0x244         580   
.text.DRV_ETHMAC_LibRxB 0x9d0174e4          0x240         576   
.text.scale             0x9d017724          0x23c         572   
.rodata                 0x9d017960          0x234         564  Read-only const 
.text._DRV_TMR_ClockSou 0x9d017b94          0x230         560   
.text.fp32div           0x9d017dc4          0x230         560   
.text._UDPOpen          0x9d017ff4          0x224         548   
.text.TCPIP_UDP_Bind    0x9d018218          0x224         548   
.text._TCPIP_HEAP_Free  0x9d01843c          0x210         528   
.text.unabto_init       0x9d01864c          0x210         528   
.text.wc_HmacSetKey     0x9d01885c          0x208         520   
.text.DRV_TMR_Initializ 0x9d018a64          0x204         516   
.text.handle_as_wait_dn 0x9d018c68          0x204         516   
.text.nabto_stream_read 0x9d018e6c          0x1f8         504   
.text._DRV_ETHPHY_Setup 0x9d019064          0x1f4         500   
.text._DRV_PHY_SMITrans 0x9d019258          0x1e8         488   
.text.DRV_TMR_AlarmRegi 0x9d019440          0x1e8         488   
.text._LoadNetworkConfi 0x9d019628          0x1e8         488   
.rodata                 0x9d019810          0x3d0         976  Read-only const 
.text.handle_as_wait_gs 0x9d019be0          0x1e4         484   
.text._DNS_IsNameResolv 0x9d019dc4          0x1dc         476   
.text.framework_event   0x9d019fa0          0x1dc         476   
.text.nabto_stream_chec 0x9d01a17c          0x1dc         476   
.text._DNS_RESPONSE_Has 0x9d01a358          0x1d8         472   
.text.DRV_ETHMAC_PIC32M 0x9d01a530          0x1d4         468   
.text.strtoul           0x9d01a704          0x1d4         468   
.text.handle_as_idle    0x9d01a8d8          0x1d0         464   
.text.TCPIP_Helper_Stri 0x9d01aaa8          0x1cc         460   
.text.fround            0x9d01ac74          0x1cc         460   
.text.TCPIP_ARP_EntryRe 0x9d01ae40          0x1c8         456   
.text.unabto_encrypt    0x9d01b008          0x1c0         448   
.text._EthAckPacket     0x9d01b1c8          0x1bc         444   
.text.handle_ok_invite_ 0x9d01b384          0x1bc         444   
.text.fp32mul           0x9d01b540          0x1bc         444   
.text.TCPIP_DNS_ClientT 0x9d01b6fc          0x1b4         436   
.text.nabto_stream_stat 0x9d01b8b0          0x1b4         436   
.text.unabto_stream_upd 0x9d01ba64          0x1b4         436   
.text.unabto_hmac_sha25 0x9d01bc18          0x1b4         436   
.text.wc_RNG_GenerateBl 0x9d01bdcc          0x1b0         432   
.text._DNS_Resolve      0x9d01bf7c          0x1b0         432   
.text.TCPIP_UDP_ArrayGe 0x9d01c12c          0x1ac         428   
.text.TCPIP_UDP_Options 0x9d01c2d8          0x1ac         428   
.text.handle_as_wait_bs 0x9d01c484          0x1ac         428   
.text._DRV_ETHMAC_AddRx 0x9d01c630          0x1a8         424   
.text.handle_framing_ct 0x9d01c7d8          0x1a8         424   
.text.nabto_rd_header   0x9d01c980          0x1a8         424   
.text.DRV_TMR_CounterFr 0x9d01cb28          0x1a4         420   
.text.unabto_stream_ini 0x9d01cccc          0x1a0         416   
.text.strtol            0x9d01ce6c          0x19c         412   
.text.DRV_EXTPHY_MDIXCo 0x9d01d008          0x198         408   
.text._ARPProbeAddress  0x9d01d1a0          0x198         408   
.rodata                 0x9d01d338          0x198         408  Read-only const 
.text.DRV_ETHMAC_LibRxG 0x9d01d4d0          0x194         404   
.text._sbrk_init        0x9d01d664          0x194         404   
.text.TCPIP_DHCP_Initia 0x9d01d7f8          0x18c         396   
.text.DRV_ETHMAC_LibRxA 0x9d01d984          0x188         392   
.text.DRV_ETHMAC_LibIni 0x9d01db0c          0x184         388   
.text.DRV_ETHMAC_LibMAC 0x9d01dc90          0x184         388   
.text.TCPIP_UDP_Deiniti 0x9d01de14          0x184         388   
.rodata                 0x9d01df98          0x180         384  Read-only const 
.text.wc_AesCbcDecrypt  0x9d01e118          0x17c         380   
.text._DRV_ETHPHY_NegRe 0x9d01e294          0x17c         380   
.text.DRV_ETHMAC_PIC32M 0x9d01e410          0x178         376   
.text._DRV_TMR_ClockPre 0x9d01e588          0x178         376   
.text._SYS_TMR_ClientCr 0x9d01e700          0x178         376   
.text.DRV_EXTPHY_MIICon 0x9d01e878          0x174         372   
.rodata                 0x9d01e9ec          0x170         368  Read-only const 
.text._TCPIP_HEAP_Mallo 0x9d01eb5c          0x170         368   
.text.unabto_payload_re 0x9d01eccc          0x170         368   
.text.wc_InitRng        0x9d01ee3c          0x16c         364   
.text.wc_Md5Final       0x9d01efa8          0x168         360   
.text._EthAppendBusyLis 0x9d01f110          0x168         360   
.text                   0x9d01f278          0x2d0         720  App's exec code 
.text.wc_HmacFinal      0x9d01f548          0x164         356   
.text.TCPIP_HEAP_Create 0x9d01f6ac          0x164         356   
.text.TCPIP_IPV4_Select 0x9d01f810          0x160         352   
.rodata                 0x9d01f970          0x160         352  Read-only const 
.text.APP_Tasks         0x9d01fad0          0x15c         348   
.text._DRV_ETHPHY_Setup 0x9d01fc2c          0x15c         348   
.text._ARPSendIfPkt     0x9d01fd88          0x15c         348   
.text._DHCPProcessRecei 0x9d01fee4          0x15c         348   
.text._MACDeinit        0x9d020040          0x158         344   
.text.DRV_ETHMAC_LibTxS 0x9d020198          0x158         344   
.text.handle_as_wait_dn 0x9d0202f0          0x158         344   
.text.nabto_stream_enco 0x9d020448          0x158         344   
.text.handle_as_wait_dn 0x9d0205a0          0x154         340   
.text.insert_connection 0x9d0206f4          0x150         336   
.text.TCPIP_UDP_OpenSer 0x9d020844          0x14c         332   
.text.nabto_get_new_con 0x9d020990          0x148         328   
.text.unabto_stream_cre 0x9d020ad8          0x148         328   
.text.send_data_packet  0x9d020c20          0x148         328   
.text.unabto_stream_con 0x9d020d68          0x148         328   
.text.TCPIP_UDP_Options 0x9d020eb0          0x144         324   
.text.unabto_stream_con 0x9d020ff4          0x144         324   
.text.fputc             0x9d021138          0x144         324   
.text._DRV_ETHPHY_Setup 0x9d02127c          0x13c         316   
.text.update_ack_after_ 0x9d0213b8          0x13c         316   
.text.wc_Sha256Update   0x9d0214f4          0x138         312   
.text.nabto_invite_even 0x9d02162c          0x138         312   
.text.IntHandlerDrvTmrI 0x9d021764          0x134         308   
.text.DRV_ETHMAC_PIC32M 0x9d021898          0x134         308   
.text.DRV_TMR_CounterVa 0x9d0219cc          0x134         308   
.text.TCPIP_Helper_Stri 0x9d021b00          0x134         308   
.text._IntHandler_ETHMA 0x9d021c34          0x130         304   
.text.wc_AesCbcEncrypt  0x9d021d64          0x130         304   
.rodata                 0x9d021e94          0x130         304  Read-only const 
.text._ARPDeleteResourc 0x9d021fc4          0x130         304   
.text.nabto_stream_tcb_ 0x9d0220f4          0x130         304   
.text.wc_ShaUpdate      0x9d022224          0x12c         300   
.text.DRV_ETHMAC_LibDes 0x9d022350          0x12c         300   
.text.prfhelper         0x9d02247c          0x12c         300   
.text._flsbuf           0x9d0225a8          0x12c         300   
.text.dpcmp             0x9d0226d4          0x12c         300   
.rodata                 0x9d022800          0x128         296  Read-only const 
.text.Hash_DRBG_Reseed  0x9d022928          0x128         296   
.text.DRV_ETHMAC_Tasks_ 0x9d022a50          0x128         296   
.text.TCPIP_IPV4_ArpHan 0x9d022b78          0x128         296   
.text.unabto_time_event 0x9d022ca0          0x128         296   
.text._OAHashFindBkt    0x9d022dc8          0x124         292   
.text.send_connection_s 0x9d022eec          0x120         288   
.text                   0x9d02300c          0x120         288  App's exec code 
.text.DRV_ETHMAC_PIC32M 0x9d02312c          0x11c         284   
.text.TCPIP_UDP_Initial 0x9d023248          0x11c         284   
.text.TCPIP_ARP_IsResol 0x9d023364          0x11c         284   
.text.unabto_stream_sen 0x9d023480          0x11c         284   
.text._DRV_ETHPHY_Setup 0x9d02359c          0x118         280   
.text._DRV_TMR_Resume   0x9d0236b4          0x118         280   
.text._DHCPSetLeaseTime 0x9d0237cc          0x118         280   
.text.nabto_alive_event 0x9d0238e4          0x118         280   
.text.handle_stream_pac 0x9d0239fc          0x118         280   
.text.nabto_stream_tcb_ 0x9d023b14          0x118         280   
.text.DRV_ETHMAC_PIC32M 0x9d023c2c          0x114         276   
.text.TCPIP_Helper_Pack 0x9d023d40          0x114         276   
.text.unabto_verify_int 0x9d023e54          0x114         276   
.text.DRV_ETHMAC_LibClo 0x9d023f68          0x110         272   
.text.TCPIP_STACK_KillS 0x9d024078          0x110         272   
.text.wc_RNG_HealthTest 0x9d024188          0x10c         268   
.text._MacRxPacketAck   0x9d024294          0x10c         268   
.text._UDPv4AllocateSkt 0x9d0243a0          0x108         264   
.text.unabto_insert_int 0x9d0244a8          0x108         264   
.text.prfplus_sha256    0x9d0245b0          0x108         264   
.text._DNS_ValidateIf   0x9d0246b8          0x104         260   
.text.unabto_crypto_rei 0x9d0247bc          0x104         260   
.text.build_and_send_rs 0x9d0248c0          0x104         260   
.rodata                 0x9d0249c4          0x104         260  Read-only const 
.text.SYS_Initialize    0x9d024ac8          0x100         256   
.text.DRV_ETHPHY_Deinit 0x9d024bc8           0x18          24   
.rodata                 0x9d024be0          0x200         512  Read-only const 
.text.unabto_decrypt    0x9d024de0          0x100         256   
.text.unabto_stream_get 0x9d024ee0          0x100         256   
.text.unabto_crypto_rei 0x9d024fe0           0xfc         252   
.text.encrypt_packet    0x9d0250dc           0xfc         252   
.text.nabto_stream_tcb_ 0x9d0251d8           0xfc         252   
.text._DRV_TMR_Suspend  0x9d0252d4           0xf8         248   
.text._UDPv4TxAckFnc    0x9d0253cc           0xf8         248   
.text._DHCPClose        0x9d0254c4           0xf8         248   
.text.send_basestation_ 0x9d0255bc           0xf8         248   
.text.nabto_limit_strea 0x9d0256b4           0xf8         248   
.text._DRV_ETHPHY_NegCo 0x9d0257ac           0xf4         244   
.text.TCPIP_DHCP_Connec 0x9d0258a0           0xf4         244   
.text.handle_as_attache 0x9d025994           0xf4         244   
.text._DRV_ETHPHY_Reset 0x9d025a88           0xf0         240   
.text.mk_gsp_alive_rsp  0x9d025b78           0xf0         240   
.text.rendezvous_time_e 0x9d025c68           0xf0         240   
.text.stateNameW        0x9d025d58           0xf0         240   
.text._DRV_ETHPHY_Setup 0x9d025e48           0xec         236   
.text.SYS_TMR_SystemCou 0x9d025f34           0xec         236   
.text._TCPIP_StackSyncF 0x9d026020           0xec         236   
.text.DRV_ETHMAC_PIC32M 0x9d02610c           0xe8         232   
.text._SYS_TMR_ClientPa 0x9d0261f4           0xe8         232   
.text.TCPIP_IPV4_DeInit 0x9d0262dc           0xe8         232   
.text._DHCPPacketFilter 0x9d0263c4           0xe8         232   
.text.mk_gsp_connect_rs 0x9d0264ac           0xe8         232   
.text.unabto_crypto_ver 0x9d026594           0xe8         232   
.text.__fixdfdi         0x9d02667c           0xe8         232   
.text._DHCPOpenSocket   0x9d026764           0xe4         228   
.text.nabto_attach_time 0x9d026848           0xe4         228   
.text.insert_ipx_payloa 0x9d02692c           0xe4         228   
.text.unabto_udp_debug  0x9d026a10           0xe4         228   
.text.DRV_ETHPHY_Setup  0x9d026af4           0xe0         224   
.text._DHCPEnable       0x9d026bd4           0xe0         224   
.text.TCPIP_OAHASH_Entr 0x9d026cb4           0xe0         224   
.text.TCPIP_STACK_Bring 0x9d026d94           0xe0         224   
.text.nabto_message_rem 0x9d026e74           0xe0         224   
.text.DRV_ETHPHY_SMIClo 0x9d026f54           0xdc         220   
.text.nabto_connection_ 0x9d027030           0xdc         220   
.text.unabto_stream_sta 0x9d02710c           0xdc         220   
.text.general_exception 0x9d0271e8           0xdc         220   
.text.TCPIP_IPV4_Packet 0x9d0272c4           0xd8         216   
.text._ARPUpdateEntry   0x9d02739c           0xd8         216   
.text._TCPIP_PKT_Packet 0x9d027474           0xd8         216   
.text.result_s          0x9d02754c           0xd8         216   
.text.Hash_DRBG_Instant 0x9d027624           0xd4         212   
.text._DRV_ETHPHY_NegRe 0x9d0276f8           0xd4         212   
.text._mon_putc         0x9d0277cc           0xd4         212   
.text.wc_Md5Update      0x9d0278a0           0xd0         208   
.text._MacTxPendingPack 0x9d027970           0xd0         208   
.text.SYS_DEVCON_Perfor 0x9d027a40           0xd0         208   
.text.nabto_stream_conn 0x9d027b10           0xd0         208   
.rodata                 0x9d027be0           0xd0         208  Read-only const 
.text.wc_GenerateSeed   0x9d027cb0           0xcc         204   
.text._DRV_ETHMAC_LinkS 0x9d027d7c           0xcc         204   
.text.DRV_TMR_Tasks     0x9d027e48           0xcc         204   
.text.SYS_TMR_Initializ 0x9d027f14           0xcc         204   
.text.TCPIP_ARP_EntryRe 0x9d027fe0           0xcc         204   
.text.send_connection_e 0x9d0280ac           0xcc         204   
.text.nabto_stream_conn 0x9d028178           0xcc         204   
.text._UDPsetPacketInfo 0x9d028244           0xc8         200   
.text.TCPIP_OAHASH_Entr 0x9d02830c           0xc8         200   
.text.insert_connect_st 0x9d0283d4           0xc8         200   
.text.nabto_time_event_ 0x9d02849c           0xc8         200   
.text._sbrk             0x9d028564           0xc8         200   
.text.TCPIP_UDP_SocketI 0x9d02862c           0xc4         196   
.text._DHCPOptionWriteS 0x9d0286f0           0xc4         196   
.text._TCPIPStackModule 0x9d0287b4           0xc4         196   
.text.nabtoStampDiff2ms 0x9d028878           0xc4         196   
.text._DHCPOptionProces 0x9d02893c           0xc0         192   
.text.unabto_read_socke 0x9d0289fc           0xc0         192   
.text.nabto_context_rei 0x9d028abc           0xc0         192   
.text.insert_header     0x9d028b7c           0xc0         192   
.text.insert_sp_id_payl 0x9d028c3c           0xc0         192   
.text.TCPIP_UDP_ArrayPu 0x9d028cfc           0xbc         188   
.text._DHCPOptionWriteI 0x9d028db8           0xbc         188   
.text._EthTxSchedList   0x9d028e74           0xb8         184   
.text.TCPIP_DNS_OAHASH_ 0x9d028f2c           0xb8         184   
.text.TCPIP_PKT_DataSeg 0x9d028fe4           0xb8         184   
.text.nabto_crypto_rese 0x9d02909c           0xb8         184   
.text.wc_HmacUpdate     0x9d029154           0xb4         180   
.text.DRV_ETHMAC_PIC32M 0x9d029208           0xb4         180   
.text._EthTxSchedBuffer 0x9d0292bc           0xb4         180   
.text.TCPIP_UDP_BcastIP 0x9d029370           0xb4         180   
.text._ARPNotifyClients 0x9d029424           0xb4         180   
.text._DNS_DeleteHash   0x9d0294d8           0xb4         180   
.text.insert_rendezvous 0x9d02958c           0xb4         180   
.text.send_ack          0x9d029640           0xb4         180   
.text.update_triple_ack 0x9d0296f4           0xb4         180   
.text._DRV_ETHPHY_Reset 0x9d0297a8           0xb0         176   
.text._DNS_AddSelection 0x9d029858           0xb0         176   
.text.stName            0x9d029908           0xb0         176   
.text.insert_piggy_payl 0x9d0299b8           0xb0         176   
.text._DRV_ETHMAC_LinkS 0x9d029a68           0xac         172   
.text._DRV_ETHPHY_NegCo 0x9d029b14           0xac         172   
.text._DNS_Enable       0x9d029bc0           0xac         172   
.text._TCPIPStackInsert 0x9d029c6c           0xac         172   
.text.send_syn_or_syn_a 0x9d029d18           0xac         172   
.text.fptodp            0x9d029dc4           0xac         172   
.text.DRV_ETHMAC_PIC32M 0x9d029e70           0xa8         168   
.text.DRV_ETHPHY_Vendor 0x9d029f18           0xa8         168   
.text.DRV_ETHPHY_Vendor 0x9d029fc0           0xa8         168   
.text._SYS_TMR_ClientCh 0x9d02a068           0xa8         168   
.text.TCPIP_PKT_PacketM 0x9d02a110           0xa8         168   
.text.insert_version_pa 0x9d02a1b8           0xa8         168   
.text.PLIB_ETH_MACSetAd 0x9d02a260           0xa8         168   
.text                   0x9d02a308           0xa8         168  App's exec code 
.text.libm              0x9d02a3b0           0xa8         168   
.text.DRV_ETHPHY_SMIWri 0x9d02a458           0xa4         164   
.text._DRV_ETHPHY_Setup 0x9d02a4fc           0xa4         164   
.text.TCPIP_IPV4_Initia 0x9d02a5a0           0xa4         164   
.text._TCPIP_HEAP_MaxSi 0x9d02a644           0xa4         164   
.text.nabto_stream_tcb_ 0x9d02a6e8           0xa4         164   
.text.nabto_read        0x9d02a78c           0xa4         164   
.text._DRV_ETHPHY_LinkS 0x9d02a830           0xa0         160   
.text.TCPIP_UDP_PutIsRe 0x9d02a8d0           0xa0         160   
.text.TCPIP_Helper_Sing 0x9d02a970           0xa0         160   
.text._TCPIP_PKT_Packet 0x9d02aa10           0xa0         160   
.text.verification_chec 0x9d02aab0           0xa0         160   
.text.insert_payload    0x9d02ab50           0xa0         160   
.text._DRV_ETHMAC_LinkS 0x9d02abf0           0x9c         156   
.text.TCPIP_ARP_Probe   0x9d02ac8c           0x9c         156   
.text.add_typed_string  0x9d02ad28           0x9c         156   
.text.fpcmp             0x9d02adc4           0x9c         156   
.text.write             0x9d02ae60           0x9c         156   
.text.DRV_ETHMAC_LibDes 0x9d02aefc           0x98         152   
.text.TCPIP_Helper_Form 0x9d02af94           0x98         152   
.text.nabto_release_con 0x9d02b02c           0x98         152   
.text.unabto_read_paylo 0x9d02b0c4           0x98         152   
.text.aes128_cbc_decryp 0x9d02b15c           0x98         152   
.text.nabto_write       0x9d02b1f4           0x98         152   
.text                   0x9d02b28c           0x98         152  App's exec code 
.text._UDPSetNewRxPacke 0x9d02b324           0x94         148   
.text.TCPIP_UDP_Destina 0x9d02b3b8           0x94         148   
.text.nabto_change_cont 0x9d02b44c           0x94         148   
.text.unabto_stream_ini 0x9d02b4e0           0x94         148   
.rodata                 0x9d02b574           0x94         148  Read-only const 
.text.aes128_cbc_encryp 0x9d02b608           0x94         148   
.text._DRV_ETHMAC_LinkS 0x9d02b69c           0x90         144   
.text.DRV_ETHPHY_SMISca 0x9d02b72c           0x90         144   
.text._DRV_ETHPHY_NegCo 0x9d02b7bc           0x90         144   
.text.TCPIP_ARP_EntryGe 0x9d02b84c           0x90         144   
.text.TCPIP_Helper_Prot 0x9d02b8dc           0x90         144   
.text._TCPIPStackIpAddF 0x9d02b96c           0x90         144   
.text.unabto_stream_wri 0x9d02b9fc           0x90         144   
.text.unabto_stream_mar 0x9d02ba8c           0x90         144   
.text.wc_AesSetIV       0x9d02bb1c           0x8c         140   
.text.HmacKeyInnerHash  0x9d02bba8           0x8c         140   
.text.array_add         0x9d02bc34           0x8c         140   
.text.TCPIP_UDP_TxOffse 0x9d02bcc0           0x8c         140   
.text._DHCPNotifyClient 0x9d02bd4c           0x8c         140   
.text._DNSDiscardName   0x9d02bdd8           0x8c         140   
.text.TCPIP_Helper_Prot 0x9d02be64           0x8c         140   
.text.TCPIP_Helper_Prot 0x9d02bef0           0x8c         140   
.text.truncated_hmac_sh 0x9d02bf7c           0x8c         140   
.text.unabto_extended_r 0x9d02c008           0x8c         140   
.text.insert_notify_pay 0x9d02c094           0x8c         140   
.text.nabto_stream_tcb_ 0x9d02c120           0x8c         140   
.text.rand              0x9d02c1ac           0x8c         140   
.text.dptoul            0x9d02c238           0x8c         140   
.text.__orderdf2        0x9d02c2c4           0x8c         140   
.text.SYS_RANDOM_Initia 0x9d02c350           0x88         136   
.text.hexatob           0x9d02c3d8           0x88         136   
.text._TCPIPStackModule 0x9d02c460           0x88         136   
.text.nabto_release_con 0x9d02c4e8           0x88         136   
.text.DRV_ETHPHY_Vendor 0x9d02c570           0x84         132   
.text._DRV_TMR_ModuleOb 0x9d02c5f4           0x84         132   
.text.TCPIP_UDP_SourceI 0x9d02c678           0x84         132   
.text.DRV_ETHPHY_SMISca 0x9d02c6fc           0x80         128   
.text._DRV_ETHPHY_Setup 0x9d02c77c           0x80         128   
.text.TCPIP_DNS_OAHASH_ 0x9d02c7fc           0x80         128   
.text.unabto_query_read 0x9d02c87c           0x80         128   
.text.nabto_init_stream 0x9d02c8fc           0x80         128   
.text.unabto_stream_con 0x9d02c97c           0x80         128   
.text.unabto_udp_debug_ 0x9d02c9fc           0x80         128   
.rodata                 0x9d02ca80           0x80         128  Read-only const 
.text.__fixunsdfdi      0x9d02cb00           0x80         128   
.text.SYS_PORTS_Initial 0x9d02cb80           0x7c         124   
.text.DRV_ETHPHY_SMIRea 0x9d02cbfc           0x7c         124   
.text.DRV_ETHPHY_SMISca 0x9d02cc78           0x7c         124   
.text._DRV_ETHPHY_Setup 0x9d02ccf4           0x7c         124   
.text._UDPAllocateEphem 0x9d02cd70           0x7c         124   
.text.TCPIP_UDP_Close   0x9d02cdec           0x7c         124   
.text.TCPIP_ARP_Deiniti 0x9d02ce68           0x7c         124   
.text.TCPIP_ARP_Handler 0x9d02cee4           0x7c         124   
.text.TCPIP_Helper_Prot 0x9d02cf60           0x7c         124   
.rodata                 0x9d02cfdc           0x7c         124  Read-only const 
.text.unabto_init_defau 0x9d02d058           0x7c         124   
.text.nabto_crypto_crea 0x9d02d0d4           0x7c         124   
.text.fptoul            0x9d02d150           0x7c         124   
.rodata                 0x9d02d1cc           0x78         120  Read-only const 
.text.DRV_ETHMAC_PIC32M 0x9d02d244           0x78         120   
.text._DRV_ETHPHY_NegRe 0x9d02d2bc           0x78         120   
.text._DRV_ETHPHY_Setup 0x9d02d334           0x78         120   
.text._DNS_CleanCacheEn 0x9d02d3ac           0x78         120   
.text.TCPIP_Helper_Prot 0x9d02d424           0x78         120   
.text._TCPIP_MacEventCB 0x9d02d49c           0x78         120   
.text.TCPIP_PKT_Initial 0x9d02d514           0x78         120   
.text.nabto_find_connec 0x9d02d58c           0x78         120   
.text.litodp            0x9d02d604           0x78         120   
.text.wc_InitSha256     0x9d02d67c           0x74         116   
.text._DRV_ETHPHY_NegCo 0x9d02d6f0           0x74         116   
.text.DRV_ETHPHY_Open   0x9d02d764           0x74         116   
.text._DHCPOptionProces 0x9d02d7d8           0x74         116   
.text._DHCPOptionProces 0x9d02d84c           0x74         116   
.text.TCPIP_Helper_Stri 0x9d02d8c0           0x74         116   
.text._TCPIPStackAnyNet 0x9d02d934           0x74         116   
.text._TCPIPStackSignal 0x9d02d9a8           0x74         116   
.text.insert_attach_sta 0x9d02da1c           0x74         116   
.text.nabto_connection_ 0x9d02da90           0x74         116   
.text.get_connection_ty 0x9d02db04           0x74         116   
.text.unabto_packet_set 0x9d02db78           0x74         116   
.text.insert_stats_payl 0x9d02dbec           0x74         116   
.text.congestion_contro 0x9d02dc60           0x74         116   
.text.nabto_limit_strea 0x9d02dcd4           0x74         116   
.text.strncpy           0x9d02dd48           0x74         116   
.text._EnetPoolFreeDcpt 0x9d02ddbc           0x70         112   
.text._DRV_ETHPHY_LinkS 0x9d02de2c           0x70         112   
.text._UDPFreeTxResourc 0x9d02de9c           0x70         112   
.text._UDPClose         0x9d02df0c           0x70         112   
.text._TCPIP_HEAP_Delet 0x9d02df7c           0x70         112   
.text._ARPSetEntry      0x9d02dfec           0x70         112   
.text._ARPRemoveEntry   0x9d02e05c           0x70         112   
.rodata                 0x9d02e0cc           0x70         112  Read-only const 
.text.unabto_init_conte 0x9d02e13c           0x70         112   
.text.insert_capabiliti 0x9d02e1ac           0x70         112   
.text.PLIB_ETH_MACGetAd 0x9d02e21c           0x70         112   
.text._MacRxFreeCallbac 0x9d02e28c           0x6c         108   
.text.TCPIP_UDP_OpenCli 0x9d02e2f8           0x6c         108   
.text.TCPIP_UDP_SocketN 0x9d02e364           0x6c         108   
.text._DHCPCleanup      0x9d02e3d0           0x6c         108   
.text._DNSGetData       0x9d02e43c           0x6c         108   
.text._TCPIP_PKT_Socket 0x9d02e4a8           0x6c         108   
.text.send_rendezvous_t 0x9d02e514           0x6c         108   
.text.nabto_init_socket 0x9d02e580           0x6c         108   
.text.unabto_stream_acc 0x9d02e5ec           0x68         104   
.text.DRV_ETHMAC_PIC32M 0x9d02e654           0x68         104   
.text.TCPIP_ARP_HashEnt 0x9d02e6bc           0x68         104   
.text._DHCPSetTimeout   0x9d02e724           0x68         104   
.text.TCPIP_DNS_RemoveE 0x9d02e78c           0x68         104   
.text.TCPIP_STACK_IsBca 0x9d02e7f4           0x68         104   
.text._TCPIPStackModule 0x9d02e85c           0x68         104   
.text.unabto_query_writ 0x9d02e8c4           0x68         104   
.text.unabto_stream_con 0x9d02e92c           0x68         104   
.text._sprintf_cdnopsux 0x9d02e994           0x68         104   
.rodata                 0x9d02e9fc           0x64         100  Read-only const 
.text.DRV_ETHPHY_SMISca 0x9d02ea60           0x64         100   
.text.DRV_TMR_Start     0x9d02eac4           0x64         100   
.text.TCPIP_IPV4_Cleanu 0x9d02eb28           0x64         100   
.text.TCPIP_UDP_SignalH 0x9d02eb8c           0x64         100   
.text.TCPIP_DHCP_Deinit 0x9d02ebf0           0x64         100   
.text.TCPIP_STACK_Addre 0x9d02ec54           0x64         100   
.text.send_controller_i 0x9d02ecb8           0x64         100   
.text.verify_connection 0x9d02ed1c           0x64         100   
.text.unabto_find_paylo 0x9d02ed80           0x64         100   
.text.memmove           0x9d02ede4           0x64         100   
.text._DRV_ETHPHY_Clien 0x9d02ee48           0x60          96   
.text._DRV_ETHPHY_Clien 0x9d02eea8           0x60          96   
.text._DRV_ETHPHY_Clien 0x9d02ef08           0x60          96   
.text._DRV_ETHPHY_Clien 0x9d02ef68           0x60          96   
.text._DRV_ETHPHY_Clien 0x9d02efc8           0x60          96   
.text._DRV_ETHPHY_Setup 0x9d02f028           0x60          96   
.text.IPv4RegisterFilte 0x9d02f088           0x60          96   
.text.TCPIP_UDP_GetIsRe 0x9d02f0e8           0x60          96   
.text._DHCPOptionProces 0x9d02f148           0x60          96   
.text._DNSClientCleanup 0x9d02f1a8           0x60          96   
.text.TCPIP_OAHASH_Entr 0x9d02f208           0x60          96   
.rodata                 0x9d02f268           0x60          96  Read-only const 
.text.fix_for_broken_ro 0x9d02f2c8           0x60          96   
.text.unabto_crypto_max 0x9d02f328           0x60          96   
.text.unabto_payload_re 0x9d02f388           0x60          96   
.text.sitofp            0x9d02f3e8           0x60          96   
.text._DRV_ETHPHY_Clien 0x9d02f448           0x5c          92   
.text.DRV_ETHPHY_LinkSt 0x9d02f4a4           0x5c          92   
.text.DRV_ETHPHY_Negoti 0x9d02f500           0x5c          92   
.text._DRV_ETHPHY_Clien 0x9d02f55c           0x5c          92   
.text._DNS_NetIsValid   0x9d02f5b8           0x5c          92   
.text.fnv_32_hash       0x9d02f614           0x5c          92   
.text.nabto_write_con   0x9d02f670           0x5c          92   
.text.unabto_packet_fin 0x9d02f6cc           0x5c          92   
.text.vsnprintf         0x9d02f728           0x5c          92   
.text.TCPIP_STACK_Init  0x9d02f784           0x58          88   
.text.DRV_ETHMAC_PIC32M 0x9d02f7dc           0x58          88   
.text._MacTxDiscardQueu 0x9d02f834           0x58          88   
.text.DRV_TMR_Open      0x9d02f88c           0x58          88   
.text.SYS_DEVCON_System 0x9d02f8e4           0x58          88   
.text.SYS_INT_SourceDis 0x9d02f93c           0x58          88   
.text.TCPIP_IPV4_CheckP 0x9d02f994           0x58          88   
.text._DHCPOptionProces 0x9d02f9ec           0x58          88   
.text._DHCPOptionProces 0x9d02fa44           0x58          88   
.text._DHCPOptionProces 0x9d02fa9c           0x58          88   
.text.TCPIP_Helper_Prot 0x9d02faf4           0x58          88   
.text.TCPIP_STACK_NetBy 0x9d02fb4c           0x58          88   
.text.TCPIP_Notificatio 0x9d02fba4           0x58          88   
.text.send_and_encrypt_ 0x9d02fbfc           0x58          88   
.text.nabto_dns_is_reso 0x9d02fc54           0x58          88   
.text.nabto_close_socke 0x9d02fcac           0x58          88   
.text.main_entry        0x9d02fd04           0x54          84   
.text.CRYPT_HMAC_SetKey 0x9d02fd58           0x54          84   
.text.DRV_ETHMAC_PIC32M 0x9d02fdac           0x54          84   
.text._DRV_ETHMAC_LinkS 0x9d02fe00           0x54          84   
.text._EnetDescriptorsC 0x9d02fe54           0x54          84   
.text.DRV_ETHPHY_Initia 0x9d02fea8           0x54          84   
.text.SYS_TMR_ObjectDel 0x9d02fefc           0x54          84   
.text.unabto_connection 0x9d02ff50           0x54          84   
.text.nabto_rd_payload  0x9d02ffa4           0x54          84   
.text.unabto_stream_sta 0x9d02fff8           0x54          84   
.text.wc_InitSha        0x9d03004c           0x50          80   
.text.CRYPT_AES_CBC_Enc 0x9d03009c           0x50          80   
.text.CRYPT_AES_CBC_Dec 0x9d0300ec           0x50          80   
.text._XtlEventsTcp2Eth 0x9d03013c           0x50          80   
.text.DRV_ETHPHY_HWConf 0x9d03018c           0x50          80   
.text._DRV_ETHPHY_NegRe 0x9d0301dc           0x50          80   
.text._DRV_ETHPHY_NegRe 0x9d03022c           0x50          80   
.text._DHCPOptionWriteP 0x9d03027c           0x50          80   
.text._DHCPOptionProces 0x9d0302cc           0x50          80   
.text.TCPIP_DNS_OAHASH_ 0x9d03031c           0x50          80   
.text._TCPIPStackModule 0x9d03036c           0x50          80   
.text.TCPIP_Notificatio 0x9d0303bc           0x50          80   
.text._TCPIP_PKT_Packet 0x9d03040c           0x50          80   
.text.unabto_tick       0x9d03045c           0x50          80   
.text.send_to_basestati 0x9d0304ac           0x50          80   
.text.unabto_payload_re 0x9d0304fc           0x50          80   
.text.unabto_stream_ini 0x9d03054c           0x50          80   
.text.send_rst          0x9d03059c           0x50          80   
.text.sbrk              0x9d0305ec           0x50          80   
.text.SYS_CLK_Secondary 0x9d03063c           0x4c          76   
.text._MACTxPacketAckCa 0x9d030688           0x4c          76   
.text.DRV_ETHPHY_Reset  0x9d0306d4           0x4c          76   
.text.DRV_ETHPHY_Negoti 0x9d030720           0x4c          76   
.text._DRV_PHY_NegCompl 0x9d03076c           0x4c          76   
.text._DRV_ETHPHY_Setup 0x9d0307b8           0x4c          76   
.text.SYS_TMR_TickCount 0x9d030804           0x4c          76   
.text.TCPIP_UDP_Discard 0x9d030850           0x4c          76   
.text._TCPIP_HEAP_Callo 0x9d03089c           0x4c          76   
.text._ARPRemoveCacheEn 0x9d0308e8           0x4c          76   
.text.TCPIP_STACK_DNSSe 0x9d030934           0x4c          76   
.text.TCPIP_Notificatio 0x9d030980           0x4c          76   
.text.statistics_time_e 0x9d0309cc           0x4c          76   
.text.send_and_encrypt_ 0x9d030a18           0x4c          76   
.text.stream_reset      0x9d030a64           0x4c          76   
.text.nabto_stream_tcb_ 0x9d030ab0           0x4c          76   
.text                   0x9d030afc           0x4c          76  App's exec code 
.text.calloc            0x9d030b48           0x4c          76   
.text.SYS_CLK_Initializ 0x9d030b94           0x48          72   
.text.Hash_DRBG_Uninsta 0x9d030bdc           0x48          72   
.text.DRV_ETHPHY_Tasks  0x9d030c24           0x48          72   
.text.DRV_ETHPHY_Restar 0x9d030c6c           0x48          72   
.text._DRV_ETHPHY_NegRe 0x9d030cb4           0x48          72   
.text._DRV_ETHPHY_Clien 0x9d030cfc           0x48          72   
.text.DRV_TMR_Close     0x9d030d44           0x48          72   
.text.SYS_DEVCON_System 0x9d030d8c           0x48          72   
.text._UDPIsAvailablePo 0x9d030dd4           0x48          72   
.text.TCPIP_UDP_Destina 0x9d030e1c           0x48          72   
.text.TCPIP_HEAP_Create 0x9d030e64           0x48          72   
.text.TCPIP_ARP_Handler 0x9d030eac           0x48          72   
.text._DHCPOptionWriteM 0x9d030ef4           0x48          72   
.text.TCPIP_Helper_Sing 0x9d030f3c           0x48          72   
.text.TCPIP_STACK_IPAdd 0x9d030f84           0x48          72   
.rodata                 0x9d030fcc           0x48          72  Read-only const 
.text._bootstrap_except 0x9d031014           0x48          72   
.vector_default         0x9d03105c           0x48          72   
.text.SYS_Tasks         0x9d0310a4           0x44          68   
.text.wc_AesSetKey      0x9d0310e8           0x44          68   
.text.CRYPT_AES_KeySet  0x9d03112c           0x44          68   
.text.Ipv4DeRegisterFil 0x9d031170           0x44          68   
.text.TCPIP_UDP_TxPoint 0x9d0311b4           0x44          68   
.text._SwapARPPacket    0x9d0311f8           0x44          68   
.text.TCPIP_DNS_ClientD 0x9d03123c           0x44          68   
.text.TCPIP_Helper_Prot 0x9d031280           0x44          68   
.text._TCPIP_STACK_Tick 0x9d0312c4           0x44          68   
.text.TCPIP_STACK_NetIs 0x9d031308           0x44          68   
.text.TCPIP_STACK_NetAd 0x9d03134c           0x44          68   
.text.nabto_connect_eve 0x9d031390           0x44          68   
.text.unabto_payload_re 0x9d0313d4           0x44          68   
.text.unabto_stream_sta 0x9d031418           0x44          68   
.text.PLIB_ETH_RxSetBuf 0x9d03145c           0x44          68   
.text                   0x9d0314a0           0x88         136  App's exec code 
.text._general_exceptio 0x9d031528           0x40          64   
.text.wc_InitMd5        0x9d031568           0x40          64   
.text.CRYPT_HMAC_DataAd 0x9d0315a8           0x40          64   
.text.CRYPT_HMAC_Finali 0x9d0315e8           0x40          64   
.text.CRYPT_RNG_BlockGe 0x9d031628           0x40          64   
.text._DRV_ETHPHY_NegCo 0x9d031668           0x40          64   
.text.TCPIP_Helper_Prot 0x9d0316a8           0x40          64   
.text.nabto_rendezvous_ 0x9d0316e8           0x40          64   
.text.windowStatus      0x9d031728           0x40          64   
.text.unabto_stream_get 0x9d031768           0x40          64   
.text._DRV_ETHMAC_LinkS 0x9d0317a8           0x3c          60   
.text.DRV_ETHMAC_Single 0x9d0317e4           0x3c          60   
.text._UDPTxPktValid    0x9d031820           0x3c          60   
.text._UDPFreeRxQueue   0x9d03185c           0x3c          60   
.text._ARPTxAckFnc      0x9d031898           0x3c          60   
.text.TCPIP_ARP_HashKey 0x9d0318d4           0x3c          60   
.text.TCPIP_DNS_IsResol 0x9d031910           0x3c          60   
.text.TCPIP_OAHASH_Init 0x9d03194c           0x3c          60   
.text.TCPIP_Helper_Sing 0x9d031988           0x3c          60   
.text._TCPIPSignalEntry 0x9d0319c4           0x3c          60   
.text._TCPIPStackSetCon 0x9d031a00           0x3c          60   
.text.unabto_count_acti 0x9d031a3c           0x3c          60   
.rodata                 0x9d031a78           0x3c          60  Read-only const 
.text.nabto_crypto_rele 0x9d031ab4           0x3c          60   
.text.insert_optional_p 0x9d031af0           0x3c          60   
.text.unabto_stream_sta 0x9d031b2c           0x3c          60   
.text.setLed            0x9d031b68           0x38          56   
.text.BSP_LEDStateSet   0x9d031ba0           0x38          56   
.text.wolfSSL_Malloc    0x9d031bd8           0x38          56   
.text._EthMacReset      0x9d031c10           0x38          56   
.text.DRV_ETHMAC_LibDes 0x9d031c48           0x38          56   
.text.DRV_ETHMAC_LibRxP 0x9d031c80           0x38          56   
.text.DRV_ETHMAC_LibRxS 0x9d031cb8           0x38          56   
.text.DRV_ETHMAC_LibTxP 0x9d031cf0           0x38          56   
.text._DRV_PHY_SMIReadS 0x9d031d28           0x38          56   
.text._DRV_PHY_SMIWrite 0x9d031d60           0x38          56   
.text.DRV_ETHPHY_SMISta 0x9d031d98           0x38          56   
.text._DRV_ETHPHY_Reset 0x9d031dd0           0x38          56   
.text.SYS_RANDOM_Crypto 0x9d031e08           0x38          56   
.text._UDPSocketDcpt    0x9d031e40           0x38          56   
.text._ARPAllocateTxPac 0x9d031e78           0x38          56   
.text.TCPIP_STACK_Index 0x9d031eb0           0x38          56   
.text.TCPIP_STACK_Addre 0x9d031ee8           0x38          56   
.text.TCPIP_PKT_Payload 0x9d031f20           0x38          56   
.text.nabto_ctx_reset   0x9d031f58           0x38          56   
.text.insert_data_heade 0x9d031f90           0x38          56   
.text.stream_initial_co 0x9d031fc8           0x38          56   
.text.unabto_stream_ind 0x9d032000           0x38          56   
.text.nabto_stream_tcb_ 0x9d032038           0x38          56   
.text.unabto_stream_adv 0x9d032070           0x38          56   
.text.nabto_stream_make 0x9d0320a8           0x38          56   
.text.SYS_INT_SourceRes 0x9d0320e0           0x34          52   
.text.readLed           0x9d032114           0x34          52   
.text.DRV_ETHMAC_LibTxA 0x9d032148           0x34          52   
.text.DRV_ETHPHY_PhyAdd 0x9d03217c           0x34          52   
.text.DRV_ETHPHY_Client 0x9d0321b0           0x34          52   
.text._DRV_ETHPHY_LinkS 0x9d0321e4           0x34          52   
.text._DRV_ETHPHY_NegRe 0x9d032218           0x34          52   
.text._DRV_ETHPHY_NegCo 0x9d03224c           0x34          52   
.text._DRV_ETHPHY_NegRe 0x9d032280           0x34          52   
.text._UDPUpdatePacketL 0x9d0322b4           0x34          52   
.text.TCPIP_STACK_NetAd 0x9d0322e8           0x34          52   
.text.TCPIP_STACK_DNSSe 0x9d03231c           0x34          52   
.text.TCPIP_STACK_Addre 0x9d032350           0x34          52   
.text.TCPIP_STACK_NetAd 0x9d032384           0x34          52   
.text._TCPIPStackHandle 0x9d0323b8           0x34          52   
.text.TCPIP_STACK_NetIs 0x9d0323ec           0x34          52   
.text.unabto_time_event 0x9d032420           0x34          52   
.text.nabto_init_connec 0x9d032454           0x34          52   
.text.nabto_crypto_rein 0x9d032488           0x34          52   
.text.unabto_stream_mar 0x9d0324bc           0x34          52   
.text.exit              0x9d0324f0           0x34          52   
.text.CRYPT_RNG_Initial 0x9d032524           0x30          48   
.text._MacCallocCallbac 0x9d032554           0x30          48   
.text.DRV_ETHMAC_PIC32M 0x9d032584           0x30          48   
.text.DRV_ETHMAC_Single 0x9d0325b4           0x30          48   
.text.DRV_ETHPHY_Vendor 0x9d0325e4           0x30          48   
.text._TCPIP_HEAP_FreeS 0x9d032614           0x30          48   
.text._DHCPSocketRxSign 0x9d032644           0x30          48   
.text._DNSSocketRxSigna 0x9d032674           0x30          48   
.text.TCPIP_OAHASH_Entr 0x9d0326a4           0x30          48   
.text.TCPIP_Helper_Sing 0x9d0326d4           0x30          48   
.text.TCPIP_STACK_NetAd 0x9d032704           0x30          48   
.text.TCPIP_STACK_NetMa 0x9d032734           0x30          48   
.text.TCPIP_STACK_Netwo 0x9d032764           0x30          48   
.text._TCPIPStackModule 0x9d032794           0x30          48   
.text.unabto_abuffer_in 0x9d0327c4           0x30          48   
.text.nabto_dns_resolve 0x9d0327f4           0x30          48   
.text.nabtoIsStampPasse 0x9d032824           0x30          48   
.text.free              0x9d032854           0x30          48   
.text.DRV_ETHPHY_Reinit 0x9d032884           0x2c          44   
.text._SYS_TMR_AlarmCal 0x9d0328b0           0x2c          44   
.text.TCPIP_OAHASH_Entr 0x9d0328dc           0x2c          44   
.text.TCPIP_Notificatio 0x9d032908           0x2c          44   
.text.nabto_context_rei 0x9d032934           0x2c          44   
.text.unabto_crypto_req 0x9d032960           0x2c          44   
.text.unabto_stream_rel 0x9d03298c           0x2c          44   
.text.nabto_stream_wind 0x9d0329b8           0x2c          44   
.text._stub_sbd_memlayo 0x9d0329e4           0x2c          44   
.text.BSP_Initialize    0x9d032a10           0x28          40   
.text._MacTxFreeCallbac 0x9d032a38           0x28          40   
.text.SYS_TMR_TickCount 0x9d032a60           0x28          40   
.text._TCPIP_HEAP_Size  0x9d032a88           0x28          40   
.text._TCPIP_HEAP_LastE 0x9d032ab0           0x28          40   
.text.TCPIP_STACK_NetMA 0x9d032ad8           0x28          40   
.text._TCPIPStackSignal 0x9d032b00           0x28          40   
.text.nabto_context_ini 0x9d032b28           0x28          40   
.text.unabto_packet_ini 0x9d032b50           0x28          40   
.text.nabto_stream_tcb_ 0x9d032b78           0x28          40   
.text.PLIB_ETH_MACSetMa 0x9d032ba0           0x28          40   
.text.DRV_ETHMAC_PIC32M 0x9d032bc8           0x24          36   
.text.SYS_TMR_TickCount 0x9d032bec           0x24          36   
.text.SYS_TMR_SystemCou 0x9d032c10           0x24          36   
.text.TCPIP_UDP_Put     0x9d032c34           0x24          36   
.text._DHCPOptionWriteE 0x9d032c58           0x24          36   
.text._TCPIPSignalEntry 0x9d032c7c           0x24          36   
.text.nabto_connection_ 0x9d032ca0           0x24          36   
.rodata                 0x9d032cc4           0x24          36  Read-only const 
.text.unabto_stream_rea 0x9d032ce8           0x24          36   
.text.unabto_stream_ack 0x9d032d0c           0x24          36   
.text.toupper           0x9d032d30           0x24          36   
.text.main              0x9d032d54           0x20          32   
.text.BSP_LEDStateGet   0x9d032d74           0x20          32   
.text.DRV_ETHMAC_PIC32M 0x9d032d94           0x20          32   
.text._DRV_ETHMAC_GetFr 0x9d032db4           0x20          32   
.text._DRV_ETHMAC_GetFr 0x9d032dd4           0x20          32   
.text._DRV_ETHMAC_GetFr 0x9d032df4           0x20          32   
.text._DRV_ETHMAC_GetFr 0x9d032e14           0x20          32   
.text._DRV_ETHMAC_GetFr 0x9d032e34           0x20          32   
.text._DRV_ETHMAC_GetAl 0x9d032e54           0x20          32   
.text._DRV_ETHMAC_GetSC 0x9d032e74           0x20          32   
.text._DRV_ETHMAC_GetMC 0x9d032e94           0x20          32   
.text.DRV_ETHPHY_Close  0x9d032eb4           0x20          32   
.text._DRV_ETHPHY_Clien 0x9d032ed4           0x20          32   
.text.TCPIP_HEAP_Malloc 0x9d032ef4           0x20          32   
.text.TCPIP_HEAP_Calloc 0x9d032f14           0x20          32   
.text.TCPIP_HEAP_Free   0x9d032f34           0x20          32   
.text.TCPIP_DNS_OAHASH_ 0x9d032f54           0x20          32   
.text.TCPIP_STACK_Statu 0x9d032f74           0x20          32   
.text.init_application_ 0x9d032f94           0x20          32   
.text.unabto_stream_is_ 0x9d032fb4           0x20          32   
.text.PLIB_ETH_EventsGe 0x9d032fd4           0x20          32   
.text.stream_echo_init  0x9d032ff4           0x1c          28   
.text._DRV_ETHPHY_Clien 0x9d033010           0x1c          28   
.text.DRV_ETHPHY_Vendor 0x9d03302c           0x1c          28   
.rodata                 0x9d033048           0x1c          28  Read-only const 
.text.SYS_RANDOM_Pseudo 0x9d033064           0x1c          28   
.text.SYS_TMR_CallbackS 0x9d033080           0x1c          28   
.text.SYS_TMR_CallbackP 0x9d03309c           0x1c          28   
.text.TCPIP_UDP_ServerO 0x9d0330b8           0x1c          28   
.text.TCPIP_UDP_ClientO 0x9d0330d4           0x1c          28   
.text.TCPIP_UDP_TxPutIs 0x9d0330f0           0x1c          28   
.text.TCPIP_DNS_Resolve 0x9d03310c           0x1c          28   
.text.TCPIP_Helper_Chec 0x9d033128           0x1c          28   
.text.TCPIP_Notificatio 0x9d033144           0x1c          28   
.text.unabto_query_requ 0x9d033160           0x1c          28   
.text.unabto_query_resp 0x9d03317c           0x1c          28   
.text.unabto_query_resp 0x9d033198           0x1c          28   
.text.unabto_stream_ack 0x9d0331b4           0x1c          28   
.text.unabto_stream_clo 0x9d0331d0           0x1c          28   
.text.nabto_stream_stat 0x9d0331ec           0x1c          28   
.text.nabto_stream_tcb_ 0x9d033208           0x1c          28   
.rodata                 0x9d033224           0x1c          28  Read-only const 
.text.nabto_random      0x9d033240           0x1c          28   
.text.nabtoGetStamp     0x9d03325c           0x1c          28   
.text.PLIB_ETH_RxFilter 0x9d033278           0x1c          28   
.text.PLIB_ETH_RxFilter 0x9d033294           0x1c          28   
.text.PLIB_ETH_RxFilter 0x9d0332b0           0x1c          28   
.text.srand             0x9d0332cc           0x1c          28   
.text.DRV_ETHPHY_Status 0x9d0332e8           0x18          24   
.text.DRV_ETHPHY_Client 0x9d033300           0x18          24   
.text.DRV_ETHPHY_Client 0x9d033318           0x18          24   
.text.SYS_DEVCON_JTAGDi 0x9d033330           0x18          24   
.text.SYS_INT_Initializ 0x9d033348           0x18          24   
.text.SYS_TMR_ModuleSta 0x9d033360           0x18          24   
.text.TCPIP_ARP_HashKey 0x9d033378           0x18          24   
.text.TCPIP_STACK_NetIx 0x9d033390           0x18          24   
.text.TCPIP_STACK_Gatew 0x9d0333a8           0x18          24   
.text.TCPIP_STACK_Prima 0x9d0333c0           0x18          24   
.text.TCPIP_STACK_Secon 0x9d0333d8           0x18          24   
.text.unabto_abuffer_ge 0x9d0333f0           0x18          24   
.rodata                 0x9d033408           0x18          24  Read-only const 
.text.PLIB_ETH_EventsEn 0x9d033420           0x18          24   
.text.PLIB_ETH_EventsEn 0x9d033438           0x18          24   
.text.PLIB_ETH_EventsCl 0x9d033450           0x18          24   
.text                   0x9d033468           0x18          24  App's exec code 
.text.SYS_DEVCON_Initia 0x9d033480           0x14          20   
.text.nabtoStampDiff    0x9d033494           0x14          20   
.rodata                 0x9d0334a8           0x10          16  Read-only const 
.text.TCPIP_ARP_HashKey 0x9d0334b8           0x10          16   
.text.TCPIP_Helper_Sing 0x9d0334c8           0x10          16   
.text.unabto_extended_r 0x9d0334d8           0x10          16   
.rodata                 0x9d0334e8           0x10          16  Read-only const 
.text.SYS_CLK_SystemFre 0x9d0334f8            0xc          12   
.text.SYS_CLK_Periphera 0x9d033504            0xc          12   
.text.DRV_ETHMAC_PIC32M 0x9d033510            0xc          12   
.text.DRV_EXTPHY_SMIClo 0x9d03351c            0xc          12   
.text.TCPIP_STACK_Numbe 0x9d033528            0xc          12   
.text.TCPIP_STACK_NetBI 0x9d033534            0xc          12   
.text.framework_event_q 0x9d033540            0xc          12   
.text.unabto_buffer_ini 0x9d03354c            0xc          12   
.text.nabto_crypto_rese 0x9d033558            0xc          12   
.text.unabto_query_requ 0x9d033564            0xc          12   
.text.APP_Initialize    0x9d033570            0x8           8   
.text.application_event 0x9d033578            0x8           8   
.text.DRV_ETHMAC_PIC32M 0x9d033580            0x8           8   
.text.DRV_ETHMAC_PIC32M 0x9d033588            0x8           8   
.text._DRV_ETHPHY_Clien 0x9d033590            0x8           8   
.text.SYS_DEVCON_Tasks  0x9d033598            0x8           8   
.text._TCPIP_HEAP_Buffe 0x9d0335a0            0x8           8   
.text._DHCPOptionProces 0x9d0335a8            0x8           8   
.text.TCPIP_STACK_NetDe 0x9d0335b0            0x8           8   
.text.TCPIP_PKT_Deiniti 0x9d0335b8            0x8           8   
.text.framework_release 0x9d0335c0            0x8           8   
.text.framework_event_p 0x9d0335c8            0x8           8   
.text.nabtoMsec2Stamp   0x9d0335d0            0x8           8   
.text._on_reset         0x9d0335d8            0x8           8   
.text._on_bootstrap     0x9d0335e0            0x8           8   
.text._cleanup          0x9d0335e8            0x8           8   
.rodata                 0x9d0335f0            0x8           8  Read-only const 
      Total kseg0_program_mem used  :     0x335f4      210420  40.1% of 0x80000

kseg0 Boot-Memory Usage
section                    address  length [bytes]      (dec)  Description
-------                 ----------  -------------------------  -----------
         Total kseg0_boot_mem used  :           0           0  <1% of 0x970

Exception-Memory Usage 
section                    address  length [bytes]      (dec)  Description
-------                 ----------  -------------------------  -----------
.app_excpt              0x9fc01180           0x10          16  General-Exception 
.vector_0               0x9fc01200            0x8           8  Interrupt Vector 0 
.vector_1               0x9fc01220            0x8           8  Interrupt Vector 1 
.vector_2               0x9fc01240            0x8           8  Interrupt Vector 2 
.vector_3               0x9fc01260            0x8           8  Interrupt Vector 3 
.vector_4               0x9fc01280            0x8           8  Interrupt Vector 4 
.vector_5               0x9fc012a0            0x8           8  Interrupt Vector 5 
.vector_6               0x9fc012c0            0x8           8  Interrupt Vector 6 
.vector_7               0x9fc012e0            0x8           8  Interrupt Vector 7 
.vector_8               0x9fc01300            0x8           8  Interrupt Vector 8 
.vector_9               0x9fc01320            0x8           8  Interrupt Vector 9 
.vector_10              0x9fc01340            0x8           8  Interrupt Vector 10 
.vector_11              0x9fc01360            0x8           8  Interrupt Vector 11 
.vector_12              0x9fc01380            0x8           8  Interrupt Vector 12 
.vector_13              0x9fc013a0            0x8           8  Interrupt Vector 13 
.vector_14              0x9fc013c0            0x8           8  Interrupt Vector 14 
.vector_15              0x9fc013e0            0x8           8  Interrupt Vector 15 
.vector_16              0x9fc01400            0x8           8  Interrupt Vector 16 
.vector_17              0x9fc01420            0x8           8  Interrupt Vector 17 
.vector_18              0x9fc01440            0x8           8  Interrupt Vector 18 
.vector_19              0x9fc01460            0x8           8  Interrupt Vector 19 
.vector_20              0x9fc01480            0x8           8  Interrupt Vector 20 
.vector_21              0x9fc014a0            0x8           8  Interrupt Vector 21 
.vector_22              0x9fc014c0            0x8           8  Interrupt Vector 22 
.vector_23              0x9fc014e0            0x8           8  Interrupt Vector 23 
.vector_24              0x9fc01500            0x8           8  Interrupt Vector 24 
.vector_25              0x9fc01520            0x8           8  Interrupt Vector 25 
.vector_26              0x9fc01540            0x8           8  Interrupt Vector 26 
.vector_27              0x9fc01560            0x8           8  Interrupt Vector 27 
.vector_28              0x9fc01580            0x8           8  Interrupt Vector 28 
.vector_29              0x9fc015a0            0x8           8  Interrupt Vector 29 
.vector_30              0x9fc015c0            0x8           8  Interrupt Vector 30 
.vector_31              0x9fc015e0            0x8           8  Interrupt Vector 31 
.vector_32              0x9fc01600            0x8           8  Interrupt Vector 32 
.vector_33              0x9fc01620            0x8           8  Interrupt Vector 33 
.vector_34              0x9fc01640            0x8           8  Interrupt Vector 34 
.vector_35              0x9fc01660            0x8           8  Interrupt Vector 35 
.vector_36              0x9fc01680            0x8           8  Interrupt Vector 36 
.vector_37              0x9fc016a0            0x8           8  Interrupt Vector 37 
.vector_38              0x9fc016c0            0x8           8  Interrupt Vector 38 
.vector_39              0x9fc016e0            0x8           8  Interrupt Vector 39 
.vector_40              0x9fc01700            0x8           8  Interrupt Vector 40 
.vector_41              0x9fc01720            0x8           8  Interrupt Vector 41 
.vector_42              0x9fc01740            0x8           8  Interrupt Vector 42 
.vector_43              0x9fc01760            0x8           8  Interrupt Vector 43 
.vector_44              0x9fc01780            0x8           8  Interrupt Vector 44 
.vector_45              0x9fc017a0            0x8           8  Interrupt Vector 45 
.vector_46              0x9fc017c0            0x8           8  Interrupt Vector 46 
.vector_47              0x9fc017e0            0x8           8  Interrupt Vector 47 
.vector_48              0x9fc01800            0x8           8  Interrupt Vector 48 
.vector_49              0x9fc01820            0x8           8  Interrupt Vector 49 
.vector_50              0x9fc01840            0x8           8  Interrupt Vector 50 
.vector_51              0x9fc01860            0x8           8  Interrupt Vector 51 
          Total exception_mem used  :       0x1b0         432  10.5% of 0x1000

kseg1 Boot-Memory Usage
section                    address  length [bytes]      (dec)  Description
-------                 ----------  -------------------------  -----------
.reset                  0xbfc00000          0x208         520  Reset handler 
.bev_excpt              0xbfc00380           0x10          16  BEV-Exception 
         Total kseg1_boot_mem used  :       0x218         536  45.9% of 0x490
        --------------------------------------------------------------------------
         Total Program Memory used  :     0x339bc      211388  39.7% of 0x81e00
        --------------------------------------------------------------------------


kseg1 Data-Memory Usage
section                    address  length [bytes]      (dec)  Description
-------                 ----------  -------------------------  -----------
.sdata                  0xa0000000           0x70         112  Small init data 
.sbss                   0xa0000070           0xd0         208  Small uninit data 
.bss                    0xa0000140         0xdb48       56136  Uninitialized data 
.bss                    0xa000dc88          0xb18        2840  Uninitialized data 
.data                   0xa000e7a0          0x10c         268  Initialized data 
.bss                    0xa000e8ac           0xd4         212  Uninitialized data 
.bss                    0xa000e980           0x80         128  Uninitialized data 
.bss                    0xa000ea00           0x64         100  Uninitialized data 
.bss                    0xa000ea64           0x44          68  Uninitialized data 
.bss                    0xa000eaa8           0x20          32  Uninitialized data 
.data                   0xa000eac8           0x1c          28  Initialized data 
.bss                    0xa000eae4           0x30          48  Uninitialized data 
.bss                    0xa000eb14           0x10          16  Uninitialized data 
.bss.errno              0xa000eb24            0x4           4   
.bss                    0xa000eb28           0x10          16  Uninitialized data 
         Total kseg1_data_mem used  :      0xeb38       60216  45.9% of 0x20000
        --------------------------------------------------------------------------
            Total Data Memory used  :      0xeb38       60216  45.9% of 0x20000
        --------------------------------------------------------------------------


Dynamic Data-Memory Reservation
section                    address  length [bytes]      (dec)  Description
-------                 ----------  -------------------------  -----------
heap                    0xa000eb40         0xafa0       44960  Reserved for heap 
stack                   0xa0019af8         0x6500       25856  Reserved for stack 

        --------------------------------------------------------------------------

Discarded input sections

 .text          0x00000000        0x0 /opt/microchip/xc32/v1.43/bin/bin/../../lib/gcc/pic32mx/4.8.3/../../../../pic32mx/lib/./proc/32MX795F512L/crt0_mips32r2.o
 .data          0x00000000        0x0 /opt/microchip/xc32/v1.43/bin/bin/../../lib/gcc/pic32mx/4.8.3/../../../../pic32mx/lib/./proc/32MX795F512L/crt0_mips32r2.o
 .bss           0x00000000        0x0 /opt/microchip/xc32/v1.43/bin/bin/../../lib/gcc/pic32mx/4.8.3/../../../../pic32mx/lib/./proc/32MX795F512L/crt0_mips32r2.o
 .text          0x00000000        0x0 /opt/microchip/xc32/v1.43/bin/bin/../../lib/gcc/pic32mx/4.8.3/../../../../pic32mx/lib/debug-exception-return.o
 .data          0x00000000        0x0 /opt/microchip/xc32/v1.43/bin/bin/../../lib/gcc/pic32mx/4.8.3/../../../../pic32mx/lib/debug-exception-return.o
 .bss           0x00000000        0x0 /opt/microchip/xc32/v1.43/bin/bin/../../lib/gcc/pic32mx/4.8.3/../../../../pic32mx/lib/debug-exception-return.o
 .reginfo       0x00000000       0x18 /opt/microchip/xc32/v1.43/bin/bin/../../lib/gcc/pic32mx/4.8.3/../../../../pic32mx/lib/debug-exception-return.o
 .text          0x00000000        0x0 build/DM30004-2/production/_ext/2025569787/sys_clk_static.o
 .data          0x00000000        0x0 build/DM30004-2/production/_ext/2025569787/sys_clk_static.o
 .bss           0x00000000        0x0 build/DM30004-2/production/_ext/2025569787/sys_clk_static.o
 .reginfo       0x00000000       0x18 build/DM30004-2/production/_ext/2025569787/sys_clk_static.o
 .text.SYS_CLK_ReferenceClockFrequencyGet
                0x00000000        0x8 build/DM30004-2/production/_ext/2025569787/sys_clk_static.o
 .text.SYS_CLK_SecondaryOscillatorDisable
                0x00000000       0x4c build/DM30004-2/production/_ext/2025569787/sys_clk_static.o
 .text.SYS_CLK_SecondaryOscillatorIsEnabled
                0x00000000       0x10 build/DM30004-2/production/_ext/2025569787/sys_clk_static.o
 .text          0x00000000        0x0 build/DM30004-2/production/_ext/540202005/sys_ports_static.o
 .data          0x00000000        0x0 build/DM30004-2/production/_ext/540202005/sys_ports_static.o
 .bss           0x00000000        0x0 build/DM30004-2/production/_ext/540202005/sys_ports_static.o
 .reginfo       0x00000000       0x18 build/DM30004-2/production/_ext/540202005/sys_ports_static.o
 .text.SYS_PORTS_Read
                0x00000000       0x38 build/DM30004-2/production/_ext/540202005/sys_ports_static.o
 .text.SYS_PORTS_Write
                0x00000000       0x2c build/DM30004-2/production/_ext/540202005/sys_ports_static.o
 .text.SYS_PORTS_Set
                0x00000000       0x34 build/DM30004-2/production/_ext/540202005/sys_ports_static.o
 .text.SYS_PORTS_Clear
                0x00000000       0x30 build/DM30004-2/production/_ext/540202005/sys_ports_static.o
 .text.SYS_PORTS_DirectionSelect
                0x00000000       0x6c build/DM30004-2/production/_ext/540202005/sys_ports_static.o
 .text.SYS_PORTS_DirectionGet
                0x00000000       0x38 build/DM30004-2/production/_ext/540202005/sys_ports_static.o
 .text.SYS_PORTS_Toggle
                0x00000000       0x30 build/DM30004-2/production/_ext/540202005/sys_ports_static.o
 .text.SYS_PORTS_OpenDrainEnable
                0x00000000       0x30 build/DM30004-2/production/_ext/540202005/sys_ports_static.o
 .text.SYS_PORTS_OpenDrainDisable
                0x00000000       0x30 build/DM30004-2/production/_ext/540202005/sys_ports_static.o
 .text.SYS_PORTS_ChangeNotificationGlobalEnable
                0x00000000       0x1c build/DM30004-2/production/_ext/540202005/sys_ports_static.o
 .text.SYS_PORTS_ChangeNotificationGlobalDisable
                0x00000000       0x1c build/DM30004-2/production/_ext/540202005/sys_ports_static.o
 .text.SYS_PORTS_GlobalChangeNotificationDisable
                0x00000000       0x1c build/DM30004-2/production/_ext/540202005/sys_ports_static.o
 .text.SYS_PORTS_ChangeNotificationEnable
                0x00000000       0x78 build/DM30004-2/production/_ext/540202005/sys_ports_static.o
 .text.SYS_PORTS_ChangeNotificationDisable
                0x00000000       0x20 build/DM30004-2/production/_ext/540202005/sys_ports_static.o
 .text.SYS_PORTS_ChangeNotificationInIdleModeEnable
                0x00000000       0x1c build/DM30004-2/production/_ext/540202005/sys_ports_static.o
 .text.SYS_PORTS_ChangeNotificationInIdleModeDisable
                0x00000000       0x1c build/DM30004-2/production/_ext/540202005/sys_ports_static.o
 .text.SYS_PORTS_ChangeNotificationPullUpEnable
                0x00000000       0x20 build/DM30004-2/production/_ext/540202005/sys_ports_static.o
 .text.SYS_PORTS_ChangeNotificationPullUpDisable
                0x00000000       0x20 build/DM30004-2/production/_ext/540202005/sys_ports_static.o
 .text.SYS_PORTS_PinModeSelect
                0x00000000       0x38 build/DM30004-2/production/_ext/540202005/sys_ports_static.o
 .text.SYS_PORTS_PinWrite
                0x00000000       0x70 build/DM30004-2/production/_ext/540202005/sys_ports_static.o
 .text.SYS_PORTS_PinRead
                0x00000000       0x44 build/DM30004-2/production/_ext/540202005/sys_ports_static.o
 .text.SYS_PORTS_PinToggle
                0x00000000       0x38 build/DM30004-2/production/_ext/540202005/sys_ports_static.o
 .text.SYS_PORTS_PinSet
                0x00000000       0x38 build/DM30004-2/production/_ext/540202005/sys_ports_static.o
 .text.SYS_PORTS_PinClear
                0x00000000       0x38 build/DM30004-2/production/_ext/540202005/sys_ports_static.o
 .text.SYS_PORTS_PinDirectionSelect
                0x00000000       0x78 build/DM30004-2/production/_ext/540202005/sys_ports_static.o
 .text.SYS_PORTS_PinOpenDrainEnable
                0x00000000       0x38 build/DM30004-2/production/_ext/540202005/sys_ports_static.o
 .text.SYS_PORTS_PinOpenDrainDisable
                0x00000000       0x38 build/DM30004-2/production/_ext/540202005/sys_ports_static.o
 .text.SYS_PORTS_RemapInput
                0x00000000        0x8 build/DM30004-2/production/_ext/540202005/sys_ports_static.o
 .text.SYS_PORTS_RemapOutput
                0x00000000        0x8 build/DM30004-2/production/_ext/540202005/sys_ports_static.o
 .text          0x00000000        0x0 build/DM30004-2/production/_ext/1280997252/system_init.o
 .bss           0x00000000        0x0 build/DM30004-2/production/_ext/1280997252/system_init.o
 .reginfo       0x00000000       0x18 build/DM30004-2/production/_ext/1280997252/system_init.o
 .text          0x00000000        0x0 build/DM30004-2/production/_ext/1280997252/system_interrupt.o
 .data          0x00000000        0x0 build/DM30004-2/production/_ext/1280997252/system_interrupt.o
 .bss           0x00000000        0x0 build/DM30004-2/production/_ext/1280997252/system_interrupt.o
 .reginfo       0x00000000       0x18 build/DM30004-2/production/_ext/1280997252/system_interrupt.o
 .text          0x00000000        0x0 build/DM30004-2/production/_ext/1280997252/system_exceptions.o
 .data          0x00000000        0x0 build/DM30004-2/production/_ext/1280997252/system_exceptions.o
 .bss           0x00000000        0x0 build/DM30004-2/production/_ext/1280997252/system_exceptions.o
 .reginfo       0x00000000       0x18 build/DM30004-2/production/_ext/1280997252/system_exceptions.o
 .text          0x00000000        0x0 build/DM30004-2/production/_ext/1280997252/system_tasks.o
 .data          0x00000000        0x0 build/DM30004-2/production/_ext/1280997252/system_tasks.o
 .bss           0x00000000        0x0 build/DM30004-2/production/_ext/1280997252/system_tasks.o
 .reginfo       0x00000000       0x18 build/DM30004-2/production/_ext/1280997252/system_tasks.o
 .text          0x00000000        0x0 build/DM30004-2/production/_ext/1360937237/app.o
 .data          0x00000000        0x0 build/DM30004-2/production/_ext/1360937237/app.o
 .bss           0x00000000        0x0 build/DM30004-2/production/_ext/1360937237/app.o
 .reginfo       0x00000000       0x18 build/DM30004-2/production/_ext/1360937237/app.o
 .text          0x00000000        0x0 build/DM30004-2/production/_ext/1360937237/main.o
 .data          0x00000000        0x0 build/DM30004-2/production/_ext/1360937237/main.o
 .bss           0x00000000        0x0 build/DM30004-2/production/_ext/1360937237/main.o
 .reginfo       0x00000000       0x18 build/DM30004-2/production/_ext/1360937237/main.o
 .text          0x00000000        0x0 build/DM30004-2/production/_ext/1360937237/stream_echo.o
 .data          0x00000000        0x0 build/DM30004-2/production/_ext/1360937237/stream_echo.o
 .bss           0x00000000        0x0 build/DM30004-2/production/_ext/1360937237/stream_echo.o
 .reginfo       0x00000000       0x18 build/DM30004-2/production/_ext/1360937237/stream_echo.o
 .text          0x00000000        0x0 build/DM30004-2/production/_ext/632331575/bsp_sys_init.o
 .data          0x00000000        0x0 build/DM30004-2/production/_ext/632331575/bsp_sys_init.o
 .bss           0x00000000        0x0 build/DM30004-2/production/_ext/632331575/bsp_sys_init.o
 .reginfo       0x00000000       0x18 build/DM30004-2/production/_ext/632331575/bsp_sys_init.o
 .text.BSP_LEDOn
                0x00000000       0x1c build/DM30004-2/production/_ext/632331575/bsp_sys_init.o
 .text.BSP_LEDOff
                0x00000000       0x1c build/DM30004-2/production/_ext/632331575/bsp_sys_init.o
 .text.BSP_LEDToggle
                0x00000000       0x1c build/DM30004-2/production/_ext/632331575/bsp_sys_init.o
 .text.BSP_SwitchStateGet
                0x00000000       0x20 build/DM30004-2/production/_ext/632331575/bsp_sys_init.o
 .text.BSP_USBVBUSSwitchOverCurrentDetect
                0x00000000        0x8 build/DM30004-2/production/_ext/632331575/bsp_sys_init.o
 .text.BSP_USBVBUSPowerEnable
                0x00000000       0x30 build/DM30004-2/production/_ext/632331575/bsp_sys_init.o
 .text          0x00000000        0x0 build/DM30004-2/production/_ext/134845378/adler32.o
 .data          0x00000000        0x0 build/DM30004-2/production/_ext/134845378/adler32.o
 .bss           0x00000000        0x0 build/DM30004-2/production/_ext/134845378/adler32.o
 .reginfo       0x00000000       0x18 build/DM30004-2/production/_ext/134845378/adler32.o
 .text.adler32_combine_
                0x00000000      0x104 build/DM30004-2/production/_ext/134845378/adler32.o
 .text.adler32  0x00000000      0x3f0 build/DM30004-2/production/_ext/134845378/adler32.o
 .text.adler32_combine
                0x00000000       0x1c build/DM30004-2/production/_ext/134845378/adler32.o
 .text.adler32_combine64
                0x00000000       0x1c build/DM30004-2/production/_ext/134845378/adler32.o
 .text          0x00000000        0x0 build/DM30004-2/production/_ext/134845378/compress.o
 .data          0x00000000        0x0 build/DM30004-2/production/_ext/134845378/compress.o
 .bss           0x00000000        0x0 build/DM30004-2/production/_ext/134845378/compress.o
 .reginfo       0x00000000       0x18 build/DM30004-2/production/_ext/134845378/compress.o
 .rodata        0x00000000        0x8 build/DM30004-2/production/_ext/134845378/compress.o
 .text.compress2
                0x00000000       0xa8 build/DM30004-2/production/_ext/134845378/compress.o
 .text.compress
                0x00000000       0x20 build/DM30004-2/production/_ext/134845378/compress.o
 .text.compressBound
                0x00000000       0x20 build/DM30004-2/production/_ext/134845378/compress.o
 .text          0x00000000        0x0 build/DM30004-2/production/_ext/134845378/crc32.o
 .data          0x00000000        0x0 build/DM30004-2/production/_ext/134845378/crc32.o
 .bss           0x00000000        0x0 build/DM30004-2/production/_ext/134845378/crc32.o
 .reginfo       0x00000000       0x18 build/DM30004-2/production/_ext/134845378/crc32.o
 .text.gf2_matrix_times
                0x00000000       0x38 build/DM30004-2/production/_ext/134845378/crc32.o
 .text.gf2_matrix_square
                0x00000000       0x64 build/DM30004-2/production/_ext/134845378/crc32.o
 .text.crc32_combine_
                0x00000000       0xec build/DM30004-2/production/_ext/134845378/crc32.o
 .text.get_crc_table
                0x00000000        0xc build/DM30004-2/production/_ext/134845378/crc32.o
 .text.crc32    0x00000000      0x480 build/DM30004-2/production/_ext/134845378/crc32.o
 .text.crc32_combine
                0x00000000       0x1c build/DM30004-2/production/_ext/134845378/crc32.o
 .text.crc32_combine64
                0x00000000       0x1c build/DM30004-2/production/_ext/134845378/crc32.o
 .rodata        0x00000000     0x2000 build/DM30004-2/production/_ext/134845378/crc32.o
 .text          0x00000000        0x0 build/DM30004-2/production/_ext/134845378/deflate.o
 .data          0x00000000        0x0 build/DM30004-2/production/_ext/134845378/deflate.o
 .bss           0x00000000        0x0 build/DM30004-2/production/_ext/134845378/deflate.o
 .reginfo       0x00000000       0x18 build/DM30004-2/production/_ext/134845378/deflate.o
 .text.putShortMSB
                0x00000000       0x38 build/DM30004-2/production/_ext/134845378/deflate.o
 .text.longest_match
                0x00000000      0x208 build/DM30004-2/production/_ext/134845378/deflate.o
 .text.fill_window
                0x00000000      0x384 build/DM30004-2/production/_ext/134845378/deflate.o
 .text.flush_pending
                0x00000000       0xac build/DM30004-2/production/_ext/134845378/deflate.o
 .text.deflate_slow
                0x00000000      0x5ac build/DM30004-2/production/_ext/134845378/deflate.o
 .text.deflate_fast
                0x00000000      0x474 build/DM30004-2/production/_ext/134845378/deflate.o
 .text.deflate_stored
                0x00000000      0x214 build/DM30004-2/production/_ext/134845378/deflate.o
 .text.deflateSetDictionary
                0x00000000      0x26c build/DM30004-2/production/_ext/134845378/deflate.o
 .text.deflateResetKeep
                0x00000000       0xf0 build/DM30004-2/production/_ext/134845378/deflate.o
 .text.deflateReset
                0x00000000       0xe0 build/DM30004-2/production/_ext/134845378/deflate.o
 .text.deflateSetHeader
                0x00000000       0x44 build/DM30004-2/production/_ext/134845378/deflate.o
 .text.deflatePending
                0x00000000       0x58 build/DM30004-2/production/_ext/134845378/deflate.o
 .text.deflatePrime
                0x00000000       0xdc build/DM30004-2/production/_ext/134845378/deflate.o
 .text.deflateTune
                0x00000000       0x40 build/DM30004-2/production/_ext/134845378/deflate.o
 .text.deflateBound
                0x00000000      0x108 build/DM30004-2/production/_ext/134845378/deflate.o
 .text.deflate  0x00000000     0x1170 build/DM30004-2/production/_ext/134845378/deflate.o
 .text.deflateParams
                0x00000000      0x140 build/DM30004-2/production/_ext/134845378/deflate.o
 .text.deflateEnd
                0x00000000      0x10c build/DM30004-2/production/_ext/134845378/deflate.o
 .text.deflateInit2_
                0x00000000      0x2d0 build/DM30004-2/production/_ext/134845378/deflate.o
 .text.deflateInit_
                0x00000000       0x34 build/DM30004-2/production/_ext/134845378/deflate.o
 .text.deflateCopy
                0x00000000      0x2a4 build/DM30004-2/production/_ext/134845378/deflate.o
 .rodata        0x00000000       0xbc build/DM30004-2/production/_ext/134845378/deflate.o
 .text          0x00000000        0x0 build/DM30004-2/production/_ext/134845378/infback.o
 .data          0x00000000        0x0 build/DM30004-2/production/_ext/134845378/infback.o
 .bss           0x00000000        0x0 build/DM30004-2/production/_ext/134845378/infback.o
 .reginfo       0x00000000       0x18 build/DM30004-2/production/_ext/134845378/infback.o
 .text.inflateBackInit_
                0x00000000      0x120 build/DM30004-2/production/_ext/134845378/infback.o
 .rodata        0x00000000      0x9e8 build/DM30004-2/production/_ext/134845378/infback.o
 .text.inflateBack
                0x00000000     0x1250 build/DM30004-2/production/_ext/134845378/infback.o
 .text.inflateBackEnd
                0x00000000       0x54 build/DM30004-2/production/_ext/134845378/infback.o
 .text          0x00000000        0x0 build/DM30004-2/production/_ext/134845378/inffast.o
 .data          0x00000000        0x0 build/DM30004-2/production/_ext/134845378/inffast.o
 .bss           0x00000000        0x0 build/DM30004-2/production/_ext/134845378/inffast.o
 .reginfo       0x00000000       0x18 build/DM30004-2/production/_ext/134845378/inffast.o
 .rodata        0x00000000       0x54 build/DM30004-2/production/_ext/134845378/inffast.o
 .text.inflate_fast
                0x00000000      0x5d4 build/DM30004-2/production/_ext/134845378/inffast.o
 .text          0x00000000        0x0 build/DM30004-2/production/_ext/134845378/inflate.o
 .data          0x00000000        0x0 build/DM30004-2/production/_ext/134845378/inflate.o
 .bss           0x00000000        0x0 build/DM30004-2/production/_ext/134845378/inflate.o
 .reginfo       0x00000000       0x18 build/DM30004-2/production/_ext/134845378/inflate.o
 .text.syncsearch
                0x00000000       0x98 build/DM30004-2/production/_ext/134845378/inflate.o
 .text.updatewindow
                0x00000000      0x158 build/DM30004-2/production/_ext/134845378/inflate.o
 .text.inflateResetKeep
                0x00000000       0x90 build/DM30004-2/production/_ext/134845378/inflate.o
 .text.inflateReset
                0x00000000       0x4c build/DM30004-2/production/_ext/134845378/inflate.o
 .text.inflateReset2
                0x00000000       0xcc build/DM30004-2/production/_ext/134845378/inflate.o
 .text.inflateInit2_
                0x00000000      0x10c build/DM30004-2/production/_ext/134845378/inflate.o
 .text.inflateInit_
                0x00000000       0x28 build/DM30004-2/production/_ext/134845378/inflate.o
 .text.inflatePrime
                0x00000000       0x90 build/DM30004-2/production/_ext/134845378/inflate.o
 .rodata        0x00000000      0xa90 build/DM30004-2/production/_ext/134845378/inflate.o
 .text.inflate  0x00000000     0x1b94 build/DM30004-2/production/_ext/134845378/inflate.o
 .text.inflateEnd
                0x00000000       0x70 build/DM30004-2/production/_ext/134845378/inflate.o
 .text.inflateSetDictionary
                0x00000000      0x11c build/DM30004-2/production/_ext/134845378/inflate.o
 .text.inflateGetHeader
                0x00000000       0x4c build/DM30004-2/production/_ext/134845378/inflate.o
 .text.inflateSync
                0x00000000      0x154 build/DM30004-2/production/_ext/134845378/inflate.o
 .text.inflateSyncPoint
                0x00000000       0x40 build/DM30004-2/production/_ext/134845378/inflate.o
 .text.inflateCopy
                0x00000000      0x278 build/DM30004-2/production/_ext/134845378/inflate.o
 .text.inflateUndermine
                0x00000000       0x30 build/DM30004-2/production/_ext/134845378/inflate.o
 .text.inflateMark
                0x00000000       0x60 build/DM30004-2/production/_ext/134845378/inflate.o
 .text          0x00000000        0x0 build/DM30004-2/production/_ext/134845378/inftrees.o
 .data          0x00000000        0x0 build/DM30004-2/production/_ext/134845378/inftrees.o
 .bss           0x00000000        0x0 build/DM30004-2/production/_ext/134845378/inftrees.o
 .reginfo       0x00000000       0x18 build/DM30004-2/production/_ext/134845378/inftrees.o
 .text.inflate_table
                0x00000000      0x5a4 build/DM30004-2/production/_ext/134845378/inftrees.o
 .rodata        0x00000000      0x130 build/DM30004-2/production/_ext/134845378/inftrees.o
 .text          0x00000000        0x0 build/DM30004-2/production/_ext/134845378/trees.o
 .data          0x00000000       0x3c build/DM30004-2/production/_ext/134845378/trees.o
 .bss           0x00000000        0x0 build/DM30004-2/production/_ext/134845378/trees.o
 .reginfo       0x00000000       0x18 build/DM30004-2/production/_ext/134845378/trees.o
 .text.init_block
                0x00000000       0x64 build/DM30004-2/production/_ext/134845378/trees.o
 .text.pqdownheap
                0x00000000      0x12c build/DM30004-2/production/_ext/134845378/trees.o
 .text.scan_tree
                0x00000000      0x130 build/DM30004-2/production/_ext/134845378/trees.o
 .text.send_tree
                0x00000000      0x610 build/DM30004-2/production/_ext/134845378/trees.o
 .text.compress_block
                0x00000000      0x4f0 build/DM30004-2/production/_ext/134845378/trees.o
 .text.build_tree
                0x00000000      0x55c build/DM30004-2/production/_ext/134845378/trees.o
 .text.bi_flush
                0x00000000       0x9c build/DM30004-2/production/_ext/134845378/trees.o
 .text.bi_windup
                0x00000000       0x80 build/DM30004-2/production/_ext/134845378/trees.o
 .text._tr_init
                0x00000000       0x5c build/DM30004-2/production/_ext/134845378/trees.o
 .text._tr_stored_block
                0x00000000      0x17c build/DM30004-2/production/_ext/134845378/trees.o
 .text._tr_flush_bits
                0x00000000       0x1c build/DM30004-2/production/_ext/134845378/trees.o
 .text._tr_align
                0x00000000      0x114 build/DM30004-2/production/_ext/134845378/trees.o
 .text._tr_flush_block
                0x00000000      0x684 build/DM30004-2/production/_ext/134845378/trees.o
 .text._tr_tally
                0x00000000       0xdc build/DM30004-2/production/_ext/134845378/trees.o
 .rodata        0x00000000      0xa30 build/DM30004-2/production/_ext/134845378/trees.o
 .text          0x00000000        0x0 build/DM30004-2/production/_ext/134845378/uncompr.o
 .data          0x00000000        0x0 build/DM30004-2/production/_ext/134845378/uncompr.o
 .bss           0x00000000        0x0 build/DM30004-2/production/_ext/134845378/uncompr.o
 .reginfo       0x00000000       0x18 build/DM30004-2/production/_ext/134845378/uncompr.o
 .rodata        0x00000000        0x8 build/DM30004-2/production/_ext/134845378/uncompr.o
 .text.uncompress
                0x00000000       0xc4 build/DM30004-2/production/_ext/134845378/uncompr.o
 .text          0x00000000        0x0 build/DM30004-2/production/_ext/134845378/zutil.o
 .data          0x00000000        0x0 build/DM30004-2/production/_ext/134845378/zutil.o
 .bss           0x00000000        0x0 build/DM30004-2/production/_ext/134845378/zutil.o
 .reginfo       0x00000000       0x18 build/DM30004-2/production/_ext/134845378/zutil.o
 .rodata        0x00000000       0xb4 build/DM30004-2/production/_ext/134845378/zutil.o
 .text.zlibVersion
                0x00000000        0xc build/DM30004-2/production/_ext/134845378/zutil.o
 .text.zlibCompileFlags
                0x00000000        0x8 build/DM30004-2/production/_ext/134845378/zutil.o
 .text.zError   0x00000000       0x20 build/DM30004-2/production/_ext/134845378/zutil.o
 .text.zcalloc  0x00000000       0x1c build/DM30004-2/production/_ext/134845378/zutil.o
 .text.zcfree   0x00000000       0x1c build/DM30004-2/production/_ext/134845378/zutil.o
 .text          0x00000000        0x0 build/DM30004-2/production/_ext/458569783/ecc.o
 .data          0x00000000        0x0 build/DM30004-2/production/_ext/458569783/ecc.o
 .bss           0x00000000        0x0 build/DM30004-2/production/_ext/458569783/ecc.o
 .reginfo       0x00000000       0x18 build/DM30004-2/production/_ext/458569783/ecc.o
 .text          0x00000000        0x0 build/DM30004-2/production/_ext/458569783/arc4.o
 .data          0x00000000        0x0 build/DM30004-2/production/_ext/458569783/arc4.o
 .bss           0x00000000        0x0 build/DM30004-2/production/_ext/458569783/arc4.o
 .reginfo       0x00000000       0x18 build/DM30004-2/production/_ext/458569783/arc4.o
 .text.wc_Arc4SetKey
                0x00000000       0x7c build/DM30004-2/production/_ext/458569783/arc4.o
 .text.wc_Arc4Process
                0x00000000       0x70 build/DM30004-2/production/_ext/458569783/arc4.o
 .text          0x00000000        0x0 build/DM30004-2/production/_ext/458569783/pwdbased.o
 .data          0x00000000        0x0 build/DM30004-2/production/_ext/458569783/pwdbased.o
 .bss           0x00000000        0x0 build/DM30004-2/production/_ext/458569783/pwdbased.o
 .reginfo       0x00000000       0x18 build/DM30004-2/production/_ext/458569783/pwdbased.o
 .text.wc_PBKDF1
                0x00000000      0x198 build/DM30004-2/production/_ext/458569783/pwdbased.o
 .text.GetDigestSize
                0x00000000       0x34 build/DM30004-2/production/_ext/458569783/pwdbased.o
 .text.wc_PBKDF2
                0x00000000      0x240 build/DM30004-2/production/_ext/458569783/pwdbased.o
 .text.GetPKCS12HashSizes
                0x00000000       0x88 build/DM30004-2/production/_ext/458569783/pwdbased.o
 .text.DoPKCS12Hash
                0x00000000      0x1d0 build/DM30004-2/production/_ext/458569783/pwdbased.o
 .text.wc_PKCS12_PBKDF
                0x00000000      0x464 build/DM30004-2/production/_ext/458569783/pwdbased.o
 .text          0x00000000        0x0 build/DM30004-2/production/_ext/458569783/tfm.o
 .data          0x00000000        0x0 build/DM30004-2/production/_ext/458569783/tfm.o
 .bss           0x00000000        0x0 build/DM30004-2/production/_ext/458569783/tfm.o
 .reginfo       0x00000000       0x18 build/DM30004-2/production/_ext/458569783/tfm.o
 .text          0x00000000        0x0 build/DM30004-2/production/_ext/458569783/asn.o
 .data          0x00000000        0x0 build/DM30004-2/production/_ext/458569783/asn.o
 .bss           0x00000000        0x0 build/DM30004-2/production/_ext/458569783/asn.o
 .reginfo       0x00000000       0x18 build/DM30004-2/production/_ext/458569783/asn.o
 .text.OidFromId
                0x00000000      0x660 build/DM30004-2/production/_ext/458569783/asn.o
 .text.DateGreaterThan
                0x00000000       0xfc build/DM30004-2/production/_ext/458569783/asn.o
 .text.MatchBaseName
                0x00000000      0x1e8 build/DM30004-2/production/_ext/458569783/asn.o
 .text.GetLength
                0x00000000       0x9c build/DM30004-2/production/_ext/458569783/asn.o
 .text.GetSequence
                0x00000000       0x80 build/DM30004-2/production/_ext/458569783/asn.o
 .text.GetSet   0x00000000       0x80 build/DM30004-2/production/_ext/458569783/asn.o
 .text.GetName  0x00000000      0x664 build/DM30004-2/production/_ext/458569783/asn.o
 .text.GetMyVersion
                0x00000000       0x58 build/DM30004-2/production/_ext/458569783/asn.o
 .text.GetInt   0x00000000       0xe8 build/DM30004-2/production/_ext/458569783/asn.o
 .text.GetObjectId
                0x00000000      0x154 build/DM30004-2/production/_ext/458569783/asn.o
 .text.GetAlgoId
                0x00000000       0xd8 build/DM30004-2/production/_ext/458569783/asn.o
 .text.wc_RsaPrivateKeyDecode
                0x00000000      0x180 build/DM30004-2/production/_ext/458569783/asn.o
 .text.ToTraditional
                0x00000000      0x138 build/DM30004-2/production/_ext/458569783/asn.o
 .text.ToTraditionalEnc
                0x00000000      0x6b8 build/DM30004-2/production/_ext/458569783/asn.o
 .text.wc_RsaPublicKeyDecode
                0x00000000      0x1d4 build/DM30004-2/production/_ext/458569783/asn.o
 .text.wc_RsaPublicKeyDecodeRaw
                0x00000000       0xfc build/DM30004-2/production/_ext/458569783/asn.o
 .text.wc_DhKeyDecode
                0x00000000       0x9c build/DM30004-2/production/_ext/458569783/asn.o
 .text.wc_DhParamsLoad
                0x00000000      0x18c build/DM30004-2/production/_ext/458569783/asn.o
 .text.wc_DsaPublicKeyDecode
                0x00000000       0xe0 build/DM30004-2/production/_ext/458569783/asn.o
 .text.wc_DsaPrivateKeyDecode
                0x00000000      0x120 build/DM30004-2/production/_ext/458569783/asn.o
 .text.InitDecodedCert
                0x00000000       0xf4 build/DM30004-2/production/_ext/458569783/asn.o
 .text.FreeAltNames
                0x00000000       0x58 build/DM30004-2/production/_ext/458569783/asn.o
 .text.FreeNameSubtrees
                0x00000000       0x58 build/DM30004-2/production/_ext/458569783/asn.o
 .text.FreeDecodedCert
                0x00000000       0xc0 build/DM30004-2/production/_ext/458569783/asn.o
 .text.ValidateDate
                0x00000000      0x2e4 build/DM30004-2/production/_ext/458569783/asn.o
 .text.GetDate  0x00000000      0x148 build/DM30004-2/production/_ext/458569783/asn.o
 .text.DecodeToKey
                0x00000000      0x35c build/DM30004-2/production/_ext/458569783/asn.o
 .text.SetLength
                0x00000000       0x9c build/DM30004-2/production/_ext/458569783/asn.o
 .text.SetSequence
                0x00000000       0x28 build/DM30004-2/production/_ext/458569783/asn.o
 .text.wc_DsaKeyToDer
                0x00000000      0x2dc build/DM30004-2/production/_ext/458569783/asn.o
 .text.SetOctetString
                0x00000000       0x28 build/DM30004-2/production/_ext/458569783/asn.o
 .text.SetSet   0x00000000       0x28 build/DM30004-2/production/_ext/458569783/asn.o
 .text.SetImplicit
                0x00000000       0x44 build/DM30004-2/production/_ext/458569783/asn.o
 .text.SetExplicit
                0x00000000       0x30 build/DM30004-2/production/_ext/458569783/asn.o
 .text.SetAlgoID
                0x00000000      0x120 build/DM30004-2/production/_ext/458569783/asn.o
 .text.wc_EncodeSignature
                0x00000000       0xc4 build/DM30004-2/production/_ext/458569783/asn.o
 .text.ConfirmSignature
                0x00000000      0x1a4 build/DM30004-2/production/_ext/458569783/asn.o
 .text.wc_GetCTC_HashOID
                0x00000000       0x34 build/DM30004-2/production/_ext/458569783/asn.o
 .text.ParseCertRelative
                0x00000000     0x1328 build/DM30004-2/production/_ext/458569783/asn.o
 .text.ParseCert
                0x00000000       0xf0 build/DM30004-2/production/_ext/458569783/asn.o
 .text.MakeSigner
                0x00000000       0x44 build/DM30004-2/production/_ext/458569783/asn.o
 .text.FreeSigner
                0x00000000       0x88 build/DM30004-2/production/_ext/458569783/asn.o
 .text.FreeSignerTable
                0x00000000       0x88 build/DM30004-2/production/_ext/458569783/asn.o
 .text.SetMyVersion
                0x00000000       0x4c build/DM30004-2/production/_ext/458569783/asn.o
 .text.SetSerialNumber
                0x00000000       0x98 build/DM30004-2/production/_ext/458569783/asn.o
 .text.GetNameHash
                0x00000000       0xd0 build/DM30004-2/production/_ext/458569783/asn.o
 .text          0x00000000        0x0 build/DM30004-2/production/_ext/458569783/des3.o
 .data          0x00000000        0x0 build/DM30004-2/production/_ext/458569783/des3.o
 .bss           0x00000000        0x0 build/DM30004-2/production/_ext/458569783/des3.o
 .reginfo       0x00000000       0x18 build/DM30004-2/production/_ext/458569783/des3.o
 .text.DesRawProcessBlock
                0x00000000      0x1cc build/DM30004-2/production/_ext/458569783/des3.o
 .text.DesSetKey
                0x00000000      0x218 build/DM30004-2/production/_ext/458569783/des3.o
 .text.Des3ProcessBlock
                0x00000000      0x214 build/DM30004-2/production/_ext/458569783/des3.o
 .text.DesProcessBlock
                0x00000000      0x1e8 build/DM30004-2/production/_ext/458569783/des3.o
 .text.wc_Des_CbcEncrypt
                0x00000000      0x10c build/DM30004-2/production/_ext/458569783/des3.o
 .text.wc_Des_CbcDecrypt
                0x00000000      0x130 build/DM30004-2/production/_ext/458569783/des3.o
 .text.wc_Des3_CbcEncrypt
                0x00000000      0x10c build/DM30004-2/production/_ext/458569783/des3.o
 .text.wc_Des3_CbcDecrypt
                0x00000000      0x138 build/DM30004-2/production/_ext/458569783/des3.o
 .text.wc_Des_SetIV
                0x00000000       0x58 build/DM30004-2/production/_ext/458569783/des3.o
 .text.wc_Des_SetKey
                0x00000000       0x50 build/DM30004-2/production/_ext/458569783/des3.o
 .text.wc_Des3_SetIV
                0x00000000       0x5c build/DM30004-2/production/_ext/458569783/des3.o
 .text.wc_Des3_SetKey
                0x00000000       0xb4 build/DM30004-2/production/_ext/458569783/des3.o
 .rodata        0x00000000      0x898 build/DM30004-2/production/_ext/458569783/des3.o
 .text          0x00000000        0x0 build/DM30004-2/production/_ext/458569783/rsa.o
 .data          0x00000000        0x0 build/DM30004-2/production/_ext/458569783/rsa.o
 .bss           0x00000000        0x0 build/DM30004-2/production/_ext/458569783/rsa.o
 .reginfo       0x00000000       0x18 build/DM30004-2/production/_ext/458569783/rsa.o
 .text.RsaUnPad
                0x00000000      0x114 build/DM30004-2/production/_ext/458569783/rsa.o
 .text.wc_RsaPad
                0x00000000      0x104 build/DM30004-2/production/_ext/458569783/rsa.o
 .text.wc_RsaFunction
                0x00000000      0x234 build/DM30004-2/production/_ext/458569783/rsa.o
 .text.wc_MGF1  0x00000000      0x1ec build/DM30004-2/production/_ext/458569783/rsa.o
 .text.wc_MGF   0x00000000       0x58 build/DM30004-2/production/_ext/458569783/rsa.o
 .text.wc_InitRsaKey
                0x00000000       0x34 build/DM30004-2/production/_ext/458569783/rsa.o
 .text.wc_FreeRsaKey
                0x00000000       0x78 build/DM30004-2/production/_ext/458569783/rsa.o
 .text.wc_RsaPublicEncrypt
                0x00000000       0xd4 build/DM30004-2/production/_ext/458569783/rsa.o
 .text.wc_RsaPublicEncrypt_ex
                0x00000000      0x394 build/DM30004-2/production/_ext/458569783/rsa.o
 .text.wc_RsaPrivateDecryptInline
                0x00000000       0x60 build/DM30004-2/production/_ext/458569783/rsa.o
 .text.wc_RsaPrivateDecryptInline_ex
                0x00000000      0x318 build/DM30004-2/production/_ext/458569783/rsa.o
 .text.wc_RsaPrivateDecrypt
                0x00000000       0xf0 build/DM30004-2/production/_ext/458569783/rsa.o
 .text.wc_RsaPrivateDecrypt_ex
                0x00000000      0x174 build/DM30004-2/production/_ext/458569783/rsa.o
 .text.wc_RsaSSL_VerifyInline
                0x00000000       0x60 build/DM30004-2/production/_ext/458569783/rsa.o
 .text.wc_RsaSSL_Verify
                0x00000000       0xf0 build/DM30004-2/production/_ext/458569783/rsa.o
 .text.wc_RsaSSL_Sign
                0x00000000       0xd8 build/DM30004-2/production/_ext/458569783/rsa.o
 .text.wc_RsaEncryptSize
                0x00000000       0x1c build/DM30004-2/production/_ext/458569783/rsa.o
 .text.wc_RsaFlattenPublicKey
                0x00000000      0x118 build/DM30004-2/production/_ext/458569783/rsa.o
 .text          0x00000000        0x0 build/DM30004-2/production/_ext/458569783/aes.o
 .data          0x00000000        0x0 build/DM30004-2/production/_ext/458569783/aes.o
 .bss           0x00000000        0x0 build/DM30004-2/production/_ext/458569783/aes.o
 .reginfo       0x00000000       0x18 build/DM30004-2/production/_ext/458569783/aes.o
 .text.wc_AesSetKeyDirect
                0x00000000       0x20 build/DM30004-2/production/_ext/458569783/aes.o
 .text.wc_AesEncryptDirect
                0x00000000       0x24 build/DM30004-2/production/_ext/458569783/aes.o
 .text.wc_AesDecryptDirect
                0x00000000       0x24 build/DM30004-2/production/_ext/458569783/aes.o
 .text          0x00000000        0x0 build/DM30004-2/production/_ext/458569783/md5.o
 .data          0x00000000        0x0 build/DM30004-2/production/_ext/458569783/md5.o
 .bss           0x00000000        0x0 build/DM30004-2/production/_ext/458569783/md5.o
 .reginfo       0x00000000       0x18 build/DM30004-2/production/_ext/458569783/md5.o
 .text.wc_Md5Hash
                0x00000000       0x60 build/DM30004-2/production/_ext/458569783/md5.o
 .text          0x00000000        0x0 build/DM30004-2/production/_ext/458569783/sha.o
 .data          0x00000000        0x0 build/DM30004-2/production/_ext/458569783/sha.o
 .bss           0x00000000        0x0 build/DM30004-2/production/_ext/458569783/sha.o
 .reginfo       0x00000000       0x18 build/DM30004-2/production/_ext/458569783/sha.o
 .text          0x00000000        0x0 build/DM30004-2/production/_ext/458569783/sha256.o
 .data          0x00000000        0x0 build/DM30004-2/production/_ext/458569783/sha256.o
 .bss           0x00000000        0x0 build/DM30004-2/production/_ext/458569783/sha256.o
 .reginfo       0x00000000       0x18 build/DM30004-2/production/_ext/458569783/sha256.o
 .text          0x00000000        0x0 build/DM30004-2/production/_ext/458569783/sha512.o
 .data          0x00000000        0x0 build/DM30004-2/production/_ext/458569783/sha512.o
 .bss           0x00000000        0x0 build/DM30004-2/production/_ext/458569783/sha512.o
 .reginfo       0x00000000       0x18 build/DM30004-2/production/_ext/458569783/sha512.o
 .text          0x00000000        0x0 build/DM30004-2/production/_ext/458569783/hmac.o
 .data          0x00000000        0x0 build/DM30004-2/production/_ext/458569783/hmac.o
 .bss           0x00000000        0x0 build/DM30004-2/production/_ext/458569783/hmac.o
 .reginfo       0x00000000       0x18 build/DM30004-2/production/_ext/458569783/hmac.o
 .text.wolfSSL_GetHmacMaxSize
                0x00000000        0x8 build/DM30004-2/production/_ext/458569783/hmac.o
 .text          0x00000000        0x0 build/DM30004-2/production/_ext/458569783/hash.o
 .data          0x00000000        0x0 build/DM30004-2/production/_ext/458569783/hash.o
 .bss           0x00000000        0x0 build/DM30004-2/production/_ext/458569783/hash.o
 .reginfo       0x00000000       0x18 build/DM30004-2/production/_ext/458569783/hash.o
 .text.wc_HashGetOID
                0x00000000       0x6c build/DM30004-2/production/_ext/458569783/hash.o
 .text.wc_HashGetDigestSize
                0x00000000       0x64 build/DM30004-2/production/_ext/458569783/hash.o
 .text.wc_Md5GetHash
                0x00000000       0xc4 build/DM30004-2/production/_ext/458569783/hash.o
 .text.wc_Md5RestorePos
                0x00000000       0x50 build/DM30004-2/production/_ext/458569783/hash.o
 .text.wc_ShaGetHash
                0x00000000       0x94 build/DM30004-2/production/_ext/458569783/hash.o
 .text.wc_ShaRestorePos
                0x00000000       0x3c build/DM30004-2/production/_ext/458569783/hash.o
 .text.wc_ShaHash
                0x00000000       0x70 build/DM30004-2/production/_ext/458569783/hash.o
 .text.wc_Sha256GetHash
                0x00000000       0xc4 build/DM30004-2/production/_ext/458569783/hash.o
 .text.wc_Sha256RestorePos
                0x00000000       0x50 build/DM30004-2/production/_ext/458569783/hash.o
 .text.wc_Sha256Hash
                0x00000000       0x6c build/DM30004-2/production/_ext/458569783/hash.o
 .text.wc_Hash  0x00000000       0xe8 build/DM30004-2/production/_ext/458569783/hash.o
 .text          0x00000000        0x0 build/DM30004-2/production/_ext/458569783/compress.o
 .data          0x00000000        0x0 build/DM30004-2/production/_ext/458569783/compress.o
 .bss           0x00000000        0x0 build/DM30004-2/production/_ext/458569783/compress.o
 .reginfo       0x00000000       0x18 build/DM30004-2/production/_ext/458569783/compress.o
 .text          0x00000000        0x0 build/DM30004-2/production/_ext/458569783/random.o
 .data          0x00000000        0x0 build/DM30004-2/production/_ext/458569783/random.o
 .bss           0x00000000        0x0 build/DM30004-2/production/_ext/458569783/random.o
 .reginfo       0x00000000       0x18 build/DM30004-2/production/_ext/458569783/random.o
 .text.wc_FreeRng
                0x00000000       0x68 build/DM30004-2/production/_ext/458569783/random.o
 .text.wc_RNG_GenerateByte
                0x00000000       0x1c build/DM30004-2/production/_ext/458569783/random.o
 .text          0x00000000        0x0 build/DM30004-2/production/_ext/458569783/crypto.o
 .data          0x00000000        0x0 build/DM30004-2/production/_ext/458569783/crypto.o
 .bss           0x00000000        0x0 build/DM30004-2/production/_ext/458569783/crypto.o
 .reginfo       0x00000000       0x18 build/DM30004-2/production/_ext/458569783/crypto.o
 .text.CRYPT_MD5_Initialize
                0x00000000       0x34 build/DM30004-2/production/_ext/458569783/crypto.o
 .text.CRYPT_MD5_DataSizeSet
                0x00000000        0xc build/DM30004-2/production/_ext/458569783/crypto.o
 .text.CRYPT_MD5_DataAdd
                0x00000000       0x44 build/DM30004-2/production/_ext/458569783/crypto.o
 .text.CRYPT_MD5_Finalize
                0x00000000       0x44 build/DM30004-2/production/_ext/458569783/crypto.o
 .text.CRYPT_SHA_Initialize
                0x00000000       0x30 build/DM30004-2/production/_ext/458569783/crypto.o
 .text.CRYPT_SHA_DataSizeSet
                0x00000000        0xc build/DM30004-2/production/_ext/458569783/crypto.o
 .text.CRYPT_SHA_DataAdd
                0x00000000       0x40 build/DM30004-2/production/_ext/458569783/crypto.o
 .text.CRYPT_SHA_Finalize
                0x00000000       0x40 build/DM30004-2/production/_ext/458569783/crypto.o
 .text.CRYPT_SHA256_Initialize
                0x00000000       0x30 build/DM30004-2/production/_ext/458569783/crypto.o
 .text.CRYPT_SHA256_DataSizeSet
                0x00000000        0xc build/DM30004-2/production/_ext/458569783/crypto.o
 .text.CRYPT_SHA256_DataAdd
                0x00000000       0x40 build/DM30004-2/production/_ext/458569783/crypto.o
 .text.CRYPT_SHA256_Finalize
                0x00000000       0x40 build/DM30004-2/production/_ext/458569783/crypto.o
 .text.CRYPT_RNG_Get
                0x00000000       0x40 build/DM30004-2/production/_ext/458569783/crypto.o
 .text.CRYPT_TDES_KeySet
                0x00000000       0x40 build/DM30004-2/production/_ext/458569783/crypto.o
 .text.CRYPT_TDES_IvSet
                0x00000000       0x40 build/DM30004-2/production/_ext/458569783/crypto.o
 .text.CRYPT_TDES_CBC_Encrypt
                0x00000000       0x50 build/DM30004-2/production/_ext/458569783/crypto.o
 .text.CRYPT_TDES_CBC_Decrypt
                0x00000000       0x50 build/DM30004-2/production/_ext/458569783/crypto.o
 .text.CRYPT_AES_IvSet
                0x00000000       0x40 build/DM30004-2/production/_ext/458569783/crypto.o
 .text.CRYPT_AES_DIRECT_Encrypt
                0x00000000       0x54 build/DM30004-2/production/_ext/458569783/crypto.o
 .text.CRYPT_AES_DIRECT_Decrypt
                0x00000000       0x54 build/DM30004-2/production/_ext/458569783/crypto.o
 .text.CRYPT_RSA_Initialize
                0x00000000       0x54 build/DM30004-2/production/_ext/458569783/crypto.o
 .text.CRYPT_RSA_Free
                0x00000000       0x50 build/DM30004-2/production/_ext/458569783/crypto.o
 .text.CRYPT_RSA_PublicKeyDecode
                0x00000000       0x4c build/DM30004-2/production/_ext/458569783/crypto.o
 .text.CRYPT_RSA_PrivateKeyDecode
                0x00000000       0x4c build/DM30004-2/production/_ext/458569783/crypto.o
 .text.CRYPT_RSA_PublicEncrypt
                0x00000000       0x70 build/DM30004-2/production/_ext/458569783/crypto.o
 .text.CRYPT_RSA_PrivateDecrypt
                0x00000000       0x68 build/DM30004-2/production/_ext/458569783/crypto.o
 .text.CRYPT_RSA_EncryptSizeGet
                0x00000000       0x30 build/DM30004-2/production/_ext/458569783/crypto.o
 .text.CRYPT_ERROR_StringGet
                0x00000000       0x34 build/DM30004-2/production/_ext/458569783/crypto.o
 .text          0x00000000        0x0 build/DM30004-2/production/_ext/458569783/coding.o
 .data          0x00000000        0x0 build/DM30004-2/production/_ext/458569783/coding.o
 .bss           0x00000000        0x0 build/DM30004-2/production/_ext/458569783/coding.o
 .reginfo       0x00000000       0x18 build/DM30004-2/production/_ext/458569783/coding.o
 .text.CEscape  0x00000000      0x17c build/DM30004-2/production/_ext/458569783/coding.o
 .text.DoBase64_Encode
                0x00000000      0x428 build/DM30004-2/production/_ext/458569783/coding.o
 .text.Base64_Decode
                0x00000000      0x2bc build/DM30004-2/production/_ext/458569783/coding.o
 .text.Base64_Encode
                0x00000000       0x1c build/DM30004-2/production/_ext/458569783/coding.o
 .text.Base64_EncodeEsc
                0x00000000       0x20 build/DM30004-2/production/_ext/458569783/coding.o
 .text.Base64_Encode_NoNl
                0x00000000       0x20 build/DM30004-2/production/_ext/458569783/coding.o
 .rodata        0x00000000       0x90 build/DM30004-2/production/_ext/458569783/coding.o
 .text          0x00000000        0x0 build/DM30004-2/production/_ext/458569783/error.o
 .data          0x00000000        0x0 build/DM30004-2/production/_ext/458569783/error.o
 .bss           0x00000000        0x0 build/DM30004-2/production/_ext/458569783/error.o
 .reginfo       0x00000000       0x18 build/DM30004-2/production/_ext/458569783/error.o
 .rodata        0x00000000      0xe88 build/DM30004-2/production/_ext/458569783/error.o
 .text.wc_GetErrorString
                0x00000000      0x76c build/DM30004-2/production/_ext/458569783/error.o
 .text.wc_ErrorString
                0x00000000       0x34 build/DM30004-2/production/_ext/458569783/error.o
 .text          0x00000000        0x0 build/DM30004-2/production/_ext/458569783/integer.o
 .data          0x00000000        0x0 build/DM30004-2/production/_ext/458569783/integer.o
 .bss           0x00000000        0x0 build/DM30004-2/production/_ext/458569783/integer.o
 .reginfo       0x00000000       0x18 build/DM30004-2/production/_ext/458569783/integer.o
 .text.CheckRunTimeSettings
                0x00000000        0x8 build/DM30004-2/production/_ext/458569783/integer.o
 .text.mp_init  0x00000000       0x5c build/DM30004-2/production/_ext/458569783/integer.o
 .text.mp_clear
                0x00000000       0x80 build/DM30004-2/production/_ext/458569783/integer.o
 .text.mp_init_multi
                0x00000000      0x188 build/DM30004-2/production/_ext/458569783/integer.o
 .text.mp_count_bits
                0x00000000       0x5c build/DM30004-2/production/_ext/458569783/integer.o
 .text.mp_unsigned_bin_size
                0x00000000       0x38 build/DM30004-2/production/_ext/458569783/integer.o
 .text.mp_grow  0x00000000       0x94 build/DM30004-2/production/_ext/458569783/integer.o
 .text.mp_copy  0x00000000       0xf8 build/DM30004-2/production/_ext/458569783/integer.o
 .text.mp_init_copy
                0x00000000       0x48 build/DM30004-2/production/_ext/458569783/integer.o
 .text.mp_zero  0x00000000       0x3c build/DM30004-2/production/_ext/458569783/integer.o
 .text.mp_clamp
                0x00000000       0x68 build/DM30004-2/production/_ext/458569783/integer.o
 .text.mp_exch  0x00000000       0x44 build/DM30004-2/production/_ext/458569783/integer.o
 .text.mp_rshb  0x00000000       0x74 build/DM30004-2/production/_ext/458569783/integer.o
 .text.mp_rshd  0x00000000       0xbc build/DM30004-2/production/_ext/458569783/integer.o
 .text.mp_mod_2d
                0x00000000      0x130 build/DM30004-2/production/_ext/458569783/integer.o
 .text.mp_div_2d
                0x00000000      0x16c build/DM30004-2/production/_ext/458569783/integer.o
 .text.mp_leading_bit
                0x00000000       0x70 build/DM30004-2/production/_ext/458569783/integer.o
 .text.mp_to_unsigned_bin
                0x00000000       0xe0 build/DM30004-2/production/_ext/458569783/integer.o
 .text.mp_lshd  0x00000000       0xe8 build/DM30004-2/production/_ext/458569783/integer.o
 .text.mp_mul_2d
                0x00000000      0x174 build/DM30004-2/production/_ext/458569783/integer.o
 .text.mp_read_unsigned_bin
                0x00000000       0xb0 build/DM30004-2/production/_ext/458569783/integer.o
 .text.mp_abs   0x00000000       0x40 build/DM30004-2/production/_ext/458569783/integer.o
 .text.mp_cmp_mag
                0x00000000       0xc8 build/DM30004-2/production/_ext/458569783/integer.o
 .text.mp_cmp   0x00000000       0x5c build/DM30004-2/production/_ext/458569783/integer.o
 .text.mp_cmp_d
                0x00000000       0x48 build/DM30004-2/production/_ext/458569783/integer.o
 .text.mp_set   0x00000000       0x4c build/DM30004-2/production/_ext/458569783/integer.o
 .text.mp_is_bit_set
                0x00000000       0x60 build/DM30004-2/production/_ext/458569783/integer.o
 .text.mp_div_2
                0x00000000       0xfc build/DM30004-2/production/_ext/458569783/integer.o
 .text.s_mp_add
                0x00000000      0x194 build/DM30004-2/production/_ext/458569783/integer.o
 .text.s_mp_sub
                0x00000000      0x154 build/DM30004-2/production/_ext/458569783/integer.o
 .text.mp_add   0x00000000       0xa4 build/DM30004-2/production/_ext/458569783/integer.o
 .text.fast_mp_montgomery_reduce
                0x00000000      0x33c build/DM30004-2/production/_ext/458569783/integer.o
 .text.mp_montgomery_reduce
                0x00000000      0x1a4 build/DM30004-2/production/_ext/458569783/integer.o
 .text.mp_dr_reduce
                0x00000000      0x16c build/DM30004-2/production/_ext/458569783/integer.o
 .text.mp_sub   0x00000000       0xa0 build/DM30004-2/production/_ext/458569783/integer.o
 .text.mp_div   0x00000000      0x25c build/DM30004-2/production/_ext/458569783/integer.o
 .text.mp_mod   0x00000000       0xb4 build/DM30004-2/production/_ext/458569783/integer.o
 .text.fast_mp_invmod
                0x00000000      0x36c build/DM30004-2/production/_ext/458569783/integer.o
 .text.mp_invmod_slow
                0x00000000      0x4c8 build/DM30004-2/production/_ext/458569783/integer.o
 .text.mp_invmod
                0x00000000       0x78 build/DM30004-2/production/_ext/458569783/integer.o
 .text.mp_reduce_is_2k_l
                0x00000000       0x80 build/DM30004-2/production/_ext/458569783/integer.o
 .text.mp_reduce_is_2k
                0x00000000       0xb4 build/DM30004-2/production/_ext/458569783/integer.o
 .text.mp_dr_is_modulus
                0x00000000       0x70 build/DM30004-2/production/_ext/458569783/integer.o
 .text.mp_montgomery_setup
                0x00000000       0x64 build/DM30004-2/production/_ext/458569783/integer.o
 .text.mp_dr_setup
                0x00000000       0x18 build/DM30004-2/production/_ext/458569783/integer.o
 .text.mp_set_bit
                0x00000000       0xd0 build/DM30004-2/production/_ext/458569783/integer.o
 .text.mp_2expt
                0x00000000       0x3c build/DM30004-2/production/_ext/458569783/integer.o
 .text.mp_reduce_2k_setup
                0x00000000       0xb4 build/DM30004-2/production/_ext/458569783/integer.o
 .text.mp_mul_d
                0x00000000      0x124 build/DM30004-2/production/_ext/458569783/integer.o
 .text.mp_reduce_2k
                0x00000000      0x100 build/DM30004-2/production/_ext/458569783/integer.o
 .text.mp_mul_2
                0x00000000      0x100 build/DM30004-2/production/_ext/458569783/integer.o
 .text.mp_init_size
                0x00000000       0x7c build/DM30004-2/production/_ext/458569783/integer.o
 .text.mp_div_3
                0x00000000      0x1bc build/DM30004-2/production/_ext/458569783/integer.o
 .text.fast_s_mp_sqr
                0x00000000      0x264 build/DM30004-2/production/_ext/458569783/integer.o
 .text.fast_s_mp_mul_digs
                0x00000000      0x1e0 build/DM30004-2/production/_ext/458569783/integer.o
 .text.s_mp_sqr
                0x00000000      0x1c0 build/DM30004-2/production/_ext/458569783/integer.o
 .text.mp_sqr   0x00000000       0x5c build/DM30004-2/production/_ext/458569783/integer.o
 .text.s_mp_mul_digs
                0x00000000      0x180 build/DM30004-2/production/_ext/458569783/integer.o
 .text.mp_mul   0x00000000       0x8c build/DM30004-2/production/_ext/458569783/integer.o
 .text.mp_mulmod
                0x00000000       0xa0 build/DM30004-2/production/_ext/458569783/integer.o
 .text.mp_reduce_2k_l
                0x00000000       0xf0 build/DM30004-2/production/_ext/458569783/integer.o
 .text.mp_montgomery_calc_normalization
                0x00000000      0x12c build/DM30004-2/production/_ext/458569783/integer.o
 .text.mp_exptmod_fast
                0x00000000      0x67c build/DM30004-2/production/_ext/458569783/integer.o
 .text.mp_reduce_setup
                0x00000000       0x60 build/DM30004-2/production/_ext/458569783/integer.o
 .text.mp_reduce_2k_setup_l
                0x00000000       0x84 build/DM30004-2/production/_ext/458569783/integer.o
 .text.s_mp_exptmod
                0x00000000      0x538 build/DM30004-2/production/_ext/458569783/integer.o
 .text.mp_exptmod
                0x00000000      0x1d4 build/DM30004-2/production/_ext/458569783/integer.o
 .text.fast_s_mp_mul_high_digs
                0x00000000      0x204 build/DM30004-2/production/_ext/458569783/integer.o
 .text.s_mp_mul_high_digs
                0x00000000      0x188 build/DM30004-2/production/_ext/458569783/integer.o
 .text.mp_reduce
                0x00000000      0x1a0 build/DM30004-2/production/_ext/458569783/integer.o
 .text.mp_set_int
                0x00000000       0x88 build/DM30004-2/production/_ext/458569783/integer.o
 .text.mp_sub_d
                0x00000000      0x1a8 build/DM30004-2/production/_ext/458569783/integer.o
 .text.mp_add_d
                0x00000000      0x1d4 build/DM30004-2/production/_ext/458569783/integer.o
 .text          0x00000000        0x0 build/DM30004-2/production/_ext/458569783/logging.o
 .data          0x00000000        0x0 build/DM30004-2/production/_ext/458569783/logging.o
 .bss           0x00000000        0x0 build/DM30004-2/production/_ext/458569783/logging.o
 .reginfo       0x00000000       0x18 build/DM30004-2/production/_ext/458569783/logging.o
 .text.wolfSSL_SetLoggingCb
                0x00000000        0x8 build/DM30004-2/production/_ext/458569783/logging.o
 .text.wolfSSL_Debugging_ON
                0x00000000        0x8 build/DM30004-2/production/_ext/458569783/logging.o
 .text.wolfSSL_Debugging_OFF
                0x00000000        0x8 build/DM30004-2/production/_ext/458569783/logging.o
 .text          0x00000000        0x0 build/DM30004-2/production/_ext/458569783/memory.o
 .data          0x00000000        0x0 build/DM30004-2/production/_ext/458569783/memory.o
 .bss           0x00000000        0x0 build/DM30004-2/production/_ext/458569783/memory.o
 .reginfo       0x00000000       0x18 build/DM30004-2/production/_ext/458569783/memory.o
 .text.wolfSSL_SetAllocators
                0x00000000       0x38 build/DM30004-2/production/_ext/458569783/memory.o
 .text.wolfSSL_Free
                0x00000000       0x38 build/DM30004-2/production/_ext/458569783/memory.o
 .text.wolfSSL_Realloc
                0x00000000       0x38 build/DM30004-2/production/_ext/458569783/memory.o
 .text          0x00000000        0x0 build/DM30004-2/production/_ext/458569783/misc.o
 .data          0x00000000        0x0 build/DM30004-2/production/_ext/458569783/misc.o
 .bss           0x00000000        0x0 build/DM30004-2/production/_ext/458569783/misc.o
 .reginfo       0x00000000       0x18 build/DM30004-2/production/_ext/458569783/misc.o
 .text          0x00000000        0x0 build/DM30004-2/production/_ext/458569783/port.o
 .data          0x00000000        0x0 build/DM30004-2/production/_ext/458569783/port.o
 .bss           0x00000000        0x0 build/DM30004-2/production/_ext/458569783/port.o
 .reginfo       0x00000000       0x18 build/DM30004-2/production/_ext/458569783/port.o
 .text.wolfCrypt_Init
                0x00000000        0x8 build/DM30004-2/production/_ext/458569783/port.o
 .text.InitMutex
                0x00000000        0x8 build/DM30004-2/production/_ext/458569783/port.o
 .text.FreeMutex
                0x00000000        0x8 build/DM30004-2/production/_ext/458569783/port.o
 .text.LockMutex
                0x00000000        0x8 build/DM30004-2/production/_ext/458569783/port.o
 .text.UnLockMutex
                0x00000000        0x8 build/DM30004-2/production/_ext/458569783/port.o
 .text          0x00000000        0x0 build/DM30004-2/production/_ext/854379441/drv_ethmac.o
 .bss           0x00000000        0x0 build/DM30004-2/production/_ext/854379441/drv_ethmac.o
 .reginfo       0x00000000       0x18 build/DM30004-2/production/_ext/854379441/drv_ethmac.o
 .text          0x00000000        0x0 build/DM30004-2/production/_ext/854379441/drv_ethmac_lib.o
 .data          0x00000000        0x0 build/DM30004-2/production/_ext/854379441/drv_ethmac_lib.o
 .bss           0x00000000        0x0 build/DM30004-2/production/_ext/854379441/drv_ethmac_lib.o
 .reginfo       0x00000000       0x18 build/DM30004-2/production/_ext/854379441/drv_ethmac_lib.o
 .text.DRV_ETHMAC_LibDescriptorsPoolRemove
                0x00000000       0xc4 build/DM30004-2/production/_ext/854379441/drv_ethmac_lib.o
 .text.DRV_ETHMAC_LibTxSendBuffer
                0x00000000       0xc4 build/DM30004-2/production/_ext/854379441/drv_ethmac_lib.o
 .text.DRV_ETHMAC_LibTxGetBufferStatus
                0x00000000       0x84 build/DM30004-2/production/_ext/854379441/drv_ethmac_lib.o
 .text.DRV_ETHMAC_LibRxGetBuffer
                0x00000000       0x3c build/DM30004-2/production/_ext/854379441/drv_ethmac_lib.o
 .text          0x00000000        0x0 build/DM30004-2/production/_ext/2030533247/drv_ethphy.o
 .data          0x00000000        0x0 build/DM30004-2/production/_ext/2030533247/drv_ethphy.o
 .bss           0x00000000        0x0 build/DM30004-2/production/_ext/2030533247/drv_ethphy.o
 .reginfo       0x00000000       0x18 build/DM30004-2/production/_ext/2030533247/drv_ethphy.o
 .text          0x00000000        0x0 build/DM30004-2/production/_ext/2030533247/drv_extphy_smsc8740.o
 .data          0x00000000        0x0 build/DM30004-2/production/_ext/2030533247/drv_extphy_smsc8740.o
 .bss           0x00000000        0x0 build/DM30004-2/production/_ext/2030533247/drv_extphy_smsc8740.o
 .reginfo       0x00000000       0x18 build/DM30004-2/production/_ext/2030533247/drv_extphy_smsc8740.o
 .text          0x00000000        0x0 build/DM30004-2/production/_ext/2027566358/drv_tmr.o
 .data          0x00000000        0x0 build/DM30004-2/production/_ext/2027566358/drv_tmr.o
 .reginfo       0x00000000       0x18 build/DM30004-2/production/_ext/2027566358/drv_tmr.o
 .text.DRV_TMR_Deinitialize
                0x00000000       0x54 build/DM30004-2/production/_ext/2027566358/drv_tmr.o
 .text.DRV_TMR_Status
                0x00000000       0x28 build/DM30004-2/production/_ext/2027566358/drv_tmr.o
 .text.DRV_TMR_Tasks_ISR
                0x00000000       0x1c build/DM30004-2/production/_ext/2027566358/drv_tmr.o
 .text.DRV_TMR_ClientStatus
                0x00000000       0x44 build/DM30004-2/production/_ext/2027566358/drv_tmr.o
 .text.DRV_TMR_CounterValueSet
                0x00000000      0x130 build/DM30004-2/production/_ext/2027566358/drv_tmr.o
 .text.DRV_TMR_CounterValue16BitSet
                0x00000000       0x1c build/DM30004-2/production/_ext/2027566358/drv_tmr.o
 .text.DRV_TMR_CounterValue32BitSet
                0x00000000       0x1c build/DM30004-2/production/_ext/2027566358/drv_tmr.o
 .text.DRV_TMR_CounterValue16BitGet
                0x00000000       0x20 build/DM30004-2/production/_ext/2027566358/drv_tmr.o
 .text.DRV_TMR_CounterValue32BitGet
                0x00000000       0x1c build/DM30004-2/production/_ext/2027566358/drv_tmr.o
 .text.DRV_TMR_CounterClear
                0x00000000      0x114 build/DM30004-2/production/_ext/2027566358/drv_tmr.o
 .text.DRV_TMR_Alarm16BitRegister
                0x00000000       0x20 build/DM30004-2/production/_ext/2027566358/drv_tmr.o
 .text.DRV_TMR_Alarm32BitRegister
                0x00000000       0x20 build/DM30004-2/production/_ext/2027566358/drv_tmr.o
 .text.DRV_TMR_AlarmDisable
                0x00000000       0x64 build/DM30004-2/production/_ext/2027566358/drv_tmr.o
 .text.DRV_TMR_AlarmEnable
                0x00000000       0x60 build/DM30004-2/production/_ext/2027566358/drv_tmr.o
 .text.DRV_TMR_AlarmPeriodSet
                0x00000000      0x174 build/DM30004-2/production/_ext/2027566358/drv_tmr.o
 .text.DRV_TMR_AlarmPeriod16BitSet
                0x00000000       0x1c build/DM30004-2/production/_ext/2027566358/drv_tmr.o
 .text.DRV_TMR_AlarmPeriod32BitSet
                0x00000000       0x1c build/DM30004-2/production/_ext/2027566358/drv_tmr.o
 .text.DRV_TMR_AlarmPeriodGet
                0x00000000       0x3c build/DM30004-2/production/_ext/2027566358/drv_tmr.o
 .text.DRV_TMR_AlarmPeriod16BitGet
                0x00000000       0x20 build/DM30004-2/production/_ext/2027566358/drv_tmr.o
 .text.DRV_TMR_AlarmPeriod32BitGet
                0x00000000       0x1c build/DM30004-2/production/_ext/2027566358/drv_tmr.o
 .text.DRV_TMR_AlarmDeregister
                0x00000000       0x60 build/DM30004-2/production/_ext/2027566358/drv_tmr.o
 .text.DRV_TMR_Alarm16BitDeregister
                0x00000000       0x1c build/DM30004-2/production/_ext/2027566358/drv_tmr.o
 .text.DRV_TMR_Alarm32BitDeregister
                0x00000000       0x1c build/DM30004-2/production/_ext/2027566358/drv_tmr.o
 .text.DRV_TMR_Stop
                0x00000000       0x80 build/DM30004-2/production/_ext/2027566358/drv_tmr.o
 .text.DRV_TMR_AlarmHasElapsed
                0x00000000       0x3c build/DM30004-2/production/_ext/2027566358/drv_tmr.o
 .text.DRV_TMR_OperationModeGet
                0x00000000       0x3c build/DM30004-2/production/_ext/2027566358/drv_tmr.o
 .text.DRV_TMR_DividerRangeGet
                0x00000000       0x74 build/DM30004-2/production/_ext/2027566358/drv_tmr.o
 .text.DRV_TMR_GateModeSet
                0x00000000      0x12c build/DM30004-2/production/_ext/2027566358/drv_tmr.o
 .text.DRV_TMR_GateModeClear
                0x00000000      0x12c build/DM30004-2/production/_ext/2027566358/drv_tmr.o
 .text.DRV_TMR_ClockSet
                0x00000000       0xa4 build/DM30004-2/production/_ext/2027566358/drv_tmr.o
 .text.DRV_TMR_PrescalerGet
                0x00000000      0x1fc build/DM30004-2/production/_ext/2027566358/drv_tmr.o
 .text          0x00000000        0x0 build/DM30004-2/production/_ext/1322803601/sys_devcon.o
 .data          0x00000000        0x0 build/DM30004-2/production/_ext/1322803601/sys_devcon.o
 .bss           0x00000000        0x0 build/DM30004-2/production/_ext/1322803601/sys_devcon.o
 .reginfo       0x00000000       0x18 build/DM30004-2/production/_ext/1322803601/sys_devcon.o
 .text.SYS_DEVCON_Reinitialize
                0x00000000       0x10 build/DM30004-2/production/_ext/1322803601/sys_devcon.o
 .text.SYS_DEVCON_Deinitialize
                0x00000000        0x8 build/DM30004-2/production/_ext/1322803601/sys_devcon.o
 .text.SYS_DEVCON_Status
                0x00000000        0x8 build/DM30004-2/production/_ext/1322803601/sys_devcon.o
 .text.SYS_DEVCON_JTAGEnable
                0x00000000       0x18 build/DM30004-2/production/_ext/1322803601/sys_devcon.o
 .text.SYS_DEVCON_TraceEnable
                0x00000000       0x18 build/DM30004-2/production/_ext/1322803601/sys_devcon.o
 .text.SYS_DEVCON_TraceDisable
                0x00000000       0x18 build/DM30004-2/production/_ext/1322803601/sys_devcon.o
 .text.SYS_DEVCON_PowerModeEnter
                0x00000000       0x50 build/DM30004-2/production/_ext/1322803601/sys_devcon.o
 .text          0x00000000        0x0 build/DM30004-2/production/_ext/1322803601/sys_devcon_pic32mx.o
 .data          0x00000000        0x0 build/DM30004-2/production/_ext/1322803601/sys_devcon_pic32mx.o
 .bss           0x00000000        0x0 build/DM30004-2/production/_ext/1322803601/sys_devcon_pic32mx.o
 .reginfo       0x00000000       0x18 build/DM30004-2/production/_ext/1322803601/sys_devcon_pic32mx.o
 .text          0x00000000        0x0 build/DM30004-2/production/_ext/1204230505/sys_int_pic32.o
 .data          0x00000000        0x0 build/DM30004-2/production/_ext/1204230505/sys_int_pic32.o
 .bss           0x00000000        0x0 build/DM30004-2/production/_ext/1204230505/sys_int_pic32.o
 .reginfo       0x00000000       0x18 build/DM30004-2/production/_ext/1204230505/sys_int_pic32.o
 .text.SYS_INT_StatusGetAndDisable
                0x00000000       0x1c build/DM30004-2/production/_ext/1204230505/sys_int_pic32.o
 .text.SYS_INT_StatusRestore
                0x00000000       0x1c build/DM30004-2/production/_ext/1204230505/sys_int_pic32.o
 .text.SYS_INT_Disable
                0x00000000       0x20 build/DM30004-2/production/_ext/1204230505/sys_int_pic32.o
 .text.SYS_INT_ExternalInterruptTriggerSet
                0x00000000       0x34 build/DM30004-2/production/_ext/1204230505/sys_int_pic32.o
 .text          0x00000000        0x0 build/DM30004-2/production/_ext/1310142747/sys_random.o
 .data          0x00000000        0x0 build/DM30004-2/production/_ext/1310142747/sys_random.o
 .reginfo       0x00000000       0x18 build/DM30004-2/production/_ext/1310142747/sys_random.o
 .text.SYS_RANDOM_Deinitialize
                0x00000000        0xc build/DM30004-2/production/_ext/1310142747/sys_random.o
 .text.SYS_RANDOM_PseudoSeedSet
                0x00000000       0x1c build/DM30004-2/production/_ext/1310142747/sys_random.o
 .text.SYS_RANDOM_CryptoSeedSet
                0x00000000        0x8 build/DM30004-2/production/_ext/1310142747/sys_random.o
 .text.SYS_RANDOM_CryptoSeedSizeGet
                0x00000000       0x24 build/DM30004-2/production/_ext/1310142747/sys_random.o
 .text.SYS_RANDOM_CryptoGet
                0x00000000       0x30 build/DM30004-2/production/_ext/1310142747/sys_random.o
 .text.SYS_RANDOM_CryptoByteGet
                0x00000000       0x2c build/DM30004-2/production/_ext/1310142747/sys_random.o
 .text.SYS_RANDOM_CryptoEntropyAdd
                0x00000000        0x8 build/DM30004-2/production/_ext/1310142747/sys_random.o
 .text          0x00000000        0x0 build/DM30004-2/production/_ext/62100799/sys_tmr.o
 .data          0x00000000        0x0 build/DM30004-2/production/_ext/62100799/sys_tmr.o
 .reginfo       0x00000000       0x18 build/DM30004-2/production/_ext/62100799/sys_tmr.o
 .text.SYS_TMR_Deinitialize
                0x00000000       0xd0 build/DM30004-2/production/_ext/62100799/sys_tmr.o
 .text.SYS_TMR_Status
                0x00000000       0x20 build/DM30004-2/production/_ext/62100799/sys_tmr.o
 .text.SYS_TMR_ObjectCreate
                0x00000000       0x1c build/DM30004-2/production/_ext/62100799/sys_tmr.o
 .text.SYS_TMR_ObjectReload
                0x00000000       0xb4 build/DM30004-2/production/_ext/62100799/sys_tmr.o
 .text.SYS_TMR_ObjectCountGet
                0x00000000       0xe4 build/DM30004-2/production/_ext/62100799/sys_tmr.o
 .text.SYS_TMR_CallbackSingle
                0x00000000       0x1c build/DM30004-2/production/_ext/62100799/sys_tmr.o
 .text.SYS_TMR_DelayMS
                0x00000000       0x24 build/DM30004-2/production/_ext/62100799/sys_tmr.o
 .text.SYS_TMR_DelayStatusGet
                0x00000000       0x20 build/DM30004-2/production/_ext/62100799/sys_tmr.o
 .text          0x00000000        0x0 build/DM30004-2/production/_ext/804969968/helpers.o
 .data          0x00000000        0x0 build/DM30004-2/production/_ext/804969968/helpers.o
 .bss           0x00000000        0x0 build/DM30004-2/production/_ext/804969968/helpers.o
 .reginfo       0x00000000       0x18 build/DM30004-2/production/_ext/804969968/helpers.o
 .text.uitoa    0x00000000       0x90 build/DM30004-2/production/_ext/804969968/helpers.o
 .text.btohexa_high
                0x00000000       0x1c build/DM30004-2/production/_ext/804969968/helpers.o
 .text.btohexa_low
                0x00000000       0x1c build/DM30004-2/production/_ext/804969968/helpers.o
 .text.strncpy_m
                0x00000000       0xd8 build/DM30004-2/production/_ext/804969968/helpers.o
 .text          0x00000000        0x0 build/DM30004-2/production/_ext/1899562614/ipv4.o
 .data          0x00000000        0x0 build/DM30004-2/production/_ext/1899562614/ipv4.o
 .reginfo       0x00000000       0x18 build/DM30004-2/production/_ext/1899562614/ipv4.o
 .text.TCPIP_IPV4_PacketFilterSet
                0x00000000       0x10 build/DM30004-2/production/_ext/1899562614/ipv4.o
 .text.TCPIP_IPV4_PacketFilterClear
                0x00000000       0x14 build/DM30004-2/production/_ext/1899562614/ipv4.o
 .text.TCPIP_IPV4_MacPacketSwitchTxToRx
                0x00000000       0xd4 build/DM30004-2/production/_ext/1899562614/ipv4.o
 .text.TCPIP_IPV4_MacPacketTransmit
                0x00000000       0xc4 build/DM30004-2/production/_ext/1899562614/ipv4.o
 .text          0x00000000        0x0 build/DM30004-2/production/_ext/1899562614/udp.o
 .data          0x00000000        0x0 build/DM30004-2/production/_ext/1899562614/udp.o
 .bss           0x00000000        0x0 build/DM30004-2/production/_ext/1899562614/udp.o
 .reginfo       0x00000000       0x18 build/DM30004-2/production/_ext/1899562614/udp.o
 .text.TCPIP_UDP_IsConnected
                0x00000000       0x5c build/DM30004-2/production/_ext/1899562614/udp.o
 .text.TCPIP_UDP_Disconnect
                0x00000000       0xe4 build/DM30004-2/production/_ext/1899562614/udp.o
 .text.TCPIP_UDP_StringPut
                0x00000000       0x60 build/DM30004-2/production/_ext/1899562614/udp.o
 .text.TCPIP_UDP_TxCountGet
                0x00000000       0x54 build/DM30004-2/production/_ext/1899562614/udp.o
 .text.TCPIP_UDP_RxOffsetSet
                0x00000000       0x84 build/DM30004-2/production/_ext/1899562614/udp.o
 .text.TCPIP_UDP_Get
                0x00000000       0x1c build/DM30004-2/production/_ext/1899562614/udp.o
 .text.TCPIP_UDP_SocketNetGet
                0x00000000       0x28 build/DM30004-2/production/_ext/1899562614/udp.o
 .text.TCPIP_UDP_RemoteBind
                0x00000000      0x11c build/DM30004-2/production/_ext/1899562614/udp.o
 .text.TCPIP_UDP_SetSplitPayload
                0x00000000       0xc0 build/DM30004-2/production/_ext/1899562614/udp.o
 .text.TCPIP_UDP_SignalHandlerDeregister
                0x00000000       0x48 build/DM30004-2/production/_ext/1899562614/udp.o
 .text.TCPIP_UDP_SocketsNumberGet
                0x00000000        0x8 build/DM30004-2/production/_ext/1899562614/udp.o
 .text          0x00000000        0x0 build/DM30004-2/production/_ext/1899562614/tcpip_heap_alloc.o
 .data          0x00000000        0x0 build/DM30004-2/production/_ext/1899562614/tcpip_heap_alloc.o
 .bss           0x00000000        0x0 build/DM30004-2/production/_ext/1899562614/tcpip_heap_alloc.o
 .reginfo       0x00000000       0x18 build/DM30004-2/production/_ext/1899562614/tcpip_heap_alloc.o
 .text._TCPIP_HEAP_PointerMapCached
                0x00000000        0x8 build/DM30004-2/production/_ext/1899562614/tcpip_heap_alloc.o
 .text          0x00000000        0x0 build/DM30004-2/production/_ext/1899562614/tcpip_heap_internal.o
 .data          0x00000000        0x0 build/DM30004-2/production/_ext/1899562614/tcpip_heap_internal.o
 .bss           0x00000000        0x0 build/DM30004-2/production/_ext/1899562614/tcpip_heap_internal.o
 .reginfo       0x00000000       0x18 build/DM30004-2/production/_ext/1899562614/tcpip_heap_internal.o
 .text          0x00000000        0x0 build/DM30004-2/production/_ext/1899562614/arp.o
 .data          0x00000000        0x0 build/DM30004-2/production/_ext/1899562614/arp.o
 .reginfo       0x00000000       0x18 build/DM30004-2/production/_ext/1899562614/arp.o
 .text.TCPIP_ARP_Resolve
                0x00000000       0x78 build/DM30004-2/production/_ext/1899562614/arp.o
 .text.TCPIP_ARP_EntrySet
                0x00000000      0x174 build/DM30004-2/production/_ext/1899562614/arp.o
 .text.TCPIP_ARP_EntryRemoveAll
                0x00000000       0xe8 build/DM30004-2/production/_ext/1899562614/arp.o
 .text.TCPIP_ARP_EntryQuery
                0x00000000      0x114 build/DM30004-2/production/_ext/1899562614/arp.o
 .text.TCPIP_ARP_CacheEntriesNoGet
                0x00000000       0xdc build/DM30004-2/production/_ext/1899562614/arp.o
 .text.TCPIP_ARP_CacheThresholdSet
                0x00000000       0xa8 build/DM30004-2/production/_ext/1899562614/arp.o
 .text          0x00000000        0x0 build/DM30004-2/production/_ext/1899562614/dhcp.o
 .data          0x00000000        0x0 build/DM30004-2/production/_ext/1899562614/dhcp.o
 .reginfo       0x00000000       0x18 build/DM30004-2/production/_ext/1899562614/dhcp.o
 .text._DHCPStartOperation
                0x00000000      0x168 build/DM30004-2/production/_ext/1899562614/dhcp.o
 .text.TCPIP_DHCP_Disable
                0x00000000       0xb4 build/DM30004-2/production/_ext/1899562614/dhcp.o
 .text.TCPIP_DHCP_Enable
                0x00000000       0x38 build/DM30004-2/production/_ext/1899562614/dhcp.o
 .text.TCPIP_DHCP_Renew
                0x00000000       0x38 build/DM30004-2/production/_ext/1899562614/dhcp.o
 .text.TCPIP_DHCP_Request
                0x00000000       0x38 build/DM30004-2/production/_ext/1899562614/dhcp.o
 .text.TCPIP_DHCP_IsEnabled
                0x00000000       0x78 build/DM30004-2/production/_ext/1899562614/dhcp.o
 .text.TCPIP_DHCP_IsActive
                0x00000000       0x30 build/DM30004-2/production/_ext/1899562614/dhcp.o
 .text.TCPIP_DHCP_IsBound
                0x00000000       0x78 build/DM30004-2/production/_ext/1899562614/dhcp.o
 .text.TCPIP_DHCP_IsServerDetected
                0x00000000       0x78 build/DM30004-2/production/_ext/1899562614/dhcp.o
 .text.TCPIP_DHCP_RequestTimeoutSet
                0x00000000       0xa4 build/DM30004-2/production/_ext/1899562614/dhcp.o
 .text.TCPIP_DHCP_HandlerRegister
                0x00000000       0x78 build/DM30004-2/production/_ext/1899562614/dhcp.o
 .text.TCPIP_DHCP_HandlerDeRegister
                0x00000000       0x44 build/DM30004-2/production/_ext/1899562614/dhcp.o
 .text.TCPIP_DHCP_InfoGet
                0x00000000      0x10c build/DM30004-2/production/_ext/1899562614/dhcp.o
 .text.TCPIP_DHCP_HostNameCallbackRegister
                0x00000000       0xa0 build/DM30004-2/production/_ext/1899562614/dhcp.o
 .text          0x00000000        0x0 build/DM30004-2/production/_ext/1899562614/dns.o
 .data          0x00000000        0x0 build/DM30004-2/production/_ext/1899562614/dns.o
 .reginfo       0x00000000       0x18 build/DM30004-2/production/_ext/1899562614/dns.o
 .text._DNS_GetAddresses
                0x00000000      0x1a4 build/DM30004-2/production/_ext/1899562614/dns.o
 .text.TCPIP_DNS_Send_Query
                0x00000000       0x1c build/DM30004-2/production/_ext/1899562614/dns.o
 .text.TCPIP_DNS_GetIPv4Addresses
                0x00000000       0x20 build/DM30004-2/production/_ext/1899562614/dns.o
 .text.TCPIP_DNS_GetIPv6Addresses
                0x00000000       0x20 build/DM30004-2/production/_ext/1899562614/dns.o
 .text.TCPIP_DNS_GetIPAddressesNumber
                0x00000000       0xb8 build/DM30004-2/production/_ext/1899562614/dns.o
 .text.TCPIP_DNS_IsNameResolved
                0x00000000       0x1c build/DM30004-2/production/_ext/1899562614/dns.o
 .text.TCPIP_DNS_ClientInfoGet
                0x00000000       0x64 build/DM30004-2/production/_ext/1899562614/dns.o
 .text.TCPIP_DNS_EntryQuery
                0x00000000      0x240 build/DM30004-2/production/_ext/1899562614/dns.o
 .text.TCPIP_DNS_RemoveAll
                0x00000000       0xa0 build/DM30004-2/production/_ext/1899562614/dns.o
 .text.TCPIP_DNS_IsEnabled
                0x00000000       0x24 build/DM30004-2/production/_ext/1899562614/dns.o
 .text.TCPIP_DNS_Enable
                0x00000000       0x20 build/DM30004-2/production/_ext/1899562614/dns.o
 .text.TCPIP_DNS_Disable
                0x00000000       0xbc build/DM30004-2/production/_ext/1899562614/dns.o
 .text          0x00000000        0x0 build/DM30004-2/production/_ext/1899562614/hash_fnv.o
 .data          0x00000000        0x0 build/DM30004-2/production/_ext/1899562614/hash_fnv.o
 .bss           0x00000000        0x0 build/DM30004-2/production/_ext/1899562614/hash_fnv.o
 .reginfo       0x00000000       0x18 build/DM30004-2/production/_ext/1899562614/hash_fnv.o
 .text.fnv_32a_hash
                0x00000000       0x5c build/DM30004-2/production/_ext/1899562614/hash_fnv.o
 .text          0x00000000        0x0 build/DM30004-2/production/_ext/1899562614/oahash.o
 .data          0x00000000        0x0 build/DM30004-2/production/_ext/1899562614/oahash.o
 .bss           0x00000000        0x0 build/DM30004-2/production/_ext/1899562614/oahash.o
 .reginfo       0x00000000       0x18 build/DM30004-2/production/_ext/1899562614/oahash.o
 .text          0x00000000        0x0 build/DM30004-2/production/_ext/1899562614/tcpip_helpers.o
 .data          0x00000000       0x28 build/DM30004-2/production/_ext/1899562614/tcpip_helpers.o
 .bss           0x00000000        0x0 build/DM30004-2/production/_ext/1899562614/tcpip_helpers.o
 .reginfo       0x00000000       0x18 build/DM30004-2/production/_ext/1899562614/tcpip_helpers.o
 .text._TCPIP_Helper_SecurePortEntry
                0x00000000       0x54 build/DM30004-2/production/_ext/1899562614/tcpip_helpers.o
 .text.TCPIP_Helper_IPAddressToString
                0x00000000       0x98 build/DM30004-2/production/_ext/1899562614/tcpip_helpers.o
 .text.TCPIP_Helper_IPv6AddressToString
                0x00000000      0x164 build/DM30004-2/production/_ext/1899562614/tcpip_helpers.o
 .text.TCPIP_Helper_IsPrivateAddress
                0x00000000       0x3c build/DM30004-2/production/_ext/1899562614/tcpip_helpers.o
 .text.TCPIP_Helper_MACAddressToString
                0x00000000       0x80 build/DM30004-2/production/_ext/1899562614/tcpip_helpers.o
 .text.TCPIP_Helper_PowerModeToString
                0x00000000       0x28 build/DM30004-2/production/_ext/1899562614/tcpip_helpers.o
 .text.TCPIP_Helper_Base64Decode
                0x00000000      0x1a4 build/DM30004-2/production/_ext/1899562614/tcpip_helpers.o
 .text.TCPIP_Helper_Base64Encode
                0x00000000      0x190 build/DM30004-2/production/_ext/1899562614/tcpip_helpers.o
 .text.TCPIP_Helper_PacketCopy
                0x00000000      0x120 build/DM30004-2/production/_ext/1899562614/tcpip_helpers.o
 .text.TCPIP_Helper_FindCommonPrefix
                0x00000000       0xa0 build/DM30004-2/production/_ext/1899562614/tcpip_helpers.o
 .text.TCPIP_Helper_SingleListHeadAdd
                0x00000000       0x28 build/DM30004-2/production/_ext/1899562614/tcpip_helpers.o
 .text.TCPIP_Helper_SingleListMidAdd
                0x00000000       0x1c build/DM30004-2/production/_ext/1899562614/tcpip_helpers.o
 .text.TCPIP_Helper_SingleListNextRemove
                0x00000000       0x58 build/DM30004-2/production/_ext/1899562614/tcpip_helpers.o
 .text.TCPIP_Helper_SingleListFind
                0x00000000       0x48 build/DM30004-2/production/_ext/1899562614/tcpip_helpers.o
 .text.TCPIP_Helper_ProtectedSingleListHeadAdd
                0x00000000       0x7c build/DM30004-2/production/_ext/1899562614/tcpip_helpers.o
 .text.TCPIP_Helper_ProtectedSingleListMidAdd
                0x00000000       0x88 build/DM30004-2/production/_ext/1899562614/tcpip_helpers.o
 .text.TCPIP_Helper_ProtectedSingleListNextRemove
                0x00000000       0x8c build/DM30004-2/production/_ext/1899562614/tcpip_helpers.o
 .text.TCPIP_Helper_ProtectedSingleListAppend
                0x00000000       0x7c build/DM30004-2/production/_ext/1899562614/tcpip_helpers.o
 .text.TCPIP_Helper_DoubleListInitialize
                0x00000000       0x10 build/DM30004-2/production/_ext/1899562614/tcpip_helpers.o
 .text.TCPIP_Helper_DoubleListHeadAdd
                0x00000000       0x40 build/DM30004-2/production/_ext/1899562614/tcpip_helpers.o
 .text.TCPIP_Helper_DoubleListTailAdd
                0x00000000       0x44 build/DM30004-2/production/_ext/1899562614/tcpip_helpers.o
 .text.TCPIP_Helper_DoubleListMidAdd
                0x00000000       0x28 build/DM30004-2/production/_ext/1899562614/tcpip_helpers.o
 .text.TCPIP_Helper_DoubleListHeadRemove
                0x00000000       0x40 build/DM30004-2/production/_ext/1899562614/tcpip_helpers.o
 .text.TCPIP_Helper_DoubleListTailRemove
                0x00000000       0x40 build/DM30004-2/production/_ext/1899562614/tcpip_helpers.o
 .text.TCPIP_Helper_DoubleListMidRemove
                0x00000000       0x28 build/DM30004-2/production/_ext/1899562614/tcpip_helpers.o
 .text.TCPIP_Helper_DoubleListNodeRemove
                0x00000000       0x50 build/DM30004-2/production/_ext/1899562614/tcpip_helpers.o
 .text.TCPIP_Helper_DoubleListFind
                0x00000000       0x48 build/DM30004-2/production/_ext/1899562614/tcpip_helpers.o
 .text.TCPIP_Helper_ProtectedDoubleListInitialize
                0x00000000       0x44 build/DM30004-2/production/_ext/1899562614/tcpip_helpers.o
 .text.TCPIP_Helper_ProtectedDoubleListDeinitialize
                0x00000000       0x78 build/DM30004-2/production/_ext/1899562614/tcpip_helpers.o
 .text.TCPIP_Helper_ProtectedDoubleListHeadAdd
                0x00000000       0x7c build/DM30004-2/production/_ext/1899562614/tcpip_helpers.o
 .text.TCPIP_Helper_ProtectedDoubleListTailAdd
                0x00000000       0x7c build/DM30004-2/production/_ext/1899562614/tcpip_helpers.o
 .text.TCPIP_Helper_ProtectedDoubleListMidAdd
                0x00000000       0x7c build/DM30004-2/production/_ext/1899562614/tcpip_helpers.o
 .text.TCPIP_Helper_ProtectedDoubleListHeadRemove
                0x00000000       0x8c build/DM30004-2/production/_ext/1899562614/tcpip_helpers.o
 .text.TCPIP_Helper_ProtectedDoubleListTailRemove
                0x00000000       0x8c build/DM30004-2/production/_ext/1899562614/tcpip_helpers.o
 .text.TCPIP_Helper_ProtectedDoubleListMidRemove
                0x00000000       0x7c build/DM30004-2/production/_ext/1899562614/tcpip_helpers.o
 .text.TCPIP_Helper_ProtectedDoubleListNodeRemove
                0x00000000       0x7c build/DM30004-2/production/_ext/1899562614/tcpip_helpers.o
 .text.TCPIP_Helper_ProtectedDoubleListRemoveAll
                0x00000000       0x90 build/DM30004-2/production/_ext/1899562614/tcpip_helpers.o
 .text.TCPIP_Helper_ProtectedDoubleListLock
                0x00000000       0x54 build/DM30004-2/production/_ext/1899562614/tcpip_helpers.o
 .text.TCPIP_Helper_ProtectedDoubleListUnlock
                0x00000000       0x40 build/DM30004-2/production/_ext/1899562614/tcpip_helpers.o
 .text.TCPIP_Helper_TCPSecurePortGet
                0x00000000       0x2c build/DM30004-2/production/_ext/1899562614/tcpip_helpers.o
 .text.TCPIP_Helper_UDPSecurePortGet
                0x00000000       0x2c build/DM30004-2/production/_ext/1899562614/tcpip_helpers.o
 .text.TCPIP_Helper_SecurePortGetByIndex
                0x00000000       0x60 build/DM30004-2/production/_ext/1899562614/tcpip_helpers.o
 .text.TCPIP_Helper_SecurePortSet
                0x00000000       0xc0 build/DM30004-2/production/_ext/1899562614/tcpip_helpers.o
 .data          0x00000000        0x0 build/DM30004-2/production/_ext/1899562614/tcpip_helper_c32.o
 .bss           0x00000000        0x0 build/DM30004-2/production/_ext/1899562614/tcpip_helper_c32.o
 .reginfo       0x00000000       0x18 build/DM30004-2/production/_ext/1899562614/tcpip_helper_c32.o
 .text          0x00000000        0x0 build/DM30004-2/production/_ext/1899562614/tcpip_manager.o
 .data          0x00000000        0x0 build/DM30004-2/production/_ext/1899562614/tcpip_manager.o
 .reginfo       0x00000000       0x18 build/DM30004-2/production/_ext/1899562614/tcpip_manager.o
 .text._NetConfigStringToBuffer
                0x00000000       0xc8 build/DM30004-2/production/_ext/1899562614/tcpip_manager.o
 .text.TCPIP_STACK_InitializeDataGet
                0x00000000       0x58 build/DM30004-2/production/_ext/1899562614/tcpip_manager.o
 .text.TCPIP_STACK_NetDefaultSet
                0x00000000       0x2c build/DM30004-2/production/_ext/1899562614/tcpip_manager.o
 .text.TCPIP_STACK_MacToNet
                0x00000000       0x4c build/DM30004-2/production/_ext/1899562614/tcpip_manager.o
 .text.TCPIP_STACK_MacToNetIndex
                0x00000000       0x54 build/DM30004-2/production/_ext/1899562614/tcpip_manager.o
 .text.TCPIP_STACK_NetIndexGet
                0x00000000       0x18 build/DM30004-2/production/_ext/1899562614/tcpip_manager.o
 .text.TCPIP_STACK_MACIdToNet
                0x00000000       0x5c build/DM30004-2/production/_ext/1899562614/tcpip_manager.o
 .text.TCPIP_STACK_NetNameGet
                0x00000000       0x2c build/DM30004-2/production/_ext/1899562614/tcpip_manager.o
 .text.TCPIP_STACK_NetAliasNameGet
                0x00000000       0x8c build/DM30004-2/production/_ext/1899562614/tcpip_manager.o
 .text.TCPIP_STACK_MACObjectGet
                0x00000000       0x18 build/DM30004-2/production/_ext/1899562614/tcpip_manager.o
 .text.TCPIP_STACK_NetAddressGatewaySet
                0x00000000       0x30 build/DM30004-2/production/_ext/1899562614/tcpip_manager.o
 .text.TCPIP_STACK_NetAddressGateway
                0x00000000       0x28 build/DM30004-2/production/_ext/1899562614/tcpip_manager.o
 .text.TCPIP_STACK_NetAddressDnsPrimary
                0x00000000       0x28 build/DM30004-2/production/_ext/1899562614/tcpip_manager.o
 .text.TCPIP_STACK_NetAddressDnsSecond
                0x00000000       0x28 build/DM30004-2/production/_ext/1899562614/tcpip_manager.o
 .text.TCPIP_STACK_NetAddressDnsPrimarySet
                0x00000000       0x2c build/DM30004-2/production/_ext/1899562614/tcpip_manager.o
 .text.TCPIP_STACK_NetAddressDnsSecondSet
                0x00000000       0x30 build/DM30004-2/production/_ext/1899562614/tcpip_manager.o
 .text.TCPIP_STACK_NetAddressMacSet
                0x00000000       0x4c build/DM30004-2/production/_ext/1899562614/tcpip_manager.o
 .text.TCPIP_STACK_NetBiosNameSet
                0x00000000       0x8c build/DM30004-2/production/_ext/1899562614/tcpip_manager.o
 .text.TCPIP_STACK_SetLocalMasksType
                0x00000000       0x38 build/DM30004-2/production/_ext/1899562614/tcpip_manager.o
 .text.TCPIP_STACK_SetLocalMasks
                0x00000000       0x30 build/DM30004-2/production/_ext/1899562614/tcpip_manager.o
 .text.TCPIP_STACK_NetMACIdGet
                0x00000000       0x28 build/DM30004-2/production/_ext/1899562614/tcpip_manager.o
 .text.TCPIP_STACK_NetMACStatisticsGet
                0x00000000       0x50 build/DM30004-2/production/_ext/1899562614/tcpip_manager.o
 .text.TCPIP_STACK_NetMACRegisterStatisticsGet
                0x00000000       0x50 build/DM30004-2/production/_ext/1899562614/tcpip_manager.o
 .text.TCPIP_STACK_ModuleConfigGet
                0x00000000       0x74 build/DM30004-2/production/_ext/1899562614/tcpip_manager.o
 .text.TCPIP_STACK_NetConfigGet
                0x00000000      0x104 build/DM30004-2/production/_ext/1899562614/tcpip_manager.o
 .text.TCPIP_STACK_NetConfigSet
                0x00000000      0x2dc build/DM30004-2/production/_ext/1899562614/tcpip_manager.o
 .text.TCPIP_STACK_StringToMACId
                0x00000000       0x9c build/DM30004-2/production/_ext/1899562614/tcpip_manager.o
 .text.TCPIP_STACK_NetHandleGet
                0x00000000       0x84 build/DM30004-2/production/_ext/1899562614/tcpip_manager.o
 .text.TCPIP_STACK_MACIdToString
                0x00000000       0x4c build/DM30004-2/production/_ext/1899562614/tcpip_manager.o
 .text.TCPIP_STACK_IPAddressIsLocalNetwork
                0x00000000       0x9c build/DM30004-2/production/_ext/1899562614/tcpip_manager.o
 .text.TCPIP_STACK_NetIsUp
                0x00000000       0x20 build/DM30004-2/production/_ext/1899562614/tcpip_manager.o
 .text.TCPIP_STACK_AddressServiceCanStart
                0x00000000       0x20 build/DM30004-2/production/_ext/1899562614/tcpip_manager.o
 .text._TCPIPStackAddressServiceIsRunning
                0x00000000        0xc build/DM30004-2/production/_ext/1899562614/tcpip_manager.o
 .text.TCPIP_STACK_EventsPendingGet
                0x00000000       0x4c build/DM30004-2/production/_ext/1899562614/tcpip_manager.o
 .text.TCPIP_STACK_NetStaticIPv6AddressGet
                0x00000000        0x8 build/DM30004-2/production/_ext/1899562614/tcpip_manager.o
 .text.TCPIP_STACK_NetDefaultIPv6GatewayGet
                0x00000000        0x8 build/DM30004-2/production/_ext/1899562614/tcpip_manager.o
 .text.TCPIP_STACK_NetworkAddressSet
                0x00000000       0x48 build/DM30004-2/production/_ext/1899562614/tcpip_manager.o
 .text.TCPIP_STACK_NetAddressSet
                0x00000000       0x48 build/DM30004-2/production/_ext/1899562614/tcpip_manager.o
 .text.TCPIP_STACK_NetMask
                0x00000000       0x44 build/DM30004-2/production/_ext/1899562614/tcpip_manager.o
 .text.TCPIP_STACK_AddressIsOfNetUp
                0x00000000       0x54 build/DM30004-2/production/_ext/1899562614/tcpip_manager.o
 .text.TCPIP_STACK_NetIsLinked
                0x00000000       0x44 build/DM30004-2/production/_ext/1899562614/tcpip_manager.o
 .text.TCPIP_STACK_NetMACId
                0x00000000       0x18 build/DM30004-2/production/_ext/1899562614/tcpip_manager.o
 .text.TCPIP_STACK_NetToMAC
                0x00000000       0x18 build/DM30004-2/production/_ext/1899562614/tcpip_manager.o
 .text._TCPIPStackSignalHandlerSetParams
                0x00000000       0x4c build/DM30004-2/production/_ext/1899562614/tcpip_manager.o
 .text.TCPIP_STACK_Deinitialize
                0x00000000       0x3c build/DM30004-2/production/_ext/1899562614/tcpip_manager.o
 .text.TCPIP_STACK_NetUp
                0x00000000       0xec build/DM30004-2/production/_ext/1899562614/tcpip_manager.o
 .text.TCPIP_STACK_NetDown
                0x00000000       0xac build/DM30004-2/production/_ext/1899562614/tcpip_manager.o
 .text.TCPIP_STACK_VersionGet
                0x00000000        0xc build/DM30004-2/production/_ext/1899562614/tcpip_manager.o
 .text.TCPIP_STACK_VersionStrGet
                0x00000000        0xc build/DM30004-2/production/_ext/1899562614/tcpip_manager.o
 .text.TCPIP_MODULE_SignalFunctionRegister
                0x00000000       0x50 build/DM30004-2/production/_ext/1899562614/tcpip_manager.o
 .text.TCPIP_MODULE_SignalFunctionDeregister
                0x00000000       0x1c build/DM30004-2/production/_ext/1899562614/tcpip_manager.o
 .text.TCPIP_MODULE_SignalGet
                0x00000000       0x50 build/DM30004-2/production/_ext/1899562614/tcpip_manager.o
 .text.TCPIP_STACK_HeapHandleGet
                0x00000000       0x20 build/DM30004-2/production/_ext/1899562614/tcpip_manager.o
 .text.TCPIP_STACK_HEAP_Size
                0x00000000       0x34 build/DM30004-2/production/_ext/1899562614/tcpip_manager.o
 .text.TCPIP_STACK_HEAP_MaxSize
                0x00000000       0x34 build/DM30004-2/production/_ext/1899562614/tcpip_manager.o
 .text.TCPIP_STACK_HEAP_FreeSize
                0x00000000       0x34 build/DM30004-2/production/_ext/1899562614/tcpip_manager.o
 .text.TCPIP_STACK_HEAP_LastError
                0x00000000       0x34 build/DM30004-2/production/_ext/1899562614/tcpip_manager.o
 .text._TCPIPStackHeapConfig
                0x00000000        0xc build/DM30004-2/production/_ext/1899562614/tcpip_manager.o
 .text          0x00000000        0x0 build/DM30004-2/production/_ext/1899562614/tcpip_notify.o
 .data          0x00000000        0x0 build/DM30004-2/production/_ext/1899562614/tcpip_notify.o
 .bss           0x00000000        0x0 build/DM30004-2/production/_ext/1899562614/tcpip_notify.o
 .reginfo       0x00000000       0x18 build/DM30004-2/production/_ext/1899562614/tcpip_notify.o
 .text          0x00000000        0x0 build/DM30004-2/production/_ext/1899562614/tcpip_packet.o
 .data          0x00000000        0x0 build/DM30004-2/production/_ext/1899562614/tcpip_packet.o
 .bss           0x00000000        0x0 build/DM30004-2/production/_ext/1899562614/tcpip_packet.o
 .reginfo       0x00000000       0x18 build/DM30004-2/production/_ext/1899562614/tcpip_packet.o
 .text.TCPIP_PKT_SegmentAlloc
                0x00000000       0xb0 build/DM30004-2/production/_ext/1899562614/tcpip_packet.o
 .text.TCPIP_PKT_SegmentAppend
                0x00000000       0x30 build/DM30004-2/production/_ext/1899562614/tcpip_packet.o
 .text.TCPIP_PKT_SegmentFree
                0x00000000       0x48 build/DM30004-2/production/_ext/1899562614/tcpip_packet.o
 .text          0x00000000        0x0 build/DM30004-2/production/_ext/1442095083/unabto_aes128_sha256.o
 .data          0x00000000        0x0 build/DM30004-2/production/_ext/1442095083/unabto_aes128_sha256.o
 .bss           0x00000000        0x0 build/DM30004-2/production/_ext/1442095083/unabto_aes128_sha256.o
 .reginfo       0x00000000       0x18 build/DM30004-2/production/_ext/1442095083/unabto_aes128_sha256.o
 .text          0x00000000        0x0 build/DM30004-2/production/_ext/1442095083/unabto_app_adapter.o
 .data          0x00000000        0x0 build/DM30004-2/production/_ext/1442095083/unabto_app_adapter.o
 .bss           0x00000000        0x0 build/DM30004-2/production/_ext/1442095083/unabto_app_adapter.o
 .reginfo       0x00000000       0x18 build/DM30004-2/production/_ext/1442095083/unabto_app_adapter.o
 .text          0x00000000        0x0 build/DM30004-2/production/_ext/1442095083/unabto_attach.o
 .data          0x00000000        0x0 build/DM30004-2/production/_ext/1442095083/unabto_attach.o
 .bss           0x00000000        0x0 build/DM30004-2/production/_ext/1442095083/unabto_attach.o
 .reginfo       0x00000000       0x18 build/DM30004-2/production/_ext/1442095083/unabto_attach.o
 .text.handle_as_wait_dns_fallback_open_socket
                0x00000000        0x8 build/DM30004-2/production/_ext/1442095083/unabto_attach.o
 .text.nabto_network_changed
                0x00000000       0x9c build/DM30004-2/production/_ext/1442095083/unabto_attach.o
 .text          0x00000000        0x0 build/DM30004-2/production/_ext/1442095083/unabto_buffers.o
 .data          0x00000000        0x0 build/DM30004-2/production/_ext/1442095083/unabto_buffers.o
 .bss           0x00000000        0x0 build/DM30004-2/production/_ext/1442095083/unabto_buffers.o
 .reginfo       0x00000000       0x18 build/DM30004-2/production/_ext/1442095083/unabto_buffers.o
 .text.unabto_buffer_get_data
                0x00000000        0x8 build/DM30004-2/production/_ext/1442095083/unabto_buffers.o
 .text.unabto_buffer_get_size
                0x00000000       0x18 build/DM30004-2/production/_ext/1442095083/unabto_buffers.o
 .text.unabto_buffer_copy
                0x00000000       0x48 build/DM30004-2/production/_ext/1442095083/unabto_buffers.o
 .text.unabto_buffer_cmp
                0x00000000       0x68 build/DM30004-2/production/_ext/1442095083/unabto_buffers.o
 .text.unabto_abuffer_reset
                0x00000000       0x1c build/DM30004-2/production/_ext/1442095083/unabto_buffers.o
 .text.unabto_abuffer_get_head
                0x00000000       0x24 build/DM30004-2/production/_ext/1442095083/unabto_buffers.o
 .text.unabto_abuffer_get_size
                0x00000000       0x1c build/DM30004-2/production/_ext/1442095083/unabto_buffers.o
 .text.unabto_abuffer_get_unused
                0x00000000       0x28 build/DM30004-2/production/_ext/1442095083/unabto_buffers.o
 .text.unabto_abuffer_advance
                0x00000000       0x40 build/DM30004-2/production/_ext/1442095083/unabto_buffers.o
 .text.unabto_abuffer_copy
                0x00000000       0x7c build/DM30004-2/production/_ext/1442095083/unabto_buffers.o
 .text.unabto_abuffer_add_data
                0x00000000       0x78 build/DM30004-2/production/_ext/1442095083/unabto_buffers.o
 .text.unabto_abuffer_add_str
                0x00000000       0x44 build/DM30004-2/production/_ext/1442095083/unabto_buffers.o
 .text.buffer_abuffer_add_str_terminator
                0x00000000       0x24 build/DM30004-2/production/_ext/1442095083/unabto_buffers.o
 .text.unabto_abuffer_add_buffer
                0x00000000       0x34 build/DM30004-2/production/_ext/1442095083/unabto_buffers.o
 .text          0x00000000        0x0 build/DM30004-2/production/_ext/1442095083/unabto_common_main.o
 .data          0x00000000        0x0 build/DM30004-2/production/_ext/1442095083/unabto_common_main.o
 .bss           0x00000000        0x0 build/DM30004-2/production/_ext/1442095083/unabto_common_main.o
 .reginfo       0x00000000       0x18 build/DM30004-2/production/_ext/1442095083/unabto_common_main.o
 .text.unabto_close
                0x00000000       0x60 build/DM30004-2/production/_ext/1442095083/unabto_common_main.o
 .text.unabto_set_aes_crypto
                0x00000000       0x94 build/DM30004-2/production/_ext/1442095083/unabto_common_main.o
 .text.unabto_set_no_crypto
                0x00000000        0xc build/DM30004-2/production/_ext/1442095083/unabto_common_main.o
 .text.unabto_is_connected_to_gsp
                0x00000000       0x14 build/DM30004-2/production/_ext/1442095083/unabto_common_main.o
 .text.unabto_get_main_context
                0x00000000        0xc build/DM30004-2/production/_ext/1442095083/unabto_common_main.o
 .text.unabto_notify_ip_changed
                0x00000000       0x20 build/DM30004-2/production/_ext/1442095083/unabto_common_main.o
 .text          0x00000000        0x0 build/DM30004-2/production/_ext/1442095083/unabto_connection.o
 .data          0x00000000        0x0 build/DM30004-2/production/_ext/1442095083/unabto_connection.o
 .bss           0x00000000        0x0 build/DM30004-2/production/_ext/1442095083/unabto_connection.o
 .reginfo       0x00000000       0x18 build/DM30004-2/production/_ext/1442095083/unabto_connection.o
 .text.nabto_terminate_connections
                0x00000000       0x64 build/DM30004-2/production/_ext/1442095083/unabto_connection.o
 .text.insert_cp_id_payload
                0x00000000       0xc4 build/DM30004-2/production/_ext/1442095083/unabto_connection.o
 .text          0x00000000        0x0 build/DM30004-2/production/_ext/1442095083/unabto_context.o
 .data          0x00000000        0x0 build/DM30004-2/production/_ext/1442095083/unabto_context.o
 .bss           0x00000000        0x0 build/DM30004-2/production/_ext/1442095083/unabto_context.o
 .reginfo       0x00000000       0x18 build/DM30004-2/production/_ext/1442095083/unabto_context.o
 .text.nabto_context_release
                0x00000000       0x50 build/DM30004-2/production/_ext/1442095083/unabto_context.o
 .text          0x00000000        0x0 build/DM30004-2/production/_ext/1442095083/unabto_crypto.o
 .data          0x00000000        0x0 build/DM30004-2/production/_ext/1442095083/unabto_crypto.o
 .bss           0x00000000        0x0 build/DM30004-2/production/_ext/1442095083/unabto_crypto.o
 .reginfo       0x00000000       0x18 build/DM30004-2/production/_ext/1442095083/unabto_crypto.o
 .text.nabto_crypto_init_key
                0x00000000       0x4c build/DM30004-2/production/_ext/1442095083/unabto_crypto.o
 .text.nabto_crypto_init
                0x00000000       0x48 build/DM30004-2/production/_ext/1442095083/unabto_crypto.o
 .text          0x00000000        0x0 build/DM30004-2/production/_ext/1442095083/unabto_debug_packet.o
 .data          0x00000000        0x0 build/DM30004-2/production/_ext/1442095083/unabto_debug_packet.o
 .bss           0x00000000        0x0 build/DM30004-2/production/_ext/1442095083/unabto_debug_packet.o
 .reginfo       0x00000000       0x18 build/DM30004-2/production/_ext/1442095083/unabto_debug_packet.o
 .text          0x00000000        0x0 build/DM30004-2/production/_ext/1442095083/unabto_extended_rendezvous.o
 .data          0x00000000        0x0 build/DM30004-2/production/_ext/1442095083/unabto_extended_rendezvous.o
 .bss           0x00000000        0x0 build/DM30004-2/production/_ext/1442095083/unabto_extended_rendezvous.o
 .reginfo       0x00000000       0x18 build/DM30004-2/production/_ext/1442095083/unabto_extended_rendezvous.o
 .text          0x00000000        0x0 build/DM30004-2/production/_ext/1442095083/unabto_memory.o
 .data          0x00000000        0x0 build/DM30004-2/production/_ext/1442095083/unabto_memory.o
 .bss           0x00000000        0x0 build/DM30004-2/production/_ext/1442095083/unabto_memory.o
 .reginfo       0x00000000       0x18 build/DM30004-2/production/_ext/1442095083/unabto_memory.o
 .text          0x00000000        0x0 build/DM30004-2/production/_ext/1442095083/unabto_message.o
 .data          0x00000000        0x0 build/DM30004-2/production/_ext/1442095083/unabto_message.o
 .bss           0x00000000        0x0 build/DM30004-2/production/_ext/1442095083/unabto_message.o
 .reginfo       0x00000000       0x18 build/DM30004-2/production/_ext/1442095083/unabto_message.o
 .text          0x00000000        0x0 build/DM30004-2/production/_ext/1442095083/unabto_next_event.o
 .data          0x00000000        0x0 build/DM30004-2/production/_ext/1442095083/unabto_next_event.o
 .bss           0x00000000        0x0 build/DM30004-2/production/_ext/1442095083/unabto_next_event.o
 .reginfo       0x00000000       0x18 build/DM30004-2/production/_ext/1442095083/unabto_next_event.o
 .text.nabto_update_min_stamp
                0x00000000       0x1c build/DM30004-2/production/_ext/1442095083/unabto_next_event.o
 .text.unabto_next_event
                0x00000000      0x118 build/DM30004-2/production/_ext/1442095083/unabto_next_event.o
 .text          0x00000000        0x0 build/DM30004-2/production/_ext/1442095083/unabto_packet.o
 .data          0x00000000        0x0 build/DM30004-2/production/_ext/1442095083/unabto_packet.o
 .reginfo       0x00000000       0x18 build/DM30004-2/production/_ext/1442095083/unabto_packet.o
 .text          0x00000000        0x0 build/DM30004-2/production/_ext/1442095083/unabto_packet_util.o
 .data          0x00000000        0x0 build/DM30004-2/production/_ext/1442095083/unabto_packet_util.o
 .bss           0x00000000        0x0 build/DM30004-2/production/_ext/1442095083/unabto_packet_util.o
 .reginfo       0x00000000       0x18 build/DM30004-2/production/_ext/1442095083/unabto_packet_util.o
 .text.unabto_payload_read_push
                0x00000000       0x78 build/DM30004-2/production/_ext/1442095083/unabto_packet_util.o
 .text.unabto_payload_read_gw
                0x00000000       0xa0 build/DM30004-2/production/_ext/1442095083/unabto_packet_util.o
 .text          0x00000000        0x0 build/DM30004-2/production/_ext/1442095083/unabto_prf.o
 .data          0x00000000        0x0 build/DM30004-2/production/_ext/1442095083/unabto_prf.o
 .bss           0x00000000        0x0 build/DM30004-2/production/_ext/1442095083/unabto_prf.o
 .reginfo       0x00000000       0x18 build/DM30004-2/production/_ext/1442095083/unabto_prf.o
 .text          0x00000000        0x0 build/DM30004-2/production/_ext/1442095083/unabto_query_rw.o
 .data          0x00000000        0x0 build/DM30004-2/production/_ext/1442095083/unabto_query_rw.o
 .bss           0x00000000        0x0 build/DM30004-2/production/_ext/1442095083/unabto_query_rw.o
 .reginfo       0x00000000       0x18 build/DM30004-2/production/_ext/1442095083/unabto_query_rw.o
 .text.unabto_query_request_get_size
                0x00000000       0x1c build/DM30004-2/production/_ext/1442095083/unabto_query_rw.o
 .text.unabto_query_read_int8
                0x00000000       0x54 build/DM30004-2/production/_ext/1442095083/unabto_query_rw.o
 .text.unabto_query_read_int16
                0x00000000       0x6c build/DM30004-2/production/_ext/1442095083/unabto_query_rw.o
 .text.unabto_query_read_int32
                0x00000000       0x80 build/DM30004-2/production/_ext/1442095083/unabto_query_rw.o
 .text.unabto_query_read_uint8
                0x00000000       0x54 build/DM30004-2/production/_ext/1442095083/unabto_query_rw.o
 .text.unabto_query_read_uint16
                0x00000000       0x6c build/DM30004-2/production/_ext/1442095083/unabto_query_rw.o
 .text.unabto_query_read_uint8_list
                0x00000000       0xa8 build/DM30004-2/production/_ext/1442095083/unabto_query_rw.o
 .text.unabto_query_read_uint8_list_to_buffer_nc
                0x00000000       0x20 build/DM30004-2/production/_ext/1442095083/unabto_query_rw.o
 .text.unabto_query_read_list_length
                0x00000000       0x74 build/DM30004-2/production/_ext/1442095083/unabto_query_rw.o
 .text.unabto_query_request_reset
                0x00000000       0x1c build/DM30004-2/production/_ext/1442095083/unabto_query_rw.o
 .text.unabto_query_write_int8
                0x00000000       0x4c build/DM30004-2/production/_ext/1442095083/unabto_query_rw.o
 .text.unabto_query_write_int16
                0x00000000       0x60 build/DM30004-2/production/_ext/1442095083/unabto_query_rw.o
 .text.unabto_query_write_int32
                0x00000000       0x68 build/DM30004-2/production/_ext/1442095083/unabto_query_rw.o
 .text.unabto_query_write_uint8
                0x00000000       0x4c build/DM30004-2/production/_ext/1442095083/unabto_query_rw.o
 .text.unabto_query_write_uint16
                0x00000000       0x60 build/DM30004-2/production/_ext/1442095083/unabto_query_rw.o
 .text.unabto_query_write_free_bytes
                0x00000000       0x18 build/DM30004-2/production/_ext/1442095083/unabto_query_rw.o
 .text.unabto_query_write_uint8_list
                0x00000000       0x94 build/DM30004-2/production/_ext/1442095083/unabto_query_rw.o
 .text.unabto_query_write_list_start
                0x00000000       0x78 build/DM30004-2/production/_ext/1442095083/unabto_query_rw.o
 .text.unabto_query_write_list_end
                0x00000000       0x74 build/DM30004-2/production/_ext/1442095083/unabto_query_rw.o
 .text          0x00000000        0x0 build/DM30004-2/production/_ext/1442095083/unabto_stream.o
 .data          0x00000000        0x0 build/DM30004-2/production/_ext/1442095083/unabto_stream.o
 .bss           0x00000000        0x0 build/DM30004-2/production/_ext/1442095083/unabto_stream.o
 .reginfo       0x00000000       0x18 build/DM30004-2/production/_ext/1442095083/unabto_stream.o
 .text.unabto_stream_is_open
                0x00000000       0x1c build/DM30004-2/production/_ext/1442095083/unabto_stream.o
 .text.unabto_stream_is_readable
                0x00000000       0x1c build/DM30004-2/production/_ext/1442095083/unabto_stream.o
 .text.unabto_stream_read_buf
                0x00000000      0x104 build/DM30004-2/production/_ext/1442095083/unabto_stream.o
 .text.unabto_stream_is_writeable
                0x00000000       0x1c build/DM30004-2/production/_ext/1442095083/unabto_stream.o
 .text.unabto_stream_can_write
                0x00000000       0x54 build/DM30004-2/production/_ext/1442095083/unabto_stream.o
 .text.unabto_stream_is_closed
                0x00000000       0x1c build/DM30004-2/production/_ext/1442095083/unabto_stream.o
 .text.unabto_stream_force_close
                0x00000000       0x1c build/DM30004-2/production/_ext/1442095083/unabto_stream.o
 .text.unabto_stream_connection
                0x00000000        0x8 build/DM30004-2/production/_ext/1442095083/unabto_stream.o
 .text.unabto_stream_get_connection_type
                0x00000000       0x30 build/DM30004-2/production/_ext/1442095083/unabto_stream.o
 .text          0x00000000        0x0 build/DM30004-2/production/_ext/1442095083/unabto_stream_environment.o
 .data          0x00000000        0x0 build/DM30004-2/production/_ext/1442095083/unabto_stream_environment.o
 .bss           0x00000000        0x0 build/DM30004-2/production/_ext/1442095083/unabto_stream_environment.o
 .reginfo       0x00000000       0x18 build/DM30004-2/production/_ext/1442095083/unabto_stream_environment.o
 .text          0x00000000        0x0 build/DM30004-2/production/_ext/1442095083/unabto_stream_event.o
 .data          0x00000000        0x0 build/DM30004-2/production/_ext/1442095083/unabto_stream_event.o
 .bss           0x00000000        0x0 build/DM30004-2/production/_ext/1442095083/unabto_stream_event.o
 .reginfo       0x00000000       0x18 build/DM30004-2/production/_ext/1442095083/unabto_stream_event.o
 .text.stream_init_static_config
                0x00000000       0x1c build/DM30004-2/production/_ext/1442095083/unabto_stream_event.o
 .text.nabto_stream_update_next_event
                0x00000000       0xd0 build/DM30004-2/production/_ext/1442095083/unabto_stream_event.o
 .text          0x00000000        0x0 build/DM30004-2/production/_ext/1442095083/unabto_stream_window.o
 .data          0x00000000        0x0 build/DM30004-2/production/_ext/1442095083/unabto_stream_window.o
 .bss           0x00000000        0x0 build/DM30004-2/production/_ext/1442095083/unabto_stream_window.o
 .reginfo       0x00000000       0x18 build/DM30004-2/production/_ext/1442095083/unabto_stream_window.o
 .text.nabto_stream_tcb_can_write
                0x00000000       0x64 build/DM30004-2/production/_ext/1442095083/unabto_stream_window.o
 .text.nabto_stream_tcb_is_open
                0x00000000       0x10 build/DM30004-2/production/_ext/1442095083/unabto_stream_window.o
 .text.nabto_stream_tcb_is_readable
                0x00000000       0x28 build/DM30004-2/production/_ext/1442095083/unabto_stream_window.o
 .text.nabto_stream_tcb_force_close
                0x00000000       0x8c build/DM30004-2/production/_ext/1442095083/unabto_stream_window.o
 .text.nabto_stream_tcb_is_closed
                0x00000000       0x10 build/DM30004-2/production/_ext/1442095083/unabto_stream_window.o
 .text.nabto_stream_tcb_update_next_event
                0x00000000       0x7c build/DM30004-2/production/_ext/1442095083/unabto_stream_window.o
 .text.unabto_stream_congestion_control_can_send
                0x00000000       0x28 build/DM30004-2/production/_ext/1442095083/unabto_stream_window.o
 .text.use_slow_start
                0x00000000       0x38 build/DM30004-2/production/_ext/1442095083/unabto_stream_window.o
 .text.unabto_stream_not_sent_segments
                0x00000000       0x10 build/DM30004-2/production/_ext/1442095083/unabto_stream_window.o
 .text.unabto_stream_dump_state
                0x00000000      0x168 build/DM30004-2/production/_ext/1442095083/unabto_stream_window.o
 .text.unabto_stat_init
                0x00000000       0x18 build/DM30004-2/production/_ext/1442095083/unabto_stream_window.o
 .text.nabto_init_stream_state_initiator
                0x00000000       0x54 build/DM30004-2/production/_ext/1442095083/unabto_stream_window.o
 .text.nabto_stream_tcb_open
                0x00000000       0xb4 build/DM30004-2/production/_ext/1442095083/unabto_stream_window.o
 .text.unabto_stream_secondary_data_structure_init
                0x00000000       0x1c build/DM30004-2/production/_ext/1442095083/unabto_stream_window.o
 .text          0x00000000        0x0 build/DM30004-2/production/_ext/1442095083/unabto_tcp_fallback.o
 .data          0x00000000        0x0 build/DM30004-2/production/_ext/1442095083/unabto_tcp_fallback.o
 .bss           0x00000000        0x0 build/DM30004-2/production/_ext/1442095083/unabto_tcp_fallback.o
 .reginfo       0x00000000       0x18 build/DM30004-2/production/_ext/1442095083/unabto_tcp_fallback.o
 .text          0x00000000        0x0 build/DM30004-2/production/_ext/2107900007/unabto_harmony_crypto.o
 .data          0x00000000        0x0 build/DM30004-2/production/_ext/2107900007/unabto_harmony_crypto.o
 .reginfo       0x00000000       0x18 build/DM30004-2/production/_ext/2107900007/unabto_harmony_crypto.o
 .text          0x00000000        0x0 build/DM30004-2/production/_ext/2107900007/unabto_harmony_dns.o
 .data          0x00000000        0x0 build/DM30004-2/production/_ext/2107900007/unabto_harmony_dns.o
 .bss           0x00000000        0x0 build/DM30004-2/production/_ext/2107900007/unabto_harmony_dns.o
 .reginfo       0x00000000       0x18 build/DM30004-2/production/_ext/2107900007/unabto_harmony_dns.o
 .text          0x00000000        0x0 build/DM30004-2/production/_ext/2107900007/unabto_harmony_network.o
 .data          0x00000000        0x0 build/DM30004-2/production/_ext/2107900007/unabto_harmony_network.o
 .bss           0x00000000        0x0 build/DM30004-2/production/_ext/2107900007/unabto_harmony_network.o
 .reginfo       0x00000000       0x18 build/DM30004-2/production/_ext/2107900007/unabto_harmony_network.o
 .text.nabto_get_local_ip
                0x00000000        0x8 build/DM30004-2/production/_ext/2107900007/unabto_harmony_network.o
 .text          0x00000000        0x0 build/DM30004-2/production/_ext/2107900007/unabto_harmony_random.o
 .data          0x00000000        0x0 build/DM30004-2/production/_ext/2107900007/unabto_harmony_random.o
 .bss           0x00000000        0x0 build/DM30004-2/production/_ext/2107900007/unabto_harmony_random.o
 .reginfo       0x00000000       0x18 build/DM30004-2/production/_ext/2107900007/unabto_harmony_random.o
 .text          0x00000000        0x0 build/DM30004-2/production/_ext/2107900007/unabto_harmony_time.o
 .data          0x00000000        0x0 build/DM30004-2/production/_ext/2107900007/unabto_harmony_time.o
 .bss           0x00000000        0x0 build/DM30004-2/production/_ext/2107900007/unabto_harmony_time.o
 .reginfo       0x00000000       0x18 build/DM30004-2/production/_ext/2107900007/unabto_harmony_time.o
 .text          0x00000000        0x0 build/DM30004-2/production/_ext/2107900007/unabto_udp_debug.o
 .data          0x00000000        0x0 build/DM30004-2/production/_ext/2107900007/unabto_udp_debug.o
 .reginfo       0x00000000       0x18 build/DM30004-2/production/_ext/2107900007/unabto_udp_debug.o
 .text          0x00000000        0x0 ../../../../../microchip/harmony/v1_11/bin/framework/peripheral/PIC32MX795F512L_peripherals.a(plib_eth_lib.o)
 .data          0x00000000        0x0 ../../../../../microchip/harmony/v1_11/bin/framework/peripheral/PIC32MX795F512L_peripherals.a(plib_eth_lib.o)
 .bss           0x00000000        0x0 ../../../../../microchip/harmony/v1_11/bin/framework/peripheral/PIC32MX795F512L_peripherals.a(plib_eth_lib.o)
 .reginfo       0x00000000       0x18 ../../../../../microchip/harmony/v1_11/bin/framework/peripheral/PIC32MX795F512L_peripherals.a(plib_eth_lib.o)
 .text.PLIB_ETH_RxFiltersWrite
                0x00000000       0x28 ../../../../../microchip/harmony/v1_11/bin/framework/peripheral/PIC32MX795F512L_peripherals.a(plib_eth_lib.o)
 .text.PLIB_ETH_RxFiltersPMSet
                0x00000000       0x80 ../../../../../microchip/harmony/v1_11/bin/framework/peripheral/PIC32MX795F512L_peripherals.a(plib_eth_lib.o)
 .text.PLIB_ETH_RxFiltersPMClr
                0x00000000       0x20 ../../../../../microchip/harmony/v1_11/bin/framework/peripheral/PIC32MX795F512L_peripherals.a(plib_eth_lib.o)
 .text.PLIB_ETH_EventsEnableWrite
                0x00000000       0x20 ../../../../../microchip/harmony/v1_11/bin/framework/peripheral/PIC32MX795F512L_peripherals.a(plib_eth_lib.o)
 .text.PLIB_ETH_EventsEnableGet
                0x00000000       0x20 ../../../../../microchip/harmony/v1_11/bin/framework/peripheral/PIC32MX795F512L_peripherals.a(plib_eth_lib.o)
 .text          0x00000000        0x0 /opt/microchip/xc32/v1.43/bin/bin/../../lib/gcc/pic32mx/4.8.3/../../../../pic32mx/lib/./proc/32MX795F512L/default_isr_vectors.o
 .data          0x00000000        0x0 /opt/microchip/xc32/v1.43/bin/bin/../../lib/gcc/pic32mx/4.8.3/../../../../pic32mx/lib/./proc/32MX795F512L/default_isr_vectors.o
 .bss           0x00000000        0x0 /opt/microchip/xc32/v1.43/bin/bin/../../lib/gcc/pic32mx/4.8.3/../../../../pic32mx/lib/./proc/32MX795F512L/default_isr_vectors.o
 .reginfo       0x00000000       0x18 /opt/microchip/xc32/v1.43/bin/bin/../../lib/gcc/pic32mx/4.8.3/../../../../pic32mx/lib/./proc/32MX795F512L/default_isr_vectors.o
 .discard       0x00000000       0xd0 /opt/microchip/xc32/v1.43/bin/bin/../../lib/gcc/pic32mx/4.8.3/../../../../pic32mx/lib/./proc/32MX795F512L/default_isr_vectors.o
 .data          0x00000000        0x0 /opt/microchip/xc32/v1.43/bin/bin/../../lib/gcc/pic32mx/4.8.3/../../../../pic32mx/lib/pic32_software_reset.o
 .bss           0x00000000        0x0 /opt/microchip/xc32/v1.43/bin/bin/../../lib/gcc/pic32mx/4.8.3/../../../../pic32mx/lib/pic32_software_reset.o
 .reginfo       0x00000000       0x18 /opt/microchip/xc32/v1.43/bin/bin/../../lib/gcc/pic32mx/4.8.3/../../../../pic32mx/lib/pic32_software_reset.o
 .text          0x00000000        0x0 /opt/microchip/xc32/v1.43/bin/bin/../../lib/gcc/pic32mx/4.8.3/../../../../pic32mx/lib/./proc/32MX795F512L/processor.o
 .data          0x00000000        0x0 /opt/microchip/xc32/v1.43/bin/bin/../../lib/gcc/pic32mx/4.8.3/../../../../pic32mx/lib/./proc/32MX795F512L/processor.o
 .bss           0x00000000        0x0 /opt/microchip/xc32/v1.43/bin/bin/../../lib/gcc/pic32mx/4.8.3/../../../../pic32mx/lib/./proc/32MX795F512L/processor.o
 .reginfo       0x00000000       0x18 /opt/microchip/xc32/v1.43/bin/bin/../../lib/gcc/pic32mx/4.8.3/../../../../pic32mx/lib/./proc/32MX795F512L/processor.o
 .data          0x00000000        0x0 /opt/microchip/xc32/v1.43/bin/bin/../../lib/gcc/pic32mx/4.8.3/libgcc.a(_divdi3.o)
 .bss           0x00000000        0x0 /opt/microchip/xc32/v1.43/bin/bin/../../lib/gcc/pic32mx/4.8.3/libgcc.a(_divdi3.o)
 .reginfo       0x00000000       0x18 /opt/microchip/xc32/v1.43/bin/bin/../../lib/gcc/pic32mx/4.8.3/libgcc.a(_divdi3.o)
 .data          0x00000000        0x0 /opt/microchip/xc32/v1.43/bin/bin/../../lib/gcc/pic32mx/4.8.3/libgcc.a(_udivdi3.o)
 .bss           0x00000000        0x0 /opt/microchip/xc32/v1.43/bin/bin/../../lib/gcc/pic32mx/4.8.3/libgcc.a(_udivdi3.o)
 .reginfo       0x00000000       0x18 /opt/microchip/xc32/v1.43/bin/bin/../../lib/gcc/pic32mx/4.8.3/libgcc.a(_udivdi3.o)
 .data          0x00000000        0x0 /opt/microchip/xc32/v1.43/bin/bin/../../lib/gcc/pic32mx/4.8.3/libgcc.a(floatunsisf.o)
 .bss           0x00000000        0x0 /opt/microchip/xc32/v1.43/bin/bin/../../lib/gcc/pic32mx/4.8.3/libgcc.a(floatunsisf.o)
 .reginfo       0x00000000       0x18 /opt/microchip/xc32/v1.43/bin/bin/../../lib/gcc/pic32mx/4.8.3/libgcc.a(floatunsisf.o)
 .data          0x00000000        0x0 /opt/microchip/xc32/v1.43/bin/bin/../../lib/gcc/pic32mx/4.8.3/../../../../pic32mx/lib/libpic32.a(memcmp.o)
 .bss           0x00000000        0x0 /opt/microchip/xc32/v1.43/bin/bin/../../lib/gcc/pic32mx/4.8.3/../../../../pic32mx/lib/libpic32.a(memcmp.o)
 .reginfo       0x00000000       0x18 /opt/microchip/xc32/v1.43/bin/bin/../../lib/gcc/pic32mx/4.8.3/../../../../pic32mx/lib/libpic32.a(memcmp.o)
 .data          0x00000000        0x0 /opt/microchip/xc32/v1.43/bin/bin/../../lib/gcc/pic32mx/4.8.3/../../../../pic32mx/lib/libpic32.a(memcpy.o)
 .bss           0x00000000        0x0 /opt/microchip/xc32/v1.43/bin/bin/../../lib/gcc/pic32mx/4.8.3/../../../../pic32mx/lib/libpic32.a(memcpy.o)
 .reginfo       0x00000000       0x18 /opt/microchip/xc32/v1.43/bin/bin/../../lib/gcc/pic32mx/4.8.3/../../../../pic32mx/lib/libpic32.a(memcpy.o)
 .data          0x00000000        0x0 /opt/microchip/xc32/v1.43/bin/bin/../../lib/gcc/pic32mx/4.8.3/../../../../pic32mx/lib/libpic32.a(memset.o)
 .bss           0x00000000        0x0 /opt/microchip/xc32/v1.43/bin/bin/../../lib/gcc/pic32mx/4.8.3/../../../../pic32mx/lib/libpic32.a(memset.o)
 .reginfo       0x00000000       0x18 /opt/microchip/xc32/v1.43/bin/bin/../../lib/gcc/pic32mx/4.8.3/../../../../pic32mx/lib/libpic32.a(memset.o)
 .data          0x00000000        0x0 /opt/microchip/xc32/v1.43/bin/bin/../../lib/gcc/pic32mx/4.8.3/../../../../pic32mx/lib/libpic32.a(strcmp.o)
 .bss           0x00000000        0x0 /opt/microchip/xc32/v1.43/bin/bin/../../lib/gcc/pic32mx/4.8.3/../../../../pic32mx/lib/libpic32.a(strcmp.o)
 .reginfo       0x00000000       0x18 /opt/microchip/xc32/v1.43/bin/bin/../../lib/gcc/pic32mx/4.8.3/../../../../pic32mx/lib/libpic32.a(strcmp.o)
 .text          0x00000000      0x1a0 /opt/microchip/xc32/v1.43/bin/bin/../../lib/gcc/pic32mx/4.8.3/../../../../pic32mx/lib/libpic32.a(strcpy.o)
 .data          0x00000000        0x0 /opt/microchip/xc32/v1.43/bin/bin/../../lib/gcc/pic32mx/4.8.3/../../../../pic32mx/lib/libpic32.a(strcpy.o)
 .bss           0x00000000        0x0 /opt/microchip/xc32/v1.43/bin/bin/../../lib/gcc/pic32mx/4.8.3/../../../../pic32mx/lib/libpic32.a(strcpy.o)
 .reginfo       0x00000000       0x18 /opt/microchip/xc32/v1.43/bin/bin/../../lib/gcc/pic32mx/4.8.3/../../../../pic32mx/lib/libpic32.a(strcpy.o)
 .comment       0x00000000       0x1a /opt/microchip/xc32/v1.43/bin/bin/../../lib/gcc/pic32mx/4.8.3/../../../../pic32mx/lib/libpic32.a(strcpy.o)
 .data          0x00000000        0x0 /opt/microchip/xc32/v1.43/bin/bin/../../lib/gcc/pic32mx/4.8.3/../../../../pic32mx/lib/libpic32.a(strlen.o)
 .bss           0x00000000        0x0 /opt/microchip/xc32/v1.43/bin/bin/../../lib/gcc/pic32mx/4.8.3/../../../../pic32mx/lib/libpic32.a(strlen.o)
 .reginfo       0x00000000       0x18 /opt/microchip/xc32/v1.43/bin/bin/../../lib/gcc/pic32mx/4.8.3/../../../../pic32mx/lib/libpic32.a(strlen.o)
 .text          0x00000000        0x0 /opt/microchip/xc32/v1.43/bin/bin/../../lib/gcc/pic32mx/4.8.3/../../../../pic32mx/lib/libpic32.a(default-bootstrap-exception-handler.o)
 .data          0x00000000        0x0 /opt/microchip/xc32/v1.43/bin/bin/../../lib/gcc/pic32mx/4.8.3/../../../../pic32mx/lib/libpic32.a(default-bootstrap-exception-handler.o)
 .bss           0x00000000        0x0 /opt/microchip/xc32/v1.43/bin/bin/../../lib/gcc/pic32mx/4.8.3/../../../../pic32mx/lib/libpic32.a(default-bootstrap-exception-handler.o)
 .reginfo       0x00000000       0x18 /opt/microchip/xc32/v1.43/bin/bin/../../lib/gcc/pic32mx/4.8.3/../../../../pic32mx/lib/libpic32.a(default-bootstrap-exception-handler.o)
 .text          0x00000000        0x0 /opt/microchip/xc32/v1.43/bin/bin/../../lib/gcc/pic32mx/4.8.3/../../../../pic32mx/lib/libpic32.a(default-on-reset.o)
 .data          0x00000000        0x0 /opt/microchip/xc32/v1.43/bin/bin/../../lib/gcc/pic32mx/4.8.3/../../../../pic32mx/lib/libpic32.a(default-on-reset.o)
 .bss           0x00000000        0x0 /opt/microchip/xc32/v1.43/bin/bin/../../lib/gcc/pic32mx/4.8.3/../../../../pic32mx/lib/libpic32.a(default-on-reset.o)
 .reginfo       0x00000000       0x18 /opt/microchip/xc32/v1.43/bin/bin/../../lib/gcc/pic32mx/4.8.3/../../../../pic32mx/lib/libpic32.a(default-on-reset.o)
 .text          0x00000000        0x0 /opt/microchip/xc32/v1.43/bin/bin/../../lib/gcc/pic32mx/4.8.3/../../../../pic32mx/lib/libpic32.a(default-on-bootstrap.o)
 .data          0x00000000        0x0 /opt/microchip/xc32/v1.43/bin/bin/../../lib/gcc/pic32mx/4.8.3/../../../../pic32mx/lib/libpic32.a(default-on-bootstrap.o)
 .bss           0x00000000        0x0 /opt/microchip/xc32/v1.43/bin/bin/../../lib/gcc/pic32mx/4.8.3/../../../../pic32mx/lib/libpic32.a(default-on-bootstrap.o)
 .reginfo       0x00000000       0x18 /opt/microchip/xc32/v1.43/bin/bin/../../lib/gcc/pic32mx/4.8.3/../../../../pic32mx/lib/libpic32.a(default-on-bootstrap.o)
 .data          0x00000000        0x0 /opt/microchip/xc32/v1.43/bin/bin/../../lib/gcc/pic32mx/4.8.3/../../../../pic32mx/lib/libpic32.a(default-nmi-handler.o)
 .bss           0x00000000        0x0 /opt/microchip/xc32/v1.43/bin/bin/../../lib/gcc/pic32mx/4.8.3/../../../../pic32mx/lib/libpic32.a(default-nmi-handler.o)
 .reginfo       0x00000000       0x18 /opt/microchip/xc32/v1.43/bin/bin/../../lib/gcc/pic32mx/4.8.3/../../../../pic32mx/lib/libpic32.a(default-nmi-handler.o)
 .text          0x00000000        0x0 /opt/microchip/xc32/v1.43/bin/bin/../../lib/gcc/pic32mx/4.8.3/../../../../pic32mx/lib/libpic32.a(general-exception.o)
 .data          0x00000000        0x0 /opt/microchip/xc32/v1.43/bin/bin/../../lib/gcc/pic32mx/4.8.3/../../../../pic32mx/lib/libpic32.a(general-exception.o)
 .bss           0x00000000        0x0 /opt/microchip/xc32/v1.43/bin/bin/../../lib/gcc/pic32mx/4.8.3/../../../../pic32mx/lib/libpic32.a(general-exception.o)
 .reginfo       0x00000000       0x18 /opt/microchip/xc32/v1.43/bin/bin/../../lib/gcc/pic32mx/4.8.3/../../../../pic32mx/lib/libpic32.a(general-exception.o)
 .text          0x00000000        0x0 /opt/microchip/xc32/v1.43/bin/bin/../../lib/gcc/pic32mx/4.8.3/../../../../pic32mx/lib/libpic32.a(vector0.o)
 .data          0x00000000        0x0 /opt/microchip/xc32/v1.43/bin/bin/../../lib/gcc/pic32mx/4.8.3/../../../../pic32mx/lib/libpic32.a(vector0.o)
 .bss           0x00000000        0x0 /opt/microchip/xc32/v1.43/bin/bin/../../lib/gcc/pic32mx/4.8.3/../../../../pic32mx/lib/libpic32.a(vector0.o)
 .reginfo       0x00000000       0x18 /opt/microchip/xc32/v1.43/bin/bin/../../lib/gcc/pic32mx/4.8.3/../../../../pic32mx/lib/libpic32.a(vector0.o)
 .text          0x00000000        0x0 /opt/microchip/xc32/v1.43/bin/bin/../../lib/gcc/pic32mx/4.8.3/../../../../pic32mx/lib/libpic32.a(vector1.o)
 .data          0x00000000        0x0 /opt/microchip/xc32/v1.43/bin/bin/../../lib/gcc/pic32mx/4.8.3/../../../../pic32mx/lib/libpic32.a(vector1.o)
 .bss           0x00000000        0x0 /opt/microchip/xc32/v1.43/bin/bin/../../lib/gcc/pic32mx/4.8.3/../../../../pic32mx/lib/libpic32.a(vector1.o)
 .reginfo       0x00000000       0x18 /opt/microchip/xc32/v1.43/bin/bin/../../lib/gcc/pic32mx/4.8.3/../../../../pic32mx/lib/libpic32.a(vector1.o)
 .text          0x00000000        0x0 /opt/microchip/xc32/v1.43/bin/bin/../../lib/gcc/pic32mx/4.8.3/../../../../pic32mx/lib/libpic32.a(vector2.o)
 .data          0x00000000        0x0 /opt/microchip/xc32/v1.43/bin/bin/../../lib/gcc/pic32mx/4.8.3/../../../../pic32mx/lib/libpic32.a(vector2.o)
 .bss           0x00000000        0x0 /opt/microchip/xc32/v1.43/bin/bin/../../lib/gcc/pic32mx/4.8.3/../../../../pic32mx/lib/libpic32.a(vector2.o)
 .reginfo       0x00000000       0x18 /opt/microchip/xc32/v1.43/bin/bin/../../lib/gcc/pic32mx/4.8.3/../../../../pic32mx/lib/libpic32.a(vector2.o)
 .text          0x00000000        0x0 /opt/microchip/xc32/v1.43/bin/bin/../../lib/gcc/pic32mx/4.8.3/../../../../pic32mx/lib/libpic32.a(vector3.o)
 .data          0x00000000        0x0 /opt/microchip/xc32/v1.43/bin/bin/../../lib/gcc/pic32mx/4.8.3/../../../../pic32mx/lib/libpic32.a(vector3.o)
 .bss           0x00000000        0x0 /opt/microchip/xc32/v1.43/bin/bin/../../lib/gcc/pic32mx/4.8.3/../../../../pic32mx/lib/libpic32.a(vector3.o)
 .reginfo       0x00000000       0x18 /opt/microchip/xc32/v1.43/bin/bin/../../lib/gcc/pic32mx/4.8.3/../../../../pic32mx/lib/libpic32.a(vector3.o)
 .text          0x00000000        0x0 /opt/microchip/xc32/v1.43/bin/bin/../../lib/gcc/pic32mx/4.8.3/../../../../pic32mx/lib/libpic32.a(vector5.o)
 .data          0x00000000        0x0 /opt/microchip/xc32/v1.43/bin/bin/../../lib/gcc/pic32mx/4.8.3/../../../../pic32mx/lib/libpic32.a(vector5.o)
 .bss           0x00000000        0x0 /opt/microchip/xc32/v1.43/bin/bin/../../lib/gcc/pic32mx/4.8.3/../../../../pic32mx/lib/libpic32.a(vector5.o)
 .reginfo       0x00000000       0x18 /opt/microchip/xc32/v1.43/bin/bin/../../lib/gcc/pic32mx/4.8.3/../../../../pic32mx/lib/libpic32.a(vector5.o)
 .text          0x00000000        0x0 /opt/microchip/xc32/v1.43/bin/bin/../../lib/gcc/pic32mx/4.8.3/../../../../pic32mx/lib/libpic32.a(vector6.o)
 .data          0x00000000        0x0 /opt/microchip/xc32/v1.43/bin/bin/../../lib/gcc/pic32mx/4.8.3/../../../../pic32mx/lib/libpic32.a(vector6.o)
 .bss           0x00000000        0x0 /opt/microchip/xc32/v1.43/bin/bin/../../lib/gcc/pic32mx/4.8.3/../../../../pic32mx/lib/libpic32.a(vector6.o)
 .reginfo       0x00000000       0x18 /opt/microchip/xc32/v1.43/bin/bin/../../lib/gcc/pic32mx/4.8.3/../../../../pic32mx/lib/libpic32.a(vector6.o)
 .text          0x00000000        0x0 /opt/microchip/xc32/v1.43/bin/bin/../../lib/gcc/pic32mx/4.8.3/../../../../pic32mx/lib/libpic32.a(vector7.o)
 .data          0x00000000        0x0 /opt/microchip/xc32/v1.43/bin/bin/../../lib/gcc/pic32mx/4.8.3/../../../../pic32mx/lib/libpic32.a(vector7.o)
 .bss           0x00000000        0x0 /opt/microchip/xc32/v1.43/bin/bin/../../lib/gcc/pic32mx/4.8.3/../../../../pic32mx/lib/libpic32.a(vector7.o)
 .reginfo       0x00000000       0x18 /opt/microchip/xc32/v1.43/bin/bin/../../lib/gcc/pic32mx/4.8.3/../../../../pic32mx/lib/libpic32.a(vector7.o)
 .text          0x00000000        0x0 /opt/microchip/xc32/v1.43/bin/bin/../../lib/gcc/pic32mx/4.8.3/../../../../pic32mx/lib/libpic32.a(vector8.o)
 .data          0x00000000        0x0 /opt/microchip/xc32/v1.43/bin/bin/../../lib/gcc/pic32mx/4.8.3/../../../../pic32mx/lib/libpic32.a(vector8.o)
 .bss           0x00000000        0x0 /opt/microchip/xc32/v1.43/bin/bin/../../lib/gcc/pic32mx/4.8.3/../../../../pic32mx/lib/libpic32.a(vector8.o)
 .reginfo       0x00000000       0x18 /opt/microchip/xc32/v1.43/bin/bin/../../lib/gcc/pic32mx/4.8.3/../../../../pic32mx/lib/libpic32.a(vector8.o)
 .text          0x00000000        0x0 /opt/microchip/xc32/v1.43/bin/bin/../../lib/gcc/pic32mx/4.8.3/../../../../pic32mx/lib/libpic32.a(vector9.o)
 .data          0x00000000        0x0 /opt/microchip/xc32/v1.43/bin/bin/../../lib/gcc/pic32mx/4.8.3/../../../../pic32mx/lib/libpic32.a(vector9.o)
 .bss           0x00000000        0x0 /opt/microchip/xc32/v1.43/bin/bin/../../lib/gcc/pic32mx/4.8.3/../../../../pic32mx/lib/libpic32.a(vector9.o)
 .reginfo       0x00000000       0x18 /opt/microchip/xc32/v1.43/bin/bin/../../lib/gcc/pic32mx/4.8.3/../../../../pic32mx/lib/libpic32.a(vector9.o)
 .text          0x00000000        0x0 /opt/microchip/xc32/v1.43/bin/bin/../../lib/gcc/pic32mx/4.8.3/../../../../pic32mx/lib/libpic32.a(vector10.o)
 .data          0x00000000        0x0 /opt/microchip/xc32/v1.43/bin/bin/../../lib/gcc/pic32mx/4.8.3/../../../../pic32mx/lib/libpic32.a(vector10.o)
 .bss           0x00000000        0x0 /opt/microchip/xc32/v1.43/bin/bin/../../lib/gcc/pic32mx/4.8.3/../../../../pic32mx/lib/libpic32.a(vector10.o)
 .reginfo       0x00000000       0x18 /opt/microchip/xc32/v1.43/bin/bin/../../lib/gcc/pic32mx/4.8.3/../../../../pic32mx/lib/libpic32.a(vector10.o)
 .text          0x00000000        0x0 /opt/microchip/xc32/v1.43/bin/bin/../../lib/gcc/pic32mx/4.8.3/../../../../pic32mx/lib/libpic32.a(vector11.o)
 .data          0x00000000        0x0 /opt/microchip/xc32/v1.43/bin/bin/../../lib/gcc/pic32mx/4.8.3/../../../../pic32mx/lib/libpic32.a(vector11.o)
 .bss           0x00000000        0x0 /opt/microchip/xc32/v1.43/bin/bin/../../lib/gcc/pic32mx/4.8.3/../../../../pic32mx/lib/libpic32.a(vector11.o)
 .reginfo       0x00000000       0x18 /opt/microchip/xc32/v1.43/bin/bin/../../lib/gcc/pic32mx/4.8.3/../../../../pic32mx/lib/libpic32.a(vector11.o)
 .text          0x00000000        0x0 /opt/microchip/xc32/v1.43/bin/bin/../../lib/gcc/pic32mx/4.8.3/../../../../pic32mx/lib/libpic32.a(vector12.o)
 .data          0x00000000        0x0 /opt/microchip/xc32/v1.43/bin/bin/../../lib/gcc/pic32mx/4.8.3/../../../../pic32mx/lib/libpic32.a(vector12.o)
 .bss           0x00000000        0x0 /opt/microchip/xc32/v1.43/bin/bin/../../lib/gcc/pic32mx/4.8.3/../../../../pic32mx/lib/libpic32.a(vector12.o)
 .reginfo       0x00000000       0x18 /opt/microchip/xc32/v1.43/bin/bin/../../lib/gcc/pic32mx/4.8.3/../../../../pic32mx/lib/libpic32.a(vector12.o)
 .text          0x00000000        0x0 /opt/microchip/xc32/v1.43/bin/bin/../../lib/gcc/pic32mx/4.8.3/../../../../pic32mx/lib/libpic32.a(vector13.o)
 .data          0x00000000        0x0 /opt/microchip/xc32/v1.43/bin/bin/../../lib/gcc/pic32mx/4.8.3/../../../../pic32mx/lib/libpic32.a(vector13.o)
 .bss           0x00000000        0x0 /opt/microchip/xc32/v1.43/bin/bin/../../lib/gcc/pic32mx/4.8.3/../../../../pic32mx/lib/libpic32.a(vector13.o)
 .reginfo       0x00000000       0x18 /opt/microchip/xc32/v1.43/bin/bin/../../lib/gcc/pic32mx/4.8.3/../../../../pic32mx/lib/libpic32.a(vector13.o)
 .text          0x00000000        0x0 /opt/microchip/xc32/v1.43/bin/bin/../../lib/gcc/pic32mx/4.8.3/../../../../pic32mx/lib/libpic32.a(vector14.o)
 .data          0x00000000        0x0 /opt/microchip/xc32/v1.43/bin/bin/../../lib/gcc/pic32mx/4.8.3/../../../../pic32mx/lib/libpic32.a(vector14.o)
 .bss           0x00000000        0x0 /opt/microchip/xc32/v1.43/bin/bin/../../lib/gcc/pic32mx/4.8.3/../../../../pic32mx/lib/libpic32.a(vector14.o)
 .reginfo       0x00000000       0x18 /opt/microchip/xc32/v1.43/bin/bin/../../lib/gcc/pic32mx/4.8.3/../../../../pic32mx/lib/libpic32.a(vector14.o)
 .text          0x00000000        0x0 /opt/microchip/xc32/v1.43/bin/bin/../../lib/gcc/pic32mx/4.8.3/../../../../pic32mx/lib/libpic32.a(vector15.o)
 .data          0x00000000        0x0 /opt/microchip/xc32/v1.43/bin/bin/../../lib/gcc/pic32mx/4.8.3/../../../../pic32mx/lib/libpic32.a(vector15.o)
 .bss           0x00000000        0x0 /opt/microchip/xc32/v1.43/bin/bin/../../lib/gcc/pic32mx/4.8.3/../../../../pic32mx/lib/libpic32.a(vector15.o)
 .reginfo       0x00000000       0x18 /opt/microchip/xc32/v1.43/bin/bin/../../lib/gcc/pic32mx/4.8.3/../../../../pic32mx/lib/libpic32.a(vector15.o)
 .text          0x00000000        0x0 /opt/microchip/xc32/v1.43/bin/bin/../../lib/gcc/pic32mx/4.8.3/../../../../pic32mx/lib/libpic32.a(vector16.o)
 .data          0x00000000        0x0 /opt/microchip/xc32/v1.43/bin/bin/../../lib/gcc/pic32mx/4.8.3/../../../../pic32mx/lib/libpic32.a(vector16.o)
 .bss           0x00000000        0x0 /opt/microchip/xc32/v1.43/bin/bin/../../lib/gcc/pic32mx/4.8.3/../../../../pic32mx/lib/libpic32.a(vector16.o)
 .reginfo       0x00000000       0x18 /opt/microchip/xc32/v1.43/bin/bin/../../lib/gcc/pic32mx/4.8.3/../../../../pic32mx/lib/libpic32.a(vector16.o)
 .text          0x00000000        0x0 /opt/microchip/xc32/v1.43/bin/bin/../../lib/gcc/pic32mx/4.8.3/../../../../pic32mx/lib/libpic32.a(vector17.o)
 .data          0x00000000        0x0 /opt/microchip/xc32/v1.43/bin/bin/../../lib/gcc/pic32mx/4.8.3/../../../../pic32mx/lib/libpic32.a(vector17.o)
 .bss           0x00000000        0x0 /opt/microchip/xc32/v1.43/bin/bin/../../lib/gcc/pic32mx/4.8.3/../../../../pic32mx/lib/libpic32.a(vector17.o)
 .reginfo       0x00000000       0x18 /opt/microchip/xc32/v1.43/bin/bin/../../lib/gcc/pic32mx/4.8.3/../../../../pic32mx/lib/libpic32.a(vector17.o)
 .text          0x00000000        0x0 /opt/microchip/xc32/v1.43/bin/bin/../../lib/gcc/pic32mx/4.8.3/../../../../pic32mx/lib/libpic32.a(vector18.o)
 .data          0x00000000        0x0 /opt/microchip/xc32/v1.43/bin/bin/../../lib/gcc/pic32mx/4.8.3/../../../../pic32mx/lib/libpic32.a(vector18.o)
 .bss           0x00000000        0x0 /opt/microchip/xc32/v1.43/bin/bin/../../lib/gcc/pic32mx/4.8.3/../../../../pic32mx/lib/libpic32.a(vector18.o)
 .reginfo       0x00000000       0x18 /opt/microchip/xc32/v1.43/bin/bin/../../lib/gcc/pic32mx/4.8.3/../../../../pic32mx/lib/libpic32.a(vector18.o)
 .text          0x00000000        0x0 /opt/microchip/xc32/v1.43/bin/bin/../../lib/gcc/pic32mx/4.8.3/../../../../pic32mx/lib/libpic32.a(vector19.o)
 .data          0x00000000        0x0 /opt/microchip/xc32/v1.43/bin/bin/../../lib/gcc/pic32mx/4.8.3/../../../../pic32mx/lib/libpic32.a(vector19.o)
 .bss           0x00000000        0x0 /opt/microchip/xc32/v1.43/bin/bin/../../lib/gcc/pic32mx/4.8.3/../../../../pic32mx/lib/libpic32.a(vector19.o)
 .reginfo       0x00000000       0x18 /opt/microchip/xc32/v1.43/bin/bin/../../lib/gcc/pic32mx/4.8.3/../../../../pic32mx/lib/libpic32.a(vector19.o)
 .text          0x00000000        0x0 /opt/microchip/xc32/v1.43/bin/bin/../../lib/gcc/pic32mx/4.8.3/../../../../pic32mx/lib/libpic32.a(vector20.o)
 .data          0x00000000        0x0 /opt/microchip/xc32/v1.43/bin/bin/../../lib/gcc/pic32mx/4.8.3/../../../../pic32mx/lib/libpic32.a(vector20.o)
 .bss           0x00000000        0x0 /opt/microchip/xc32/v1.43/bin/bin/../../lib/gcc/pic32mx/4.8.3/../../../../pic32mx/lib/libpic32.a(vector20.o)
 .reginfo       0x00000000       0x18 /opt/microchip/xc32/v1.43/bin/bin/../../lib/gcc/pic32mx/4.8.3/../../../../pic32mx/lib/libpic32.a(vector20.o)
 .text          0x00000000        0x0 /opt/microchip/xc32/v1.43/bin/bin/../../lib/gcc/pic32mx/4.8.3/../../../../pic32mx/lib/libpic32.a(vector21.o)
 .data          0x00000000        0x0 /opt/microchip/xc32/v1.43/bin/bin/../../lib/gcc/pic32mx/4.8.3/../../../../pic32mx/lib/libpic32.a(vector21.o)
 .bss           0x00000000        0x0 /opt/microchip/xc32/v1.43/bin/bin/../../lib/gcc/pic32mx/4.8.3/../../../../pic32mx/lib/libpic32.a(vector21.o)
 .reginfo       0x00000000       0x18 /opt/microchip/xc32/v1.43/bin/bin/../../lib/gcc/pic32mx/4.8.3/../../../../pic32mx/lib/libpic32.a(vector21.o)
 .text          0x00000000        0x0 /opt/microchip/xc32/v1.43/bin/bin/../../lib/gcc/pic32mx/4.8.3/../../../../pic32mx/lib/libpic32.a(vector22.o)
 .data          0x00000000        0x0 /opt/microchip/xc32/v1.43/bin/bin/../../lib/gcc/pic32mx/4.8.3/../../../../pic32mx/lib/libpic32.a(vector22.o)
 .bss           0x00000000        0x0 /opt/microchip/xc32/v1.43/bin/bin/../../lib/gcc/pic32mx/4.8.3/../../../../pic32mx/lib/libpic32.a(vector22.o)
 .reginfo       0x00000000       0x18 /opt/microchip/xc32/v1.43/bin/bin/../../lib/gcc/pic32mx/4.8.3/../../../../pic32mx/lib/libpic32.a(vector22.o)
 .text          0x00000000        0x0 /opt/microchip/xc32/v1.43/bin/bin/../../lib/gcc/pic32mx/4.8.3/../../../../pic32mx/lib/libpic32.a(vector23.o)
 .data          0x00000000        0x0 /opt/microchip/xc32/v1.43/bin/bin/../../lib/gcc/pic32mx/4.8.3/../../../../pic32mx/lib/libpic32.a(vector23.o)
 .bss           0x00000000        0x0 /opt/microchip/xc32/v1.43/bin/bin/../../lib/gcc/pic32mx/4.8.3/../../../../pic32mx/lib/libpic32.a(vector23.o)
 .reginfo       0x00000000       0x18 /opt/microchip/xc32/v1.43/bin/bin/../../lib/gcc/pic32mx/4.8.3/../../../../pic32mx/lib/libpic32.a(vector23.o)
 .text          0x00000000        0x0 /opt/microchip/xc32/v1.43/bin/bin/../../lib/gcc/pic32mx/4.8.3/../../../../pic32mx/lib/libpic32.a(vector24.o)
 .data          0x00000000        0x0 /opt/microchip/xc32/v1.43/bin/bin/../../lib/gcc/pic32mx/4.8.3/../../../../pic32mx/lib/libpic32.a(vector24.o)
 .bss           0x00000000        0x0 /opt/microchip/xc32/v1.43/bin/bin/../../lib/gcc/pic32mx/4.8.3/../../../../pic32mx/lib/libpic32.a(vector24.o)
 .reginfo       0x00000000       0x18 /opt/microchip/xc32/v1.43/bin/bin/../../lib/gcc/pic32mx/4.8.3/../../../../pic32mx/lib/libpic32.a(vector24.o)
 .text          0x00000000        0x0 /opt/microchip/xc32/v1.43/bin/bin/../../lib/gcc/pic32mx/4.8.3/../../../../pic32mx/lib/libpic32.a(vector25.o)
 .data          0x00000000        0x0 /opt/microchip/xc32/v1.43/bin/bin/../../lib/gcc/pic32mx/4.8.3/../../../../pic32mx/lib/libpic32.a(vector25.o)
 .bss           0x00000000        0x0 /opt/microchip/xc32/v1.43/bin/bin/../../lib/gcc/pic32mx/4.8.3/../../../../pic32mx/lib/libpic32.a(vector25.o)
 .reginfo       0x00000000       0x18 /opt/microchip/xc32/v1.43/bin/bin/../../lib/gcc/pic32mx/4.8.3/../../../../pic32mx/lib/libpic32.a(vector25.o)
 .text          0x00000000        0x0 /opt/microchip/xc32/v1.43/bin/bin/../../lib/gcc/pic32mx/4.8.3/../../../../pic32mx/lib/libpic32.a(vector26.o)
 .data          0x00000000        0x0 /opt/microchip/xc32/v1.43/bin/bin/../../lib/gcc/pic32mx/4.8.3/../../../../pic32mx/lib/libpic32.a(vector26.o)
 .bss           0x00000000        0x0 /opt/microchip/xc32/v1.43/bin/bin/../../lib/gcc/pic32mx/4.8.3/../../../../pic32mx/lib/libpic32.a(vector26.o)
 .reginfo       0x00000000       0x18 /opt/microchip/xc32/v1.43/bin/bin/../../lib/gcc/pic32mx/4.8.3/../../../../pic32mx/lib/libpic32.a(vector26.o)
 .text          0x00000000        0x0 /opt/microchip/xc32/v1.43/bin/bin/../../lib/gcc/pic32mx/4.8.3/../../../../pic32mx/lib/libpic32.a(vector27.o)
 .data          0x00000000        0x0 /opt/microchip/xc32/v1.43/bin/bin/../../lib/gcc/pic32mx/4.8.3/../../../../pic32mx/lib/libpic32.a(vector27.o)
 .bss           0x00000000        0x0 /opt/microchip/xc32/v1.43/bin/bin/../../lib/gcc/pic32mx/4.8.3/../../../../pic32mx/lib/libpic32.a(vector27.o)
 .reginfo       0x00000000       0x18 /opt/microchip/xc32/v1.43/bin/bin/../../lib/gcc/pic32mx/4.8.3/../../../../pic32mx/lib/libpic32.a(vector27.o)
 .text          0x00000000        0x0 /opt/microchip/xc32/v1.43/bin/bin/../../lib/gcc/pic32mx/4.8.3/../../../../pic32mx/lib/libpic32.a(vector28.o)
 .data          0x00000000        0x0 /opt/microchip/xc32/v1.43/bin/bin/../../lib/gcc/pic32mx/4.8.3/../../../../pic32mx/lib/libpic32.a(vector28.o)
 .bss           0x00000000        0x0 /opt/microchip/xc32/v1.43/bin/bin/../../lib/gcc/pic32mx/4.8.3/../../../../pic32mx/lib/libpic32.a(vector28.o)
 .reginfo       0x00000000       0x18 /opt/microchip/xc32/v1.43/bin/bin/../../lib/gcc/pic32mx/4.8.3/../../../../pic32mx/lib/libpic32.a(vector28.o)
 .text          0x00000000        0x0 /opt/microchip/xc32/v1.43/bin/bin/../../lib/gcc/pic32mx/4.8.3/../../../../pic32mx/lib/libpic32.a(vector29.o)
 .data          0x00000000        0x0 /opt/microchip/xc32/v1.43/bin/bin/../../lib/gcc/pic32mx/4.8.3/../../../../pic32mx/lib/libpic32.a(vector29.o)
 .bss           0x00000000        0x0 /opt/microchip/xc32/v1.43/bin/bin/../../lib/gcc/pic32mx/4.8.3/../../../../pic32mx/lib/libpic32.a(vector29.o)
 .reginfo       0x00000000       0x18 /opt/microchip/xc32/v1.43/bin/bin/../../lib/gcc/pic32mx/4.8.3/../../../../pic32mx/lib/libpic32.a(vector29.o)
 .text          0x00000000        0x0 /opt/microchip/xc32/v1.43/bin/bin/../../lib/gcc/pic32mx/4.8.3/../../../../pic32mx/lib/libpic32.a(vector30.o)
 .data          0x00000000        0x0 /opt/microchip/xc32/v1.43/bin/bin/../../lib/gcc/pic32mx/4.8.3/../../../../pic32mx/lib/libpic32.a(vector30.o)
 .bss           0x00000000        0x0 /opt/microchip/xc32/v1.43/bin/bin/../../lib/gcc/pic32mx/4.8.3/../../../../pic32mx/lib/libpic32.a(vector30.o)
 .reginfo       0x00000000       0x18 /opt/microchip/xc32/v1.43/bin/bin/../../lib/gcc/pic32mx/4.8.3/../../../../pic32mx/lib/libpic32.a(vector30.o)
 .text          0x00000000        0x0 /opt/microchip/xc32/v1.43/bin/bin/../../lib/gcc/pic32mx/4.8.3/../../../../pic32mx/lib/libpic32.a(vector31.o)
 .data          0x00000000        0x0 /opt/microchip/xc32/v1.43/bin/bin/../../lib/gcc/pic32mx/4.8.3/../../../../pic32mx/lib/libpic32.a(vector31.o)
 .bss           0x00000000        0x0 /opt/microchip/xc32/v1.43/bin/bin/../../lib/gcc/pic32mx/4.8.3/../../../../pic32mx/lib/libpic32.a(vector31.o)
 .reginfo       0x00000000       0x18 /opt/microchip/xc32/v1.43/bin/bin/../../lib/gcc/pic32mx/4.8.3/../../../../pic32mx/lib/libpic32.a(vector31.o)
 .text          0x00000000        0x0 /opt/microchip/xc32/v1.43/bin/bin/../../lib/gcc/pic32mx/4.8.3/../../../../pic32mx/lib/libpic32.a(vector32.o)
 .data          0x00000000        0x0 /opt/microchip/xc32/v1.43/bin/bin/../../lib/gcc/pic32mx/4.8.3/../../../../pic32mx/lib/libpic32.a(vector32.o)
 .bss           0x00000000        0x0 /opt/microchip/xc32/v1.43/bin/bin/../../lib/gcc/pic32mx/4.8.3/../../../../pic32mx/lib/libpic32.a(vector32.o)
 .reginfo       0x00000000       0x18 /opt/microchip/xc32/v1.43/bin/bin/../../lib/gcc/pic32mx/4.8.3/../../../../pic32mx/lib/libpic32.a(vector32.o)
 .text          0x00000000        0x0 /opt/microchip/xc32/v1.43/bin/bin/../../lib/gcc/pic32mx/4.8.3/../../../../pic32mx/lib/libpic32.a(vector33.o)
 .data          0x00000000        0x0 /opt/microchip/xc32/v1.43/bin/bin/../../lib/gcc/pic32mx/4.8.3/../../../../pic32mx/lib/libpic32.a(vector33.o)
 .bss           0x00000000        0x0 /opt/microchip/xc32/v1.43/bin/bin/../../lib/gcc/pic32mx/4.8.3/../../../../pic32mx/lib/libpic32.a(vector33.o)
 .reginfo       0x00000000       0x18 /opt/microchip/xc32/v1.43/bin/bin/../../lib/gcc/pic32mx/4.8.3/../../../../pic32mx/lib/libpic32.a(vector33.o)
 .text          0x00000000        0x0 /opt/microchip/xc32/v1.43/bin/bin/../../lib/gcc/pic32mx/4.8.3/../../../../pic32mx/lib/libpic32.a(vector34.o)
 .data          0x00000000        0x0 /opt/microchip/xc32/v1.43/bin/bin/../../lib/gcc/pic32mx/4.8.3/../../../../pic32mx/lib/libpic32.a(vector34.o)
 .bss           0x00000000        0x0 /opt/microchip/xc32/v1.43/bin/bin/../../lib/gcc/pic32mx/4.8.3/../../../../pic32mx/lib/libpic32.a(vector34.o)
 .reginfo       0x00000000       0x18 /opt/microchip/xc32/v1.43/bin/bin/../../lib/gcc/pic32mx/4.8.3/../../../../pic32mx/lib/libpic32.a(vector34.o)
 .text          0x00000000        0x0 /opt/microchip/xc32/v1.43/bin/bin/../../lib/gcc/pic32mx/4.8.3/../../../../pic32mx/lib/libpic32.a(vector35.o)
 .data          0x00000000        0x0 /opt/microchip/xc32/v1.43/bin/bin/../../lib/gcc/pic32mx/4.8.3/../../../../pic32mx/lib/libpic32.a(vector35.o)
 .bss           0x00000000        0x0 /opt/microchip/xc32/v1.43/bin/bin/../../lib/gcc/pic32mx/4.8.3/../../../../pic32mx/lib/libpic32.a(vector35.o)
 .reginfo       0x00000000       0x18 /opt/microchip/xc32/v1.43/bin/bin/../../lib/gcc/pic32mx/4.8.3/../../../../pic32mx/lib/libpic32.a(vector35.o)
 .text          0x00000000        0x0 /opt/microchip/xc32/v1.43/bin/bin/../../lib/gcc/pic32mx/4.8.3/../../../../pic32mx/lib/libpic32.a(vector36.o)
 .data          0x00000000        0x0 /opt/microchip/xc32/v1.43/bin/bin/../../lib/gcc/pic32mx/4.8.3/../../../../pic32mx/lib/libpic32.a(vector36.o)
 .bss           0x00000000        0x0 /opt/microchip/xc32/v1.43/bin/bin/../../lib/gcc/pic32mx/4.8.3/../../../../pic32mx/lib/libpic32.a(vector36.o)
 .reginfo       0x00000000       0x18 /opt/microchip/xc32/v1.43/bin/bin/../../lib/gcc/pic32mx/4.8.3/../../../../pic32mx/lib/libpic32.a(vector36.o)
 .text          0x00000000        0x0 /opt/microchip/xc32/v1.43/bin/bin/../../lib/gcc/pic32mx/4.8.3/../../../../pic32mx/lib/libpic32.a(vector37.o)
 .data          0x00000000        0x0 /opt/microchip/xc32/v1.43/bin/bin/../../lib/gcc/pic32mx/4.8.3/../../../../pic32mx/lib/libpic32.a(vector37.o)
 .bss           0x00000000        0x0 /opt/microchip/xc32/v1.43/bin/bin/../../lib/gcc/pic32mx/4.8.3/../../../../pic32mx/lib/libpic32.a(vector37.o)
 .reginfo       0x00000000       0x18 /opt/microchip/xc32/v1.43/bin/bin/../../lib/gcc/pic32mx/4.8.3/../../../../pic32mx/lib/libpic32.a(vector37.o)
 .text          0x00000000        0x0 /opt/microchip/xc32/v1.43/bin/bin/../../lib/gcc/pic32mx/4.8.3/../../../../pic32mx/lib/libpic32.a(vector38.o)
 .data          0x00000000        0x0 /opt/microchip/xc32/v1.43/bin/bin/../../lib/gcc/pic32mx/4.8.3/../../../../pic32mx/lib/libpic32.a(vector38.o)
 .bss           0x00000000        0x0 /opt/microchip/xc32/v1.43/bin/bin/../../lib/gcc/pic32mx/4.8.3/../../../../pic32mx/lib/libpic32.a(vector38.o)
 .reginfo       0x00000000       0x18 /opt/microchip/xc32/v1.43/bin/bin/../../lib/gcc/pic32mx/4.8.3/../../../../pic32mx/lib/libpic32.a(vector38.o)
 .text          0x00000000        0x0 /opt/microchip/xc32/v1.43/bin/bin/../../lib/gcc/pic32mx/4.8.3/../../../../pic32mx/lib/libpic32.a(vector39.o)
 .data          0x00000000        0x0 /opt/microchip/xc32/v1.43/bin/bin/../../lib/gcc/pic32mx/4.8.3/../../../../pic32mx/lib/libpic32.a(vector39.o)
 .bss           0x00000000        0x0 /opt/microchip/xc32/v1.43/bin/bin/../../lib/gcc/pic32mx/4.8.3/../../../../pic32mx/lib/libpic32.a(vector39.o)
 .reginfo       0x00000000       0x18 /opt/microchip/xc32/v1.43/bin/bin/../../lib/gcc/pic32mx/4.8.3/../../../../pic32mx/lib/libpic32.a(vector39.o)
 .text          0x00000000        0x0 /opt/microchip/xc32/v1.43/bin/bin/../../lib/gcc/pic32mx/4.8.3/../../../../pic32mx/lib/libpic32.a(vector40.o)
 .data          0x00000000        0x0 /opt/microchip/xc32/v1.43/bin/bin/../../lib/gcc/pic32mx/4.8.3/../../../../pic32mx/lib/libpic32.a(vector40.o)
 .bss           0x00000000        0x0 /opt/microchip/xc32/v1.43/bin/bin/../../lib/gcc/pic32mx/4.8.3/../../../../pic32mx/lib/libpic32.a(vector40.o)
 .reginfo       0x00000000       0x18 /opt/microchip/xc32/v1.43/bin/bin/../../lib/gcc/pic32mx/4.8.3/../../../../pic32mx/lib/libpic32.a(vector40.o)
 .text          0x00000000        0x0 /opt/microchip/xc32/v1.43/bin/bin/../../lib/gcc/pic32mx/4.8.3/../../../../pic32mx/lib/libpic32.a(vector41.o)
 .data          0x00000000        0x0 /opt/microchip/xc32/v1.43/bin/bin/../../lib/gcc/pic32mx/4.8.3/../../../../pic32mx/lib/libpic32.a(vector41.o)
 .bss           0x00000000        0x0 /opt/microchip/xc32/v1.43/bin/bin/../../lib/gcc/pic32mx/4.8.3/../../../../pic32mx/lib/libpic32.a(vector41.o)
 .reginfo       0x00000000       0x18 /opt/microchip/xc32/v1.43/bin/bin/../../lib/gcc/pic32mx/4.8.3/../../../../pic32mx/lib/libpic32.a(vector41.o)
 .text          0x00000000        0x0 /opt/microchip/xc32/v1.43/bin/bin/../../lib/gcc/pic32mx/4.8.3/../../../../pic32mx/lib/libpic32.a(vector42.o)
 .data          0x00000000        0x0 /opt/microchip/xc32/v1.43/bin/bin/../../lib/gcc/pic32mx/4.8.3/../../../../pic32mx/lib/libpic32.a(vector42.o)
 .bss           0x00000000        0x0 /opt/microchip/xc32/v1.43/bin/bin/../../lib/gcc/pic32mx/4.8.3/../../../../pic32mx/lib/libpic32.a(vector42.o)
 .reginfo       0x00000000       0x18 /opt/microchip/xc32/v1.43/bin/bin/../../lib/gcc/pic32mx/4.8.3/../../../../pic32mx/lib/libpic32.a(vector42.o)
 .text          0x00000000        0x0 /opt/microchip/xc32/v1.43/bin/bin/../../lib/gcc/pic32mx/4.8.3/../../../../pic32mx/lib/libpic32.a(vector43.o)
 .data          0x00000000        0x0 /opt/microchip/xc32/v1.43/bin/bin/../../lib/gcc/pic32mx/4.8.3/../../../../pic32mx/lib/libpic32.a(vector43.o)
 .bss           0x00000000        0x0 /opt/microchip/xc32/v1.43/bin/bin/../../lib/gcc/pic32mx/4.8.3/../../../../pic32mx/lib/libpic32.a(vector43.o)
 .reginfo       0x00000000       0x18 /opt/microchip/xc32/v1.43/bin/bin/../../lib/gcc/pic32mx/4.8.3/../../../../pic32mx/lib/libpic32.a(vector43.o)
 .text          0x00000000        0x0 /opt/microchip/xc32/v1.43/bin/bin/../../lib/gcc/pic32mx/4.8.3/../../../../pic32mx/lib/libpic32.a(vector44.o)
 .data          0x00000000        0x0 /opt/microchip/xc32/v1.43/bin/bin/../../lib/gcc/pic32mx/4.8.3/../../../../pic32mx/lib/libpic32.a(vector44.o)
 .bss           0x00000000        0x0 /opt/microchip/xc32/v1.43/bin/bin/../../lib/gcc/pic32mx/4.8.3/../../../../pic32mx/lib/libpic32.a(vector44.o)
 .reginfo       0x00000000       0x18 /opt/microchip/xc32/v1.43/bin/bin/../../lib/gcc/pic32mx/4.8.3/../../../../pic32mx/lib/libpic32.a(vector44.o)
 .text          0x00000000        0x0 /opt/microchip/xc32/v1.43/bin/bin/../../lib/gcc/pic32mx/4.8.3/../../../../pic32mx/lib/libpic32.a(vector45.o)
 .data          0x00000000        0x0 /opt/microchip/xc32/v1.43/bin/bin/../../lib/gcc/pic32mx/4.8.3/../../../../pic32mx/lib/libpic32.a(vector45.o)
 .bss           0x00000000        0x0 /opt/microchip/xc32/v1.43/bin/bin/../../lib/gcc/pic32mx/4.8.3/../../../../pic32mx/lib/libpic32.a(vector45.o)
 .reginfo       0x00000000       0x18 /opt/microchip/xc32/v1.43/bin/bin/../../lib/gcc/pic32mx/4.8.3/../../../../pic32mx/lib/libpic32.a(vector45.o)
 .text          0x00000000        0x0 /opt/microchip/xc32/v1.43/bin/bin/../../lib/gcc/pic32mx/4.8.3/../../../../pic32mx/lib/libpic32.a(vector46.o)
 .data          0x00000000        0x0 /opt/microchip/xc32/v1.43/bin/bin/../../lib/gcc/pic32mx/4.8.3/../../../../pic32mx/lib/libpic32.a(vector46.o)
 .bss           0x00000000        0x0 /opt/microchip/xc32/v1.43/bin/bin/../../lib/gcc/pic32mx/4.8.3/../../../../pic32mx/lib/libpic32.a(vector46.o)
 .reginfo       0x00000000       0x18 /opt/microchip/xc32/v1.43/bin/bin/../../lib/gcc/pic32mx/4.8.3/../../../../pic32mx/lib/libpic32.a(vector46.o)
 .text          0x00000000        0x0 /opt/microchip/xc32/v1.43/bin/bin/../../lib/gcc/pic32mx/4.8.3/../../../../pic32mx/lib/libpic32.a(vector47.o)
 .data          0x00000000        0x0 /opt/microchip/xc32/v1.43/bin/bin/../../lib/gcc/pic32mx/4.8.3/../../../../pic32mx/lib/libpic32.a(vector47.o)
 .bss           0x00000000        0x0 /opt/microchip/xc32/v1.43/bin/bin/../../lib/gcc/pic32mx/4.8.3/../../../../pic32mx/lib/libpic32.a(vector47.o)
 .reginfo       0x00000000       0x18 /opt/microchip/xc32/v1.43/bin/bin/../../lib/gcc/pic32mx/4.8.3/../../../../pic32mx/lib/libpic32.a(vector47.o)
 .text          0x00000000        0x0 /opt/microchip/xc32/v1.43/bin/bin/../../lib/gcc/pic32mx/4.8.3/../../../../pic32mx/lib/libpic32.a(vector49.o)
 .data          0x00000000        0x0 /opt/microchip/xc32/v1.43/bin/bin/../../lib/gcc/pic32mx/4.8.3/../../../../pic32mx/lib/libpic32.a(vector49.o)
 .bss           0x00000000        0x0 /opt/microchip/xc32/v1.43/bin/bin/../../lib/gcc/pic32mx/4.8.3/../../../../pic32mx/lib/libpic32.a(vector49.o)
 .reginfo       0x00000000       0x18 /opt/microchip/xc32/v1.43/bin/bin/../../lib/gcc/pic32mx/4.8.3/../../../../pic32mx/lib/libpic32.a(vector49.o)
 .text          0x00000000        0x0 /opt/microchip/xc32/v1.43/bin/bin/../../lib/gcc/pic32mx/4.8.3/../../../../pic32mx/lib/libpic32.a(vector50.o)
 .data          0x00000000        0x0 /opt/microchip/xc32/v1.43/bin/bin/../../lib/gcc/pic32mx/4.8.3/../../../../pic32mx/lib/libpic32.a(vector50.o)
 .bss           0x00000000        0x0 /opt/microchip/xc32/v1.43/bin/bin/../../lib/gcc/pic32mx/4.8.3/../../../../pic32mx/lib/libpic32.a(vector50.o)
 .reginfo       0x00000000       0x18 /opt/microchip/xc32/v1.43/bin/bin/../../lib/gcc/pic32mx/4.8.3/../../../../pic32mx/lib/libpic32.a(vector50.o)
 .text          0x00000000        0x0 /opt/microchip/xc32/v1.43/bin/bin/../../lib/gcc/pic32mx/4.8.3/../../../../pic32mx/lib/libpic32.a(vector51.o)
 .data          0x00000000        0x0 /opt/microchip/xc32/v1.43/bin/bin/../../lib/gcc/pic32mx/4.8.3/../../../../pic32mx/lib/libpic32.a(vector51.o)
 .bss           0x00000000        0x0 /opt/microchip/xc32/v1.43/bin/bin/../../lib/gcc/pic32mx/4.8.3/../../../../pic32mx/lib/libpic32.a(vector51.o)
 .reginfo       0x00000000       0x18 /opt/microchip/xc32/v1.43/bin/bin/../../lib/gcc/pic32mx/4.8.3/../../../../pic32mx/lib/libpic32.a(vector51.o)
 .text          0x00000000        0x0 /opt/microchip/xc32/v1.43/bin/bin/../../lib/gcc/pic32mx/4.8.3/../../../../pic32mx/lib/libpic32.a(defaultinterrupt.o)
 .data          0x00000000        0x0 /opt/microchip/xc32/v1.43/bin/bin/../../lib/gcc/pic32mx/4.8.3/../../../../pic32mx/lib/libpic32.a(defaultinterrupt.o)
 .bss           0x00000000        0x0 /opt/microchip/xc32/v1.43/bin/bin/../../lib/gcc/pic32mx/4.8.3/../../../../pic32mx/lib/libpic32.a(defaultinterrupt.o)
 .reginfo       0x00000000       0x18 /opt/microchip/xc32/v1.43/bin/bin/../../lib/gcc/pic32mx/4.8.3/../../../../pic32mx/lib/libpic32.a(defaultinterrupt.o)
 .text          0x00000000        0x0 /opt/microchip/xc32/v1.43/bin/bin/../../lib/gcc/pic32mx/4.8.3/../../../../pic32mx/lib/libc.a(calloc.o)
 .data          0x00000000        0x0 /opt/microchip/xc32/v1.43/bin/bin/../../lib/gcc/pic32mx/4.8.3/../../../../pic32mx/lib/libc.a(calloc.o)
 .bss           0x00000000        0x0 /opt/microchip/xc32/v1.43/bin/bin/../../lib/gcc/pic32mx/4.8.3/../../../../pic32mx/lib/libc.a(calloc.o)
 .reginfo       0x00000000       0x18 /opt/microchip/xc32/v1.43/bin/bin/../../lib/gcc/pic32mx/4.8.3/../../../../pic32mx/lib/libc.a(calloc.o)
 .text          0x00000000        0x0 /opt/microchip/xc32/v1.43/bin/bin/../../lib/gcc/pic32mx/4.8.3/../../../../pic32mx/lib/libc.a(ctime.o)
 .data          0x00000000        0x0 /opt/microchip/xc32/v1.43/bin/bin/../../lib/gcc/pic32mx/4.8.3/../../../../pic32mx/lib/libc.a(ctime.o)
 .bss           0x00000000       0x48 /opt/microchip/xc32/v1.43/bin/bin/../../lib/gcc/pic32mx/4.8.3/../../../../pic32mx/lib/libc.a(ctime.o)
 .reginfo       0x00000000       0x18 /opt/microchip/xc32/v1.43/bin/bin/../../lib/gcc/pic32mx/4.8.3/../../../../pic32mx/lib/libc.a(ctime.o)
 .text.dylen.part.0
                0x00000000       0x68 /opt/microchip/xc32/v1.43/bin/bin/../../lib/gcc/pic32mx/4.8.3/../../../../pic32mx/lib/libc.a(ctime.o)
 .text.gmtime   0x00000000      0x1a4 /opt/microchip/xc32/v1.43/bin/bin/../../lib/gcc/pic32mx/4.8.3/../../../../pic32mx/lib/libc.a(ctime.o)
 .text.localtime
                0x00000000       0x3c /opt/microchip/xc32/v1.43/bin/bin/../../lib/gcc/pic32mx/4.8.3/../../../../pic32mx/lib/libc.a(ctime.o)
 .rodata        0x00000000       0x4c /opt/microchip/xc32/v1.43/bin/bin/../../lib/gcc/pic32mx/4.8.3/../../../../pic32mx/lib/libc.a(ctime.o)
 .text.asctime  0x00000000      0x2e4 /opt/microchip/xc32/v1.43/bin/bin/../../lib/gcc/pic32mx/4.8.3/../../../../pic32mx/lib/libc.a(ctime.o)
 .text.ctime    0x00000000       0x44 /opt/microchip/xc32/v1.43/bin/bin/../../lib/gcc/pic32mx/4.8.3/../../../../pic32mx/lib/libc.a(ctime.o)
 .text          0x00000000        0x0 /opt/microchip/xc32/v1.43/bin/bin/../../lib/gcc/pic32mx/4.8.3/../../../../pic32mx/lib/libc.a(ctype.o)
 .data          0x00000000        0x0 /opt/microchip/xc32/v1.43/bin/bin/../../lib/gcc/pic32mx/4.8.3/../../../../pic32mx/lib/libc.a(ctype.o)
 .bss           0x00000000        0x0 /opt/microchip/xc32/v1.43/bin/bin/../../lib/gcc/pic32mx/4.8.3/../../../../pic32mx/lib/libc.a(ctype.o)
 .reginfo       0x00000000       0x18 /opt/microchip/xc32/v1.43/bin/bin/../../lib/gcc/pic32mx/4.8.3/../../../../pic32mx/lib/libc.a(ctype.o)
 .text          0x00000000        0x0 /opt/microchip/xc32/v1.43/bin/bin/../../lib/gcc/pic32mx/4.8.3/../../../../pic32mx/lib/libc.a(ctypef.o)
 .data          0x00000000        0x0 /opt/microchip/xc32/v1.43/bin/bin/../../lib/gcc/pic32mx/4.8.3/../../../../pic32mx/lib/libc.a(ctypef.o)
 .bss           0x00000000        0x0 /opt/microchip/xc32/v1.43/bin/bin/../../lib/gcc/pic32mx/4.8.3/../../../../pic32mx/lib/libc.a(ctypef.o)
 .reginfo       0x00000000       0x18 /opt/microchip/xc32/v1.43/bin/bin/../../lib/gcc/pic32mx/4.8.3/../../../../pic32mx/lib/libc.a(ctypef.o)
 .text.tolower  0x00000000       0x24 /opt/microchip/xc32/v1.43/bin/bin/../../lib/gcc/pic32mx/4.8.3/../../../../pic32mx/lib/libc.a(ctypef.o)
 .text.isalnum  0x00000000       0x18 /opt/microchip/xc32/v1.43/bin/bin/../../lib/gcc/pic32mx/4.8.3/../../../../pic32mx/lib/libc.a(ctypef.o)
 .text.isalpha  0x00000000       0x18 /opt/microchip/xc32/v1.43/bin/bin/../../lib/gcc/pic32mx/4.8.3/../../../../pic32mx/lib/libc.a(ctypef.o)
 .text.isascii  0x00000000        0x8 /opt/microchip/xc32/v1.43/bin/bin/../../lib/gcc/pic32mx/4.8.3/../../../../pic32mx/lib/libc.a(ctypef.o)
 .text.iscntrl  0x00000000       0x18 /opt/microchip/xc32/v1.43/bin/bin/../../lib/gcc/pic32mx/4.8.3/../../../../pic32mx/lib/libc.a(ctypef.o)
 .text.isdigit  0x00000000       0x18 /opt/microchip/xc32/v1.43/bin/bin/../../lib/gcc/pic32mx/4.8.3/../../../../pic32mx/lib/libc.a(ctypef.o)
 .text.isgraph  0x00000000       0x18 /opt/microchip/xc32/v1.43/bin/bin/../../lib/gcc/pic32mx/4.8.3/../../../../pic32mx/lib/libc.a(ctypef.o)
 .text.islower  0x00000000       0x18 /opt/microchip/xc32/v1.43/bin/bin/../../lib/gcc/pic32mx/4.8.3/../../../../pic32mx/lib/libc.a(ctypef.o)
 .text.isprint  0x00000000       0x18 /opt/microchip/xc32/v1.43/bin/bin/../../lib/gcc/pic32mx/4.8.3/../../../../pic32mx/lib/libc.a(ctypef.o)
 .text.ispunct  0x00000000       0x18 /opt/microchip/xc32/v1.43/bin/bin/../../lib/gcc/pic32mx/4.8.3/../../../../pic32mx/lib/libc.a(ctypef.o)
 .text.isspace  0x00000000       0x18 /opt/microchip/xc32/v1.43/bin/bin/../../lib/gcc/pic32mx/4.8.3/../../../../pic32mx/lib/libc.a(ctypef.o)
 .text.isupper  0x00000000       0x18 /opt/microchip/xc32/v1.43/bin/bin/../../lib/gcc/pic32mx/4.8.3/../../../../pic32mx/lib/libc.a(ctypef.o)
 .text.isxdigit
                0x00000000       0x18 /opt/microchip/xc32/v1.43/bin/bin/../../lib/gcc/pic32mx/4.8.3/../../../../pic32mx/lib/libc.a(ctypef.o)
 .text.toascii  0x00000000        0x8 /opt/microchip/xc32/v1.43/bin/bin/../../lib/gcc/pic32mx/4.8.3/../../../../pic32mx/lib/libc.a(ctypef.o)
 .text._tolower
                0x00000000        0x8 /opt/microchip/xc32/v1.43/bin/bin/../../lib/gcc/pic32mx/4.8.3/../../../../pic32mx/lib/libc.a(ctypef.o)
 .text._toupper
                0x00000000        0x8 /opt/microchip/xc32/v1.43/bin/bin/../../lib/gcc/pic32mx/4.8.3/../../../../pic32mx/lib/libc.a(ctypef.o)
 .text          0x00000000        0x0 /opt/microchip/xc32/v1.43/bin/bin/../../lib/gcc/pic32mx/4.8.3/../../../../pic32mx/lib/libc.a(malloc.o)
 .data          0x00000000        0x0 /opt/microchip/xc32/v1.43/bin/bin/../../lib/gcc/pic32mx/4.8.3/../../../../pic32mx/lib/libc.a(malloc.o)
 .reginfo       0x00000000       0x18 /opt/microchip/xc32/v1.43/bin/bin/../../lib/gcc/pic32mx/4.8.3/../../../../pic32mx/lib/libc.a(malloc.o)
 .text.realloc  0x00000000      0x148 /opt/microchip/xc32/v1.43/bin/bin/../../lib/gcc/pic32mx/4.8.3/../../../../pic32mx/lib/libc.a(malloc.o)
 .text          0x00000000        0x0 /opt/microchip/xc32/v1.43/bin/bin/../../lib/gcc/pic32mx/4.8.3/../../../../pic32mx/lib/libc.a(memmove.o)
 .data          0x00000000        0x0 /opt/microchip/xc32/v1.43/bin/bin/../../lib/gcc/pic32mx/4.8.3/../../../../pic32mx/lib/libc.a(memmove.o)
 .bss           0x00000000        0x0 /opt/microchip/xc32/v1.43/bin/bin/../../lib/gcc/pic32mx/4.8.3/../../../../pic32mx/lib/libc.a(memmove.o)
 .reginfo       0x00000000       0x18 /opt/microchip/xc32/v1.43/bin/bin/../../lib/gcc/pic32mx/4.8.3/../../../../pic32mx/lib/libc.a(memmove.o)
 .text          0x00000000        0x0 /opt/microchip/xc32/v1.43/bin/bin/../../lib/gcc/pic32mx/4.8.3/../../../../pic32mx/lib/libc.a(rand.o)
 .data          0x00000000        0x0 /opt/microchip/xc32/v1.43/bin/bin/../../lib/gcc/pic32mx/4.8.3/../../../../pic32mx/lib/libc.a(rand.o)
 .reginfo       0x00000000       0x18 /opt/microchip/xc32/v1.43/bin/bin/../../lib/gcc/pic32mx/4.8.3/../../../../pic32mx/lib/libc.a(rand.o)
 .text          0x00000000        0x0 /opt/microchip/xc32/v1.43/bin/bin/../../lib/gcc/pic32mx/4.8.3/../../../../pic32mx/lib/libc.a(strncmp.o)
 .data          0x00000000        0x0 /opt/microchip/xc32/v1.43/bin/bin/../../lib/gcc/pic32mx/4.8.3/../../../../pic32mx/lib/libc.a(strncmp.o)
 .bss           0x00000000        0x0 /opt/microchip/xc32/v1.43/bin/bin/../../lib/gcc/pic32mx/4.8.3/../../../../pic32mx/lib/libc.a(strncmp.o)
 .reginfo       0x00000000       0x18 /opt/microchip/xc32/v1.43/bin/bin/../../lib/gcc/pic32mx/4.8.3/../../../../pic32mx/lib/libc.a(strncmp.o)
 .text.strncmp  0x00000000       0x70 /opt/microchip/xc32/v1.43/bin/bin/../../lib/gcc/pic32mx/4.8.3/../../../../pic32mx/lib/libc.a(strncmp.o)
 .text          0x00000000        0x0 /opt/microchip/xc32/v1.43/bin/bin/../../lib/gcc/pic32mx/4.8.3/../../../../pic32mx/lib/libc.a(strncpy.o)
 .data          0x00000000        0x0 /opt/microchip/xc32/v1.43/bin/bin/../../lib/gcc/pic32mx/4.8.3/../../../../pic32mx/lib/libc.a(strncpy.o)
 .bss           0x00000000        0x0 /opt/microchip/xc32/v1.43/bin/bin/../../lib/gcc/pic32mx/4.8.3/../../../../pic32mx/lib/libc.a(strncpy.o)
 .reginfo       0x00000000       0x18 /opt/microchip/xc32/v1.43/bin/bin/../../lib/gcc/pic32mx/4.8.3/../../../../pic32mx/lib/libc.a(strncpy.o)
 .text          0x00000000        0x0 /opt/microchip/xc32/v1.43/bin/bin/../../lib/gcc/pic32mx/4.8.3/../../../../pic32mx/lib/libc.a(strtol.o)
 .data          0x00000000        0x0 /opt/microchip/xc32/v1.43/bin/bin/../../lib/gcc/pic32mx/4.8.3/../../../../pic32mx/lib/libc.a(strtol.o)
 .bss           0x00000000        0x0 /opt/microchip/xc32/v1.43/bin/bin/../../lib/gcc/pic32mx/4.8.3/../../../../pic32mx/lib/libc.a(strtol.o)
 .reginfo       0x00000000       0x18 /opt/microchip/xc32/v1.43/bin/bin/../../lib/gcc/pic32mx/4.8.3/../../../../pic32mx/lib/libc.a(strtol.o)
 .text          0x00000000        0x0 /opt/microchip/xc32/v1.43/bin/bin/../../lib/gcc/pic32mx/4.8.3/../../../../pic32mx/lib/libc.a(time.o)
 .data          0x00000000        0x0 /opt/microchip/xc32/v1.43/bin/bin/../../lib/gcc/pic32mx/4.8.3/../../../../pic32mx/lib/libc.a(time.o)
 .bss           0x00000000        0x0 /opt/microchip/xc32/v1.43/bin/bin/../../lib/gcc/pic32mx/4.8.3/../../../../pic32mx/lib/libc.a(time.o)
 .reginfo       0x00000000       0x18 /opt/microchip/xc32/v1.43/bin/bin/../../lib/gcc/pic32mx/4.8.3/../../../../pic32mx/lib/libc.a(time.o)
 .text.time     0x00000000        0x8 /opt/microchip/xc32/v1.43/bin/bin/../../lib/gcc/pic32mx/4.8.3/../../../../pic32mx/lib/libc.a(time.o)
 .gnu.warning.time
                0x00000000        0x0 /opt/microchip/xc32/v1.43/bin/bin/../../lib/gcc/pic32mx/4.8.3/../../../../pic32mx/lib/libc.a(time.o)
 .text          0x00000000        0x0 /opt/microchip/xc32/v1.43/bin/bin/../../lib/gcc/pic32mx/4.8.3/../../../../pic32mx/lib/libc.a(exit.o)
 .data          0x00000000        0x0 /opt/microchip/xc32/v1.43/bin/bin/../../lib/gcc/pic32mx/4.8.3/../../../../pic32mx/lib/libc.a(exit.o)
 .bss           0x00000000        0x0 /opt/microchip/xc32/v1.43/bin/bin/../../lib/gcc/pic32mx/4.8.3/../../../../pic32mx/lib/libc.a(exit.o)
 .reginfo       0x00000000       0x18 /opt/microchip/xc32/v1.43/bin/bin/../../lib/gcc/pic32mx/4.8.3/../../../../pic32mx/lib/libc.a(exit.o)
 .text          0x00000000        0x0 /opt/microchip/xc32/v1.43/bin/bin/../../lib/gcc/pic32mx/4.8.3/../../../../pic32mx/lib/libc.a(stdclean_simple.o)
 .data          0x00000000        0x0 /opt/microchip/xc32/v1.43/bin/bin/../../lib/gcc/pic32mx/4.8.3/../../../../pic32mx/lib/libc.a(stdclean_simple.o)
 .bss           0x00000000        0x0 /opt/microchip/xc32/v1.43/bin/bin/../../lib/gcc/pic32mx/4.8.3/../../../../pic32mx/lib/libc.a(stdclean_simple.o)
 .reginfo       0x00000000       0x18 /opt/microchip/xc32/v1.43/bin/bin/../../lib/gcc/pic32mx/4.8.3/../../../../pic32mx/lib/libc.a(stdclean_simple.o)
 .text          0x00000000        0x0 /opt/microchip/xc32/v1.43/bin/bin/../../lib/gcc/pic32mx/4.8.3/../../../../pic32mx/lib/libc.a(sprintf_cdnopsuxX.eo)
 .data          0x00000000        0x0 /opt/microchip/xc32/v1.43/bin/bin/../../lib/gcc/pic32mx/4.8.3/../../../../pic32mx/lib/libc.a(sprintf_cdnopsuxX.eo)
 .bss           0x00000000        0x0 /opt/microchip/xc32/v1.43/bin/bin/../../lib/gcc/pic32mx/4.8.3/../../../../pic32mx/lib/libc.a(sprintf_cdnopsuxX.eo)
 .reginfo       0x00000000       0x18 /opt/microchip/xc32/v1.43/bin/bin/../../lib/gcc/pic32mx/4.8.3/../../../../pic32mx/lib/libc.a(sprintf_cdnopsuxX.eo)
 .text          0x00000000        0x0 /opt/microchip/xc32/v1.43/bin/bin/../../lib/gcc/pic32mx/4.8.3/../../../../pic32mx/lib/libc.a(vsnprintf.o)
 .data          0x00000000        0x0 /opt/microchip/xc32/v1.43/bin/bin/../../lib/gcc/pic32mx/4.8.3/../../../../pic32mx/lib/libc.a(vsnprintf.o)
 .bss           0x00000000        0x0 /opt/microchip/xc32/v1.43/bin/bin/../../lib/gcc/pic32mx/4.8.3/../../../../pic32mx/lib/libc.a(vsnprintf.o)
 .reginfo       0x00000000       0x18 /opt/microchip/xc32/v1.43/bin/bin/../../lib/gcc/pic32mx/4.8.3/../../../../pic32mx/lib/libc.a(vsnprintf.o)
 .text          0x00000000        0x0 /opt/microchip/xc32/v1.43/bin/bin/../../lib/gcc/pic32mx/4.8.3/../../../../pic32mx/lib/libc.a(errno.o)
 .data          0x00000000        0x0 /opt/microchip/xc32/v1.43/bin/bin/../../lib/gcc/pic32mx/4.8.3/../../../../pic32mx/lib/libc.a(errno.o)
 .bss           0x00000000        0x0 /opt/microchip/xc32/v1.43/bin/bin/../../lib/gcc/pic32mx/4.8.3/../../../../pic32mx/lib/libc.a(errno.o)
 .reginfo       0x00000000       0x18 /opt/microchip/xc32/v1.43/bin/bin/../../lib/gcc/pic32mx/4.8.3/../../../../pic32mx/lib/libc.a(errno.o)
 .text          0x00000000        0x0 /opt/microchip/xc32/v1.43/bin/bin/../../lib/gcc/pic32mx/4.8.3/../../../../pic32mx/lib/libc.a(doprnt_cdnopsuxX.eo)
 .data          0x00000000        0x0 /opt/microchip/xc32/v1.43/bin/bin/../../lib/gcc/pic32mx/4.8.3/../../../../pic32mx/lib/libc.a(doprnt_cdnopsuxX.eo)
 .bss           0x00000000        0x0 /opt/microchip/xc32/v1.43/bin/bin/../../lib/gcc/pic32mx/4.8.3/../../../../pic32mx/lib/libc.a(doprnt_cdnopsuxX.eo)
 .reginfo       0x00000000       0x18 /opt/microchip/xc32/v1.43/bin/bin/../../lib/gcc/pic32mx/4.8.3/../../../../pic32mx/lib/libc.a(doprnt_cdnopsuxX.eo)
 .text          0x00000000        0x0 /opt/microchip/xc32/v1.43/bin/bin/../../lib/gcc/pic32mx/4.8.3/../../../../pic32mx/lib/libc.a(doprnt.o)
 .data          0x00000000        0x0 /opt/microchip/xc32/v1.43/bin/bin/../../lib/gcc/pic32mx/4.8.3/../../../../pic32mx/lib/libc.a(doprnt.o)
 .bss           0x00000000        0x0 /opt/microchip/xc32/v1.43/bin/bin/../../lib/gcc/pic32mx/4.8.3/../../../../pic32mx/lib/libc.a(doprnt.o)
 .reginfo       0x00000000       0x18 /opt/microchip/xc32/v1.43/bin/bin/../../lib/gcc/pic32mx/4.8.3/../../../../pic32mx/lib/libc.a(doprnt.o)
 .text          0x00000000        0x0 /opt/microchip/xc32/v1.43/bin/bin/../../lib/gcc/pic32mx/4.8.3/../../../../pic32mx/lib/libc.a(_fputc_simple.o)
 .data          0x00000000        0x0 /opt/microchip/xc32/v1.43/bin/bin/../../lib/gcc/pic32mx/4.8.3/../../../../pic32mx/lib/libc.a(_fputc_simple.o)
 .bss           0x00000000        0x0 /opt/microchip/xc32/v1.43/bin/bin/../../lib/gcc/pic32mx/4.8.3/../../../../pic32mx/lib/libc.a(_fputc_simple.o)
 .reginfo       0x00000000       0x18 /opt/microchip/xc32/v1.43/bin/bin/../../lib/gcc/pic32mx/4.8.3/../../../../pic32mx/lib/libc.a(_fputc_simple.o)
 .text          0x00000000        0x0 /opt/microchip/xc32/v1.43/bin/bin/../../lib/gcc/pic32mx/4.8.3/../../../../pic32mx/lib/libc.a(ldpowers.o)
 .data          0x00000000        0x0 /opt/microchip/xc32/v1.43/bin/bin/../../lib/gcc/pic32mx/4.8.3/../../../../pic32mx/lib/libc.a(ldpowers.o)
 .bss           0x00000000        0x0 /opt/microchip/xc32/v1.43/bin/bin/../../lib/gcc/pic32mx/4.8.3/../../../../pic32mx/lib/libc.a(ldpowers.o)
 .reginfo       0x00000000       0x18 /opt/microchip/xc32/v1.43/bin/bin/../../lib/gcc/pic32mx/4.8.3/../../../../pic32mx/lib/libc.a(ldpowers.o)
 .text          0x00000000        0x0 /opt/microchip/xc32/v1.43/bin/bin/../../lib/gcc/pic32mx/4.8.3/../../../../pic32mx/lib/libc.a(_iob.o)
 .data          0x00000000       0xa4 /opt/microchip/xc32/v1.43/bin/bin/../../lib/gcc/pic32mx/4.8.3/../../../../pic32mx/lib/libc.a(_iob.o)
 .reginfo       0x00000000       0x18 /opt/microchip/xc32/v1.43/bin/bin/../../lib/gcc/pic32mx/4.8.3/../../../../pic32mx/lib/libc.a(_iob.o)
 .text          0x00000000        0x0 /opt/microchip/xc32/v1.43/bin/bin/../../lib/gcc/pic32mx/4.8.3/../../../../pic32mx/lib/libc.a(_flsbuf_simple.o)
 .data          0x00000000        0x0 /opt/microchip/xc32/v1.43/bin/bin/../../lib/gcc/pic32mx/4.8.3/../../../../pic32mx/lib/libc.a(_flsbuf_simple.o)
 .bss           0x00000000        0x0 /opt/microchip/xc32/v1.43/bin/bin/../../lib/gcc/pic32mx/4.8.3/../../../../pic32mx/lib/libc.a(_flsbuf_simple.o)
 .reginfo       0x00000000       0x18 /opt/microchip/xc32/v1.43/bin/bin/../../lib/gcc/pic32mx/4.8.3/../../../../pic32mx/lib/libc.a(_flsbuf_simple.o)
 .text          0x00000000        0x0 /opt/microchip/xc32/v1.43/bin/bin/../../lib/gcc/pic32mx/4.8.3/../../../../pic32mx/lib/libm.a(dpfrexp.o)
 .data          0x00000000        0x0 /opt/microchip/xc32/v1.43/bin/bin/../../lib/gcc/pic32mx/4.8.3/../../../../pic32mx/lib/libm.a(dpfrexp.o)
 .bss           0x00000000        0x0 /opt/microchip/xc32/v1.43/bin/bin/../../lib/gcc/pic32mx/4.8.3/../../../../pic32mx/lib/libm.a(dpfrexp.o)
 .reginfo       0x00000000       0x18 /opt/microchip/xc32/v1.43/bin/bin/../../lib/gcc/pic32mx/4.8.3/../../../../pic32mx/lib/libm.a(dpfrexp.o)
 .text          0x00000000        0x0 /opt/microchip/xc32/v1.43/bin/bin/../../lib/gcc/pic32mx/4.8.3/../../../../pic32mx/lib/libm.a(dp32div.o)
 .data          0x00000000        0x0 /opt/microchip/xc32/v1.43/bin/bin/../../lib/gcc/pic32mx/4.8.3/../../../../pic32mx/lib/libm.a(dp32div.o)
 .bss           0x00000000        0x0 /opt/microchip/xc32/v1.43/bin/bin/../../lib/gcc/pic32mx/4.8.3/../../../../pic32mx/lib/libm.a(dp32div.o)
 .reginfo       0x00000000       0x18 /opt/microchip/xc32/v1.43/bin/bin/../../lib/gcc/pic32mx/4.8.3/../../../../pic32mx/lib/libm.a(dp32div.o)
 .text          0x00000000        0x0 /opt/microchip/xc32/v1.43/bin/bin/../../lib/gcc/pic32mx/4.8.3/../../../../pic32mx/lib/libm.a(dp32mul.o)
 .data          0x00000000        0x0 /opt/microchip/xc32/v1.43/bin/bin/../../lib/gcc/pic32mx/4.8.3/../../../../pic32mx/lib/libm.a(dp32mul.o)
 .bss           0x00000000        0x0 /opt/microchip/xc32/v1.43/bin/bin/../../lib/gcc/pic32mx/4.8.3/../../../../pic32mx/lib/libm.a(dp32mul.o)
 .reginfo       0x00000000       0x18 /opt/microchip/xc32/v1.43/bin/bin/../../lib/gcc/pic32mx/4.8.3/../../../../pic32mx/lib/libm.a(dp32mul.o)
 .text          0x00000000        0x0 /opt/microchip/xc32/v1.43/bin/bin/../../lib/gcc/pic32mx/4.8.3/../../../../pic32mx/lib/libm.a(dp32subadd.o)
 .data          0x00000000        0x0 /opt/microchip/xc32/v1.43/bin/bin/../../lib/gcc/pic32mx/4.8.3/../../../../pic32mx/lib/libm.a(dp32subadd.o)
 .bss           0x00000000        0x0 /opt/microchip/xc32/v1.43/bin/bin/../../lib/gcc/pic32mx/4.8.3/../../../../pic32mx/lib/libm.a(dp32subadd.o)
 .reginfo       0x00000000       0x18 /opt/microchip/xc32/v1.43/bin/bin/../../lib/gcc/pic32mx/4.8.3/../../../../pic32mx/lib/libm.a(dp32subadd.o)
 .text          0x00000000        0x0 /opt/microchip/xc32/v1.43/bin/bin/../../lib/gcc/pic32mx/4.8.3/../../../../pic32mx/lib/libm.a(dpcmp.o)
 .data          0x00000000        0x0 /opt/microchip/xc32/v1.43/bin/bin/../../lib/gcc/pic32mx/4.8.3/../../../../pic32mx/lib/libm.a(dpcmp.o)
 .bss           0x00000000        0x0 /opt/microchip/xc32/v1.43/bin/bin/../../lib/gcc/pic32mx/4.8.3/../../../../pic32mx/lib/libm.a(dpcmp.o)
 .reginfo       0x00000000       0x18 /opt/microchip/xc32/v1.43/bin/bin/../../lib/gcc/pic32mx/4.8.3/../../../../pic32mx/lib/libm.a(dpcmp.o)
 .text          0x00000000        0x0 /opt/microchip/xc32/v1.43/bin/bin/../../lib/gcc/pic32mx/4.8.3/../../../../pic32mx/lib/libm.a(dptoul.o)
 .data          0x00000000        0x0 /opt/microchip/xc32/v1.43/bin/bin/../../lib/gcc/pic32mx/4.8.3/../../../../pic32mx/lib/libm.a(dptoul.o)
 .bss           0x00000000        0x0 /opt/microchip/xc32/v1.43/bin/bin/../../lib/gcc/pic32mx/4.8.3/../../../../pic32mx/lib/libm.a(dptoul.o)
 .reginfo       0x00000000       0x18 /opt/microchip/xc32/v1.43/bin/bin/../../lib/gcc/pic32mx/4.8.3/../../../../pic32mx/lib/libm.a(dptoul.o)
 .text          0x00000000        0x0 /opt/microchip/xc32/v1.43/bin/bin/../../lib/gcc/pic32mx/4.8.3/../../../../pic32mx/lib/libm.a(fp32div.o)
 .data          0x00000000        0x0 /opt/microchip/xc32/v1.43/bin/bin/../../lib/gcc/pic32mx/4.8.3/../../../../pic32mx/lib/libm.a(fp32div.o)
 .bss           0x00000000        0x0 /opt/microchip/xc32/v1.43/bin/bin/../../lib/gcc/pic32mx/4.8.3/../../../../pic32mx/lib/libm.a(fp32div.o)
 .reginfo       0x00000000       0x18 /opt/microchip/xc32/v1.43/bin/bin/../../lib/gcc/pic32mx/4.8.3/../../../../pic32mx/lib/libm.a(fp32div.o)
 .text          0x00000000        0x0 /opt/microchip/xc32/v1.43/bin/bin/../../lib/gcc/pic32mx/4.8.3/../../../../pic32mx/lib/libm.a(fp32mul.o)
 .data          0x00000000        0x0 /opt/microchip/xc32/v1.43/bin/bin/../../lib/gcc/pic32mx/4.8.3/../../../../pic32mx/lib/libm.a(fp32mul.o)
 .bss           0x00000000        0x0 /opt/microchip/xc32/v1.43/bin/bin/../../lib/gcc/pic32mx/4.8.3/../../../../pic32mx/lib/libm.a(fp32mul.o)
 .reginfo       0x00000000       0x18 /opt/microchip/xc32/v1.43/bin/bin/../../lib/gcc/pic32mx/4.8.3/../../../../pic32mx/lib/libm.a(fp32mul.o)
 .text          0x00000000        0x0 /opt/microchip/xc32/v1.43/bin/bin/../../lib/gcc/pic32mx/4.8.3/../../../../pic32mx/lib/libm.a(fp32subadd.o)
 .data          0x00000000        0x0 /opt/microchip/xc32/v1.43/bin/bin/../../lib/gcc/pic32mx/4.8.3/../../../../pic32mx/lib/libm.a(fp32subadd.o)
 .bss           0x00000000        0x0 /opt/microchip/xc32/v1.43/bin/bin/../../lib/gcc/pic32mx/4.8.3/../../../../pic32mx/lib/libm.a(fp32subadd.o)
 .reginfo       0x00000000       0x18 /opt/microchip/xc32/v1.43/bin/bin/../../lib/gcc/pic32mx/4.8.3/../../../../pic32mx/lib/libm.a(fp32subadd.o)
 .text          0x00000000        0x0 /opt/microchip/xc32/v1.43/bin/bin/../../lib/gcc/pic32mx/4.8.3/../../../../pic32mx/lib/libm.a(fpcmp.o)
 .data          0x00000000        0x0 /opt/microchip/xc32/v1.43/bin/bin/../../lib/gcc/pic32mx/4.8.3/../../../../pic32mx/lib/libm.a(fpcmp.o)
 .bss           0x00000000        0x0 /opt/microchip/xc32/v1.43/bin/bin/../../lib/gcc/pic32mx/4.8.3/../../../../pic32mx/lib/libm.a(fpcmp.o)
 .reginfo       0x00000000       0x18 /opt/microchip/xc32/v1.43/bin/bin/../../lib/gcc/pic32mx/4.8.3/../../../../pic32mx/lib/libm.a(fpcmp.o)
 .text          0x00000000        0x0 /opt/microchip/xc32/v1.43/bin/bin/../../lib/gcc/pic32mx/4.8.3/../../../../pic32mx/lib/libm.a(fptodp.o)
 .data          0x00000000        0x0 /opt/microchip/xc32/v1.43/bin/bin/../../lib/gcc/pic32mx/4.8.3/../../../../pic32mx/lib/libm.a(fptodp.o)
 .bss           0x00000000        0x0 /opt/microchip/xc32/v1.43/bin/bin/../../lib/gcc/pic32mx/4.8.3/../../../../pic32mx/lib/libm.a(fptodp.o)
 .reginfo       0x00000000       0x18 /opt/microchip/xc32/v1.43/bin/bin/../../lib/gcc/pic32mx/4.8.3/../../../../pic32mx/lib/libm.a(fptodp.o)
 .text          0x00000000        0x0 /opt/microchip/xc32/v1.43/bin/bin/../../lib/gcc/pic32mx/4.8.3/../../../../pic32mx/lib/libm.a(fptoul.o)
 .data          0x00000000        0x0 /opt/microchip/xc32/v1.43/bin/bin/../../lib/gcc/pic32mx/4.8.3/../../../../pic32mx/lib/libm.a(fptoul.o)
 .bss           0x00000000        0x0 /opt/microchip/xc32/v1.43/bin/bin/../../lib/gcc/pic32mx/4.8.3/../../../../pic32mx/lib/libm.a(fptoul.o)
 .reginfo       0x00000000       0x18 /opt/microchip/xc32/v1.43/bin/bin/../../lib/gcc/pic32mx/4.8.3/../../../../pic32mx/lib/libm.a(fptoul.o)
 .text          0x00000000        0x0 /opt/microchip/xc32/v1.43/bin/bin/../../lib/gcc/pic32mx/4.8.3/../../../../pic32mx/lib/libm.a(sitofp.o)
 .data          0x00000000        0x0 /opt/microchip/xc32/v1.43/bin/bin/../../lib/gcc/pic32mx/4.8.3/../../../../pic32mx/lib/libm.a(sitofp.o)
 .bss           0x00000000        0x0 /opt/microchip/xc32/v1.43/bin/bin/../../lib/gcc/pic32mx/4.8.3/../../../../pic32mx/lib/libm.a(sitofp.o)
 .reginfo       0x00000000       0x18 /opt/microchip/xc32/v1.43/bin/bin/../../lib/gcc/pic32mx/4.8.3/../../../../pic32mx/lib/libm.a(sitofp.o)
 .text          0x00000000        0x0 /opt/microchip/xc32/v1.43/bin/bin/../../lib/gcc/pic32mx/4.8.3/../../../../pic32mx/lib/libe.a(_fixunsdfdi.o)
 .data          0x00000000        0x0 /opt/microchip/xc32/v1.43/bin/bin/../../lib/gcc/pic32mx/4.8.3/../../../../pic32mx/lib/libe.a(_fixunsdfdi.o)
 .bss           0x00000000        0x0 /opt/microchip/xc32/v1.43/bin/bin/../../lib/gcc/pic32mx/4.8.3/../../../../pic32mx/lib/libe.a(_fixunsdfdi.o)
 .reginfo       0x00000000       0x18 /opt/microchip/xc32/v1.43/bin/bin/../../lib/gcc/pic32mx/4.8.3/../../../../pic32mx/lib/libe.a(_fixunsdfdi.o)
 .text          0x00000000        0x0 /opt/microchip/xc32/v1.43/bin/bin/../../lib/gcc/pic32mx/4.8.3/../../../../pic32mx/lib/libe.a(_orderdf2.o)
 .data          0x00000000        0x0 /opt/microchip/xc32/v1.43/bin/bin/../../lib/gcc/pic32mx/4.8.3/../../../../pic32mx/lib/libe.a(_orderdf2.o)
 .bss           0x00000000        0x0 /opt/microchip/xc32/v1.43/bin/bin/../../lib/gcc/pic32mx/4.8.3/../../../../pic32mx/lib/libe.a(_orderdf2.o)
 .reginfo       0x00000000       0x18 /opt/microchip/xc32/v1.43/bin/bin/../../lib/gcc/pic32mx/4.8.3/../../../../pic32mx/lib/libe.a(_orderdf2.o)
 .text          0x00000000        0x0 /opt/microchip/xc32/v1.43/bin/bin/../../lib/gcc/pic32mx/4.8.3/../../../../pic32mx/lib/libe.a(_fixdfdi.o)
 .data          0x00000000        0x0 /opt/microchip/xc32/v1.43/bin/bin/../../lib/gcc/pic32mx/4.8.3/../../../../pic32mx/lib/libe.a(_fixdfdi.o)
 .bss           0x00000000        0x0 /opt/microchip/xc32/v1.43/bin/bin/../../lib/gcc/pic32mx/4.8.3/../../../../pic32mx/lib/libe.a(_fixdfdi.o)
 .reginfo       0x00000000       0x18 /opt/microchip/xc32/v1.43/bin/bin/../../lib/gcc/pic32mx/4.8.3/../../../../pic32mx/lib/libe.a(_fixdfdi.o)
 .data          0x00000000        0x0 /opt/microchip/xc32/v1.43/bin/bin/../../lib/gcc/pic32mx/4.8.3/libgcc.a(_umoddi3.o)
 .bss           0x00000000        0x0 /opt/microchip/xc32/v1.43/bin/bin/../../lib/gcc/pic32mx/4.8.3/libgcc.a(_umoddi3.o)
 .reginfo       0x00000000       0x18 /opt/microchip/xc32/v1.43/bin/bin/../../lib/gcc/pic32mx/4.8.3/libgcc.a(_umoddi3.o)
 .data          0x00000000        0x0 /opt/microchip/xc32/v1.43/bin/bin/../../lib/gcc/pic32mx/4.8.3/libgcc.a(floatunsidf.o)
 .bss           0x00000000        0x0 /opt/microchip/xc32/v1.43/bin/bin/../../lib/gcc/pic32mx/4.8.3/libgcc.a(floatunsidf.o)
 .reginfo       0x00000000       0x18 /opt/microchip/xc32/v1.43/bin/bin/../../lib/gcc/pic32mx/4.8.3/libgcc.a(floatunsidf.o)
 .text          0x00000000        0x0 /opt/microchip/xc32/v1.43/bin/bin/../../lib/gcc/pic32mx/4.8.3/../../../../pic32mx/lib/libpic32.a(sbrk.o)
 .data          0x00000000        0x0 /opt/microchip/xc32/v1.43/bin/bin/../../lib/gcc/pic32mx/4.8.3/../../../../pic32mx/lib/libpic32.a(sbrk.o)
 .reginfo       0x00000000       0x18 /opt/microchip/xc32/v1.43/bin/bin/../../lib/gcc/pic32mx/4.8.3/../../../../pic32mx/lib/libpic32.a(sbrk.o)
 .text.getpagesize
                0x00000000        0x8 /opt/microchip/xc32/v1.43/bin/bin/../../lib/gcc/pic32mx/4.8.3/../../../../pic32mx/lib/libpic32.a(sbrk.o)
 .text          0x00000000        0x0 /opt/microchip/xc32/v1.43/bin/bin/../../lib/gcc/pic32mx/4.8.3/../../../../pic32mx/lib/libpic32.a(write.o)
 .data          0x00000000        0x0 /opt/microchip/xc32/v1.43/bin/bin/../../lib/gcc/pic32mx/4.8.3/../../../../pic32mx/lib/libpic32.a(write.o)
 .bss           0x00000000        0x0 /opt/microchip/xc32/v1.43/bin/bin/../../lib/gcc/pic32mx/4.8.3/../../../../pic32mx/lib/libpic32.a(write.o)
 .reginfo       0x00000000       0x18 /opt/microchip/xc32/v1.43/bin/bin/../../lib/gcc/pic32mx/4.8.3/../../../../pic32mx/lib/libpic32.a(write.o)
 .text          0x00000000        0x0 /opt/microchip/xc32/v1.43/bin/bin/../../lib/gcc/pic32mx/4.8.3/../../../../pic32mx/lib/libpic32.a(_mon_putc.o)
 .data          0x00000000        0x0 /opt/microchip/xc32/v1.43/bin/bin/../../lib/gcc/pic32mx/4.8.3/../../../../pic32mx/lib/libpic32.a(_mon_putc.o)
 .bss           0x00000000        0x0 /opt/microchip/xc32/v1.43/bin/bin/../../lib/gcc/pic32mx/4.8.3/../../../../pic32mx/lib/libpic32.a(_mon_putc.o)
 .reginfo       0x00000000       0x18 /opt/microchip/xc32/v1.43/bin/bin/../../lib/gcc/pic32mx/4.8.3/../../../../pic32mx/lib/libpic32.a(_mon_putc.o)
 .text          0x00000000        0x0 /opt/microchip/xc32/v1.43/bin/bin/../../lib/gcc/pic32mx/4.8.3/../../../../pic32mx/lib/libpic32.a(xc32_uart.o)
 .data          0x00000000        0x0 /opt/microchip/xc32/v1.43/bin/bin/../../lib/gcc/pic32mx/4.8.3/../../../../pic32mx/lib/libpic32.a(xc32_uart.o)
 .bss           0x00000000        0x0 /opt/microchip/xc32/v1.43/bin/bin/../../lib/gcc/pic32mx/4.8.3/../../../../pic32mx/lib/libpic32.a(xc32_uart.o)
 .reginfo       0x00000000       0x18 /opt/microchip/xc32/v1.43/bin/bin/../../lib/gcc/pic32mx/4.8.3/../../../../pic32mx/lib/libpic32.a(xc32_uart.o)
 .text          0x00000000        0x0 /opt/microchip/xc32/v1.43/bin/bin/../../lib/gcc/pic32mx/4.8.3/../../../../pic32mx/lib/libm.a(litodp.o)
 .data          0x00000000        0x0 /opt/microchip/xc32/v1.43/bin/bin/../../lib/gcc/pic32mx/4.8.3/../../../../pic32mx/lib/libm.a(litodp.o)
 .bss           0x00000000        0x0 /opt/microchip/xc32/v1.43/bin/bin/../../lib/gcc/pic32mx/4.8.3/../../../../pic32mx/lib/libm.a(litodp.o)
 .reginfo       0x00000000       0x18 /opt/microchip/xc32/v1.43/bin/bin/../../lib/gcc/pic32mx/4.8.3/../../../../pic32mx/lib/libm.a(litodp.o)

Memory Configuration

Name             Origin             Length             Attributes
kseg0_program_mem 0x9d000000         0x00080000         xr
kseg0_boot_mem   0x9fc00490         0x00000970
exception_mem    0x9fc01000         0x00001000
kseg1_boot_mem   0xbfc00000         0x00000490
debug_exec_mem   0xbfc02000         0x00000ff0
config3          0xbfc02ff0         0x00000004
config2          0xbfc02ff4         0x00000004
config1          0xbfc02ff8         0x00000004
config0          0xbfc02ffc         0x00000004
kseg1_data_mem   0xa0000000         0x00020000         w !x
sfrs             0xbf800000         0x00100000
configsfrs       0xbfc02ff0         0x00000010
*default*        0x00000000         0xffffffff

Linker script and memory map

LOAD /opt/microchip/xc32/v1.43/bin/bin/../../lib/gcc/pic32mx/4.8.3/../../../../pic32mx/lib/./proc/32MX795F512L/crt0_mips32r2.o
LOAD /opt/microchip/xc32/v1.43/bin/bin/../../lib/gcc/pic32mx/4.8.3/../../../../pic32mx/lib/debug-exception-return.o
LOAD build/DM30004-2/production/_ext/2025569787/sys_clk_static.o
LOAD build/DM30004-2/production/_ext/540202005/sys_ports_static.o
LOAD build/DM30004-2/production/_ext/1280997252/system_init.o
LOAD build/DM30004-2/production/_ext/1280997252/system_interrupt.o
LOAD build/DM30004-2/production/_ext/1280997252/system_exceptions.o
LOAD build/DM30004-2/production/_ext/1280997252/system_tasks.o
LOAD build/DM30004-2/production/_ext/1360937237/app.o
LOAD build/DM30004-2/production/_ext/1360937237/main.o
LOAD build/DM30004-2/production/_ext/1360937237/stream_echo.o
LOAD build/DM30004-2/production/_ext/632331575/bsp_sys_init.o
LOAD build/DM30004-2/production/_ext/134845378/adler32.o
LOAD build/DM30004-2/production/_ext/134845378/compress.o
LOAD build/DM30004-2/production/_ext/134845378/crc32.o
LOAD build/DM30004-2/production/_ext/134845378/deflate.o
LOAD build/DM30004-2/production/_ext/134845378/infback.o
LOAD build/DM30004-2/production/_ext/134845378/inffast.o
LOAD build/DM30004-2/production/_ext/134845378/inflate.o
LOAD build/DM30004-2/production/_ext/134845378/inftrees.o
LOAD build/DM30004-2/production/_ext/134845378/trees.o
LOAD build/DM30004-2/production/_ext/134845378/uncompr.o
LOAD build/DM30004-2/production/_ext/134845378/zutil.o
LOAD build/DM30004-2/production/_ext/458569783/ecc.o
LOAD build/DM30004-2/production/_ext/458569783/arc4.o
LOAD build/DM30004-2/production/_ext/458569783/pwdbased.o
LOAD build/DM30004-2/production/_ext/458569783/tfm.o
LOAD build/DM30004-2/production/_ext/458569783/asn.o
LOAD build/DM30004-2/production/_ext/458569783/des3.o
LOAD build/DM30004-2/production/_ext/458569783/rsa.o
LOAD build/DM30004-2/production/_ext/458569783/aes.o
LOAD build/DM30004-2/production/_ext/458569783/md5.o
LOAD build/DM30004-2/production/_ext/458569783/sha.o
LOAD build/DM30004-2/production/_ext/458569783/sha256.o
LOAD build/DM30004-2/production/_ext/458569783/sha512.o
LOAD build/DM30004-2/production/_ext/458569783/hmac.o
LOAD build/DM30004-2/production/_ext/458569783/hash.o
LOAD build/DM30004-2/production/_ext/458569783/compress.o
LOAD build/DM30004-2/production/_ext/458569783/random.o
LOAD build/DM30004-2/production/_ext/458569783/crypto.o
LOAD build/DM30004-2/production/_ext/458569783/coding.o
LOAD build/DM30004-2/production/_ext/458569783/error.o
LOAD build/DM30004-2/production/_ext/458569783/integer.o
LOAD build/DM30004-2/production/_ext/458569783/logging.o
LOAD build/DM30004-2/production/_ext/458569783/memory.o
LOAD build/DM30004-2/production/_ext/458569783/misc.o
LOAD build/DM30004-2/production/_ext/458569783/port.o
LOAD build/DM30004-2/production/_ext/854379441/drv_ethmac.o
LOAD build/DM30004-2/production/_ext/854379441/drv_ethmac_lib.o
LOAD build/DM30004-2/production/_ext/2030533247/drv_ethphy.o
LOAD build/DM30004-2/production/_ext/2030533247/drv_extphy_smsc8740.o
LOAD build/DM30004-2/production/_ext/2027566358/drv_tmr.o
LOAD build/DM30004-2/production/_ext/1322803601/sys_devcon.o
LOAD build/DM30004-2/production/_ext/1322803601/sys_devcon_pic32mx.o
LOAD build/DM30004-2/production/_ext/1204230505/sys_int_pic32.o
LOAD build/DM30004-2/production/_ext/1310142747/sys_random.o
LOAD build/DM30004-2/production/_ext/62100799/sys_tmr.o
LOAD build/DM30004-2/production/_ext/804969968/helpers.o
LOAD build/DM30004-2/production/_ext/1899562614/ipv4.o
LOAD build/DM30004-2/production/_ext/1899562614/udp.o
LOAD build/DM30004-2/production/_ext/1899562614/tcpip_heap_alloc.o
LOAD build/DM30004-2/production/_ext/1899562614/tcpip_heap_internal.o
LOAD build/DM30004-2/production/_ext/1899562614/arp.o
LOAD build/DM30004-2/production/_ext/1899562614/dhcp.o
LOAD build/DM30004-2/production/_ext/1899562614/dns.o
LOAD build/DM30004-2/production/_ext/1899562614/hash_fnv.o
LOAD build/DM30004-2/production/_ext/1899562614/oahash.o
LOAD build/DM30004-2/production/_ext/1899562614/tcpip_helpers.o
LOAD build/DM30004-2/production/_ext/1899562614/tcpip_helper_c32.o
LOAD build/DM30004-2/production/_ext/1899562614/tcpip_manager.o
LOAD build/DM30004-2/production/_ext/1899562614/tcpip_notify.o
LOAD build/DM30004-2/production/_ext/1899562614/tcpip_packet.o
LOAD build/DM30004-2/production/_ext/1442095083/unabto_aes128_sha256.o
LOAD build/DM30004-2/production/_ext/1442095083/unabto_app_adapter.o
LOAD build/DM30004-2/production/_ext/1442095083/unabto_attach.o
LOAD build/DM30004-2/production/_ext/1442095083/unabto_buffers.o
LOAD build/DM30004-2/production/_ext/1442095083/unabto_common_main.o
LOAD build/DM30004-2/production/_ext/1442095083/unabto_connection.o
LOAD build/DM30004-2/production/_ext/1442095083/unabto_context.o
LOAD build/DM30004-2/production/_ext/1442095083/unabto_crypto.o
LOAD build/DM30004-2/production/_ext/1442095083/unabto_debug_packet.o
LOAD build/DM30004-2/production/_ext/1442095083/unabto_extended_rendezvous.o
LOAD build/DM30004-2/production/_ext/1442095083/unabto_memory.o
LOAD build/DM30004-2/production/_ext/1442095083/unabto_message.o
LOAD build/DM30004-2/production/_ext/1442095083/unabto_next_event.o
LOAD build/DM30004-2/production/_ext/1442095083/unabto_packet.o
LOAD build/DM30004-2/production/_ext/1442095083/unabto_packet_util.o
LOAD build/DM30004-2/production/_ext/1442095083/unabto_prf.o
LOAD build/DM30004-2/production/_ext/1442095083/unabto_query_rw.o
LOAD build/DM30004-2/production/_ext/1442095083/unabto_stream.o
LOAD build/DM30004-2/production/_ext/1442095083/unabto_stream_environment.o
LOAD build/DM30004-2/production/_ext/1442095083/unabto_stream_event.o
LOAD build/DM30004-2/production/_ext/1442095083/unabto_stream_window.o
LOAD build/DM30004-2/production/_ext/1442095083/unabto_tcp_fallback.o
LOAD build/DM30004-2/production/_ext/2107900007/unabto_harmony_crypto.o
LOAD build/DM30004-2/production/_ext/2107900007/unabto_harmony_dns.o
LOAD build/DM30004-2/production/_ext/2107900007/unabto_harmony_network.o
LOAD build/DM30004-2/production/_ext/2107900007/unabto_harmony_random.o
LOAD build/DM30004-2/production/_ext/2107900007/unabto_harmony_time.o
LOAD build/DM30004-2/production/_ext/2107900007/unabto_udp_debug.o
LOAD ../../../../../microchip/harmony/v1_11/bin/framework/peripheral/PIC32MX795F512L_peripherals.a
                0x00000001                __MPLAB_BUILD = 0x1
                0x0000afa0                _min_heap_size = 0xafa0
LOAD /opt/microchip/xc32/v1.43/bin/bin/../../lib/gcc/pic32mx/4.8.3/../../../../pic32mx/lib/./proc/32MX795F512L/default_isr_vectors.o
LOAD /opt/microchip/xc32/v1.43/bin/bin/../../lib/gcc/pic32mx/4.8.3/../../../../pic32mx/lib/pic32_software_reset.o
                0x00000400                PROVIDE (_min_stack_size, 0x400)
LOAD /opt/microchip/xc32/v1.43/bin/bin/../../lib/gcc/pic32mx/4.8.3/../../../../pic32mx/lib/./proc/32MX795F512L/processor.o
START GROUP
LOAD libmchp_peripheral.a
END GROUP
START GROUP
LOAD libmchp_peripheral_32MX795F512L.a
END GROUP
                0x00000001                PROVIDE (_vector_spacing, 0x1)
                0x9fc01000                PROVIDE (_ebase_address, 0x9fc01000)
                0xbfc00000                _RESET_ADDR = 0xbfc00000
                0xbfc00380                _BEV_EXCPT_ADDR = 0xbfc00380
                0xbfc00480                _DBG_EXCPT_ADDR = 0xbfc00480
                0xbfc02000                _DBG_CODE_ADDR = 0xbfc02000
                0x00000ff0                _DBG_CODE_SIZE = 0xff0
                0x9fc01180                _GEN_EXCPT_ADDR = (_ebase_address + 0x180)

.config_BFC02FF0
                0xbfc02ff0        0x4
 *(.config_BFC02FF0)
 .config_BFC02FF0
                0xbfc02ff0        0x4 build/DM30004-2/production/_ext/1280997252/system_init.o

.config_BFC02FF4
                0xbfc02ff4        0x4
 *(.config_BFC02FF4)
 .config_BFC02FF4
                0xbfc02ff4        0x4 build/DM30004-2/production/_ext/1280997252/system_init.o

.config_BFC02FF8
                0xbfc02ff8        0x4
 *(.config_BFC02FF8)
 .config_BFC02FF8
                0xbfc02ff8        0x4 build/DM30004-2/production/_ext/1280997252/system_init.o

.config_BFC02FFC
                0xbfc02ffc        0x4
 *(.config_BFC02FFC)
 .config_BFC02FFC
                0xbfc02ffc        0x4 build/DM30004-2/production/_ext/1280997252/system_init.o
                0xbfc02000                PROVIDE (_DBG_CODE_ADDR, 0xbfc02000)
                0x00000ff0                PROVIDE (_DBG_CODE_SIZE, 0xff0)

.reset          0xbfc00000      0x208
 *(.reset)
 .reset         0xbfc00000        0x8 /opt/microchip/xc32/v1.43/bin/bin/../../lib/gcc/pic32mx/4.8.3/../../../../pic32mx/lib/./proc/32MX795F512L/crt0_mips32r2.o
                0xbfc00000                _reset
 *(.reset.startup)
 .reset.startup
                0xbfc00008      0x200 /opt/microchip/xc32/v1.43/bin/bin/../../lib/gcc/pic32mx/4.8.3/../../../../pic32mx/lib/./proc/32MX795F512L/crt0_mips32r2.o
                0xbfc00008                _startup

.bev_excpt      0xbfc00380       0x10
 *(.bev_handler)
 .bev_handler   0xbfc00380       0x10 /opt/microchip/xc32/v1.43/bin/bin/../../lib/gcc/pic32mx/4.8.3/../../../../pic32mx/lib/./proc/32MX795F512L/crt0_mips32r2.o

.dbg_excpt      0xbfc00480        0x0
                0xbfc00480                . = (. + DEFINED (_DEBUGGER)?0x8:0x0)

.dbg_code       0xbfc02000        0x0
                0xbfc02000                . = (. + DEFINED (_DEBUGGER)?_DBG_CODE_SIZE:0x0)

.app_excpt      0x9fc01180       0x10
 *(.gen_handler)
 .gen_handler   0x9fc01180       0x10 /opt/microchip/xc32/v1.43/bin/bin/../../lib/gcc/pic32mx/4.8.3/../../../../pic32mx/lib/./proc/32MX795F512L/crt0_mips32r2.o

.vector_0       0x9fc01200        0x8
 *(.vector_0)
 .vector_0      0x9fc01200        0x8 /opt/microchip/xc32/v1.43/bin/bin/../../lib/gcc/pic32mx/4.8.3/../../../../pic32mx/lib/libpic32.a(vector0.o)
                0x9fc01200                __vector_dispatch_0
                0x00000001                ASSERT (((_vector_spacing == 0x0) || (SIZEOF (.vector_0) <= (_vector_spacing << 0x5))), function at exception vector 0 too large)

.vector_1       0x9fc01220        0x8
 *(.vector_1)
 .vector_1      0x9fc01220        0x8 /opt/microchip/xc32/v1.43/bin/bin/../../lib/gcc/pic32mx/4.8.3/../../../../pic32mx/lib/libpic32.a(vector1.o)
                0x9fc01220                __vector_dispatch_1
                0x00000001                ASSERT (((_vector_spacing == 0x0) || (SIZEOF (.vector_1) <= (_vector_spacing << 0x5))), function at exception vector 1 too large)

.vector_2       0x9fc01240        0x8
 *(.vector_2)
 .vector_2      0x9fc01240        0x8 /opt/microchip/xc32/v1.43/bin/bin/../../lib/gcc/pic32mx/4.8.3/../../../../pic32mx/lib/libpic32.a(vector2.o)
                0x9fc01240                __vector_dispatch_2
                0x00000001                ASSERT (((_vector_spacing == 0x0) || (SIZEOF (.vector_2) <= (_vector_spacing << 0x5))), function at exception vector 2 too large)

.vector_3       0x9fc01260        0x8
 *(.vector_3)
 .vector_3      0x9fc01260        0x8 /opt/microchip/xc32/v1.43/bin/bin/../../lib/gcc/pic32mx/4.8.3/../../../../pic32mx/lib/libpic32.a(vector3.o)
                0x9fc01260                __vector_dispatch_3
                0x00000001                ASSERT (((_vector_spacing == 0x0) || (SIZEOF (.vector_3) <= (_vector_spacing << 0x5))), function at exception vector 3 too large)

.vector_4       0x9fc01280        0x8
 *(.vector_4)
 .vector_4      0x9fc01280        0x8 build/DM30004-2/production/_ext/1280997252/system_interrupt.o
                0x9fc01280                __vector_dispatch_4
                0x00000001                ASSERT (((_vector_spacing == 0x0) || (SIZEOF (.vector_4) <= (_vector_spacing << 0x5))), function at exception vector 4 too large)

.vector_5       0x9fc012a0        0x8
 *(.vector_5)
 .vector_5      0x9fc012a0        0x8 /opt/microchip/xc32/v1.43/bin/bin/../../lib/gcc/pic32mx/4.8.3/../../../../pic32mx/lib/libpic32.a(vector5.o)
                0x9fc012a0                __vector_dispatch_5
                0x00000001                ASSERT (((_vector_spacing == 0x0) || (SIZEOF (.vector_5) <= (_vector_spacing << 0x5))), function at exception vector 5 too large)

.vector_6       0x9fc012c0        0x8
 *(.vector_6)
 .vector_6      0x9fc012c0        0x8 /opt/microchip/xc32/v1.43/bin/bin/../../lib/gcc/pic32mx/4.8.3/../../../../pic32mx/lib/libpic32.a(vector6.o)
                0x9fc012c0                __vector_dispatch_6
                0x00000001                ASSERT (((_vector_spacing == 0x0) || (SIZEOF (.vector_6) <= (_vector_spacing << 0x5))), function at exception vector 6 too large)

.vector_7       0x9fc012e0        0x8
 *(.vector_7)
 .vector_7      0x9fc012e0        0x8 /opt/microchip/xc32/v1.43/bin/bin/../../lib/gcc/pic32mx/4.8.3/../../../../pic32mx/lib/libpic32.a(vector7.o)
                0x9fc012e0                __vector_dispatch_7
                0x00000001                ASSERT (((_vector_spacing == 0x0) || (SIZEOF (.vector_7) <= (_vector_spacing << 0x5))), function at exception vector 7 too large)

.vector_8       0x9fc01300        0x8
 *(.vector_8)
 .vector_8      0x9fc01300        0x8 /opt/microchip/xc32/v1.43/bin/bin/../../lib/gcc/pic32mx/4.8.3/../../../../pic32mx/lib/libpic32.a(vector8.o)
                0x9fc01300                __vector_dispatch_8
                0x00000001                ASSERT (((_vector_spacing == 0x0) || (SIZEOF (.vector_8) <= (_vector_spacing << 0x5))), function at exception vector 8 too large)

.vector_9       0x9fc01320        0x8
 *(.vector_9)
 .vector_9      0x9fc01320        0x8 /opt/microchip/xc32/v1.43/bin/bin/../../lib/gcc/pic32mx/4.8.3/../../../../pic32mx/lib/libpic32.a(vector9.o)
                0x9fc01320                __vector_dispatch_9
                0x00000001                ASSERT (((_vector_spacing == 0x0) || (SIZEOF (.vector_9) <= (_vector_spacing << 0x5))), function at exception vector 9 too large)

.vector_10      0x9fc01340        0x8
 *(.vector_10)
 .vector_10     0x9fc01340        0x8 /opt/microchip/xc32/v1.43/bin/bin/../../lib/gcc/pic32mx/4.8.3/../../../../pic32mx/lib/libpic32.a(vector10.o)
                0x9fc01340                __vector_dispatch_10
                0x00000001                ASSERT (((_vector_spacing == 0x0) || (SIZEOF (.vector_10) <= (_vector_spacing << 0x5))), function at exception vector 10 too large)

.vector_11      0x9fc01360        0x8
 *(.vector_11)
 .vector_11     0x9fc01360        0x8 /opt/microchip/xc32/v1.43/bin/bin/../../lib/gcc/pic32mx/4.8.3/../../../../pic32mx/lib/libpic32.a(vector11.o)
                0x9fc01360                __vector_dispatch_11
                0x00000001                ASSERT (((_vector_spacing == 0x0) || (SIZEOF (.vector_11) <= (_vector_spacing << 0x5))), function at exception vector 11 too large)

.vector_12      0x9fc01380        0x8
 *(.vector_12)
 .vector_12     0x9fc01380        0x8 /opt/microchip/xc32/v1.43/bin/bin/../../lib/gcc/pic32mx/4.8.3/../../../../pic32mx/lib/libpic32.a(vector12.o)
                0x9fc01380                __vector_dispatch_12
                0x00000001                ASSERT (((_vector_spacing == 0x0) || (SIZEOF (.vector_12) <= (_vector_spacing << 0x5))), function at exception vector 12 too large)

.vector_13      0x9fc013a0        0x8
 *(.vector_13)
 .vector_13     0x9fc013a0        0x8 /opt/microchip/xc32/v1.43/bin/bin/../../lib/gcc/pic32mx/4.8.3/../../../../pic32mx/lib/libpic32.a(vector13.o)
                0x9fc013a0                __vector_dispatch_13
                0x00000001                ASSERT (((_vector_spacing == 0x0) || (SIZEOF (.vector_13) <= (_vector_spacing << 0x5))), function at exception vector 13 too large)

.vector_14      0x9fc013c0        0x8
 *(.vector_14)
 .vector_14     0x9fc013c0        0x8 /opt/microchip/xc32/v1.43/bin/bin/../../lib/gcc/pic32mx/4.8.3/../../../../pic32mx/lib/libpic32.a(vector14.o)
                0x9fc013c0                __vector_dispatch_14
                0x00000001                ASSERT (((_vector_spacing == 0x0) || (SIZEOF (.vector_14) <= (_vector_spacing << 0x5))), function at exception vector 14 too large)

.vector_15      0x9fc013e0        0x8
 *(.vector_15)
 .vector_15     0x9fc013e0        0x8 /opt/microchip/xc32/v1.43/bin/bin/../../lib/gcc/pic32mx/4.8.3/../../../../pic32mx/lib/libpic32.a(vector15.o)
                0x9fc013e0                __vector_dispatch_15
                0x00000001                ASSERT (((_vector_spacing == 0x0) || (SIZEOF (.vector_15) <= (_vector_spacing << 0x5))), function at exception vector 15 too large)

.vector_16      0x9fc01400        0x8
 *(.vector_16)
 .vector_16     0x9fc01400        0x8 /opt/microchip/xc32/v1.43/bin/bin/../../lib/gcc/pic32mx/4.8.3/../../../../pic32mx/lib/libpic32.a(vector16.o)
                0x9fc01400                __vector_dispatch_16
                0x00000001                ASSERT (((_vector_spacing == 0x0) || (SIZEOF (.vector_16) <= (_vector_spacing << 0x5))), function at exception vector 16 too large)

.vector_17      0x9fc01420        0x8
 *(.vector_17)
 .vector_17     0x9fc01420        0x8 /opt/microchip/xc32/v1.43/bin/bin/../../lib/gcc/pic32mx/4.8.3/../../../../pic32mx/lib/libpic32.a(vector17.o)
                0x9fc01420                __vector_dispatch_17
                0x00000001                ASSERT (((_vector_spacing == 0x0) || (SIZEOF (.vector_17) <= (_vector_spacing << 0x5))), function at exception vector 17 too large)

.vector_18      0x9fc01440        0x8
 *(.vector_18)
 .vector_18     0x9fc01440        0x8 /opt/microchip/xc32/v1.43/bin/bin/../../lib/gcc/pic32mx/4.8.3/../../../../pic32mx/lib/libpic32.a(vector18.o)
                0x9fc01440                __vector_dispatch_18
                0x00000001                ASSERT (((_vector_spacing == 0x0) || (SIZEOF (.vector_18) <= (_vector_spacing << 0x5))), function at exception vector 18 too large)

.vector_19      0x9fc01460        0x8
 *(.vector_19)
 .vector_19     0x9fc01460        0x8 /opt/microchip/xc32/v1.43/bin/bin/../../lib/gcc/pic32mx/4.8.3/../../../../pic32mx/lib/libpic32.a(vector19.o)
                0x9fc01460                __vector_dispatch_19
                0x00000001                ASSERT (((_vector_spacing == 0x0) || (SIZEOF (.vector_19) <= (_vector_spacing << 0x5))), function at exception vector 19 too large)

.vector_20      0x9fc01480        0x8
 *(.vector_20)
 .vector_20     0x9fc01480        0x8 /opt/microchip/xc32/v1.43/bin/bin/../../lib/gcc/pic32mx/4.8.3/../../../../pic32mx/lib/libpic32.a(vector20.o)
                0x9fc01480                __vector_dispatch_20
                0x00000001                ASSERT (((_vector_spacing == 0x0) || (SIZEOF (.vector_20) <= (_vector_spacing << 0x5))), function at exception vector 20 too large)

.vector_21      0x9fc014a0        0x8
 *(.vector_21)
 .vector_21     0x9fc014a0        0x8 /opt/microchip/xc32/v1.43/bin/bin/../../lib/gcc/pic32mx/4.8.3/../../../../pic32mx/lib/libpic32.a(vector21.o)
                0x9fc014a0                __vector_dispatch_21
                0x00000001                ASSERT (((_vector_spacing == 0x0) || (SIZEOF (.vector_21) <= (_vector_spacing << 0x5))), function at exception vector 21 too large)

.vector_22      0x9fc014c0        0x8
 *(.vector_22)
 .vector_22     0x9fc014c0        0x8 /opt/microchip/xc32/v1.43/bin/bin/../../lib/gcc/pic32mx/4.8.3/../../../../pic32mx/lib/libpic32.a(vector22.o)
                0x9fc014c0                __vector_dispatch_22
                0x00000001                ASSERT (((_vector_spacing == 0x0) || (SIZEOF (.vector_22) <= (_vector_spacing << 0x5))), function at exception vector 22 too large)

.vector_23      0x9fc014e0        0x8
 *(.vector_23)
 .vector_23     0x9fc014e0        0x8 /opt/microchip/xc32/v1.43/bin/bin/../../lib/gcc/pic32mx/4.8.3/../../../../pic32mx/lib/libpic32.a(vector23.o)
                0x9fc014e0                __vector_dispatch_23
                0x00000001                ASSERT (((_vector_spacing == 0x0) || (SIZEOF (.vector_23) <= (_vector_spacing << 0x5))), function at exception vector 23 too large)

.vector_24      0x9fc01500        0x8
 *(.vector_24)
 .vector_24     0x9fc01500        0x8 /opt/microchip/xc32/v1.43/bin/bin/../../lib/gcc/pic32mx/4.8.3/../../../../pic32mx/lib/libpic32.a(vector24.o)
                0x9fc01500                __vector_dispatch_24
                0x00000001                ASSERT (((_vector_spacing == 0x0) || (SIZEOF (.vector_24) <= (_vector_spacing << 0x5))), function at exception vector 24 too large)

.vector_25      0x9fc01520        0x8
 *(.vector_25)
 .vector_25     0x9fc01520        0x8 /opt/microchip/xc32/v1.43/bin/bin/../../lib/gcc/pic32mx/4.8.3/../../../../pic32mx/lib/libpic32.a(vector25.o)
                0x9fc01520                __vector_dispatch_25
                0x00000001                ASSERT (((_vector_spacing == 0x0) || (SIZEOF (.vector_25) <= (_vector_spacing << 0x5))), function at exception vector 25 too large)

.vector_26      0x9fc01540        0x8
 *(.vector_26)
 .vector_26     0x9fc01540        0x8 /opt/microchip/xc32/v1.43/bin/bin/../../lib/gcc/pic32mx/4.8.3/../../../../pic32mx/lib/libpic32.a(vector26.o)
                0x9fc01540                __vector_dispatch_26
                0x00000001                ASSERT (((_vector_spacing == 0x0) || (SIZEOF (.vector_26) <= (_vector_spacing << 0x5))), function at exception vector 26 too large)

.vector_27      0x9fc01560        0x8
 *(.vector_27)
 .vector_27     0x9fc01560        0x8 /opt/microchip/xc32/v1.43/bin/bin/../../lib/gcc/pic32mx/4.8.3/../../../../pic32mx/lib/libpic32.a(vector27.o)
                0x9fc01560                __vector_dispatch_27
                0x00000001                ASSERT (((_vector_spacing == 0x0) || (SIZEOF (.vector_27) <= (_vector_spacing << 0x5))), function at exception vector 27 too large)

.vector_28      0x9fc01580        0x8
 *(.vector_28)
 .vector_28     0x9fc01580        0x8 /opt/microchip/xc32/v1.43/bin/bin/../../lib/gcc/pic32mx/4.8.3/../../../../pic32mx/lib/libpic32.a(vector28.o)
                0x9fc01580                __vector_dispatch_28
                0x00000001                ASSERT (((_vector_spacing == 0x0) || (SIZEOF (.vector_28) <= (_vector_spacing << 0x5))), function at exception vector 28 too large)

.vector_29      0x9fc015a0        0x8
 *(.vector_29)
 .vector_29     0x9fc015a0        0x8 /opt/microchip/xc32/v1.43/bin/bin/../../lib/gcc/pic32mx/4.8.3/../../../../pic32mx/lib/libpic32.a(vector29.o)
                0x9fc015a0                __vector_dispatch_29
                0x00000001                ASSERT (((_vector_spacing == 0x0) || (SIZEOF (.vector_29) <= (_vector_spacing << 0x5))), function at exception vector 29 too large)

.vector_30      0x9fc015c0        0x8
 *(.vector_30)
 .vector_30     0x9fc015c0        0x8 /opt/microchip/xc32/v1.43/bin/bin/../../lib/gcc/pic32mx/4.8.3/../../../../pic32mx/lib/libpic32.a(vector30.o)
                0x9fc015c0                __vector_dispatch_30
                0x00000001                ASSERT (((_vector_spacing == 0x0) || (SIZEOF (.vector_30) <= (_vector_spacing << 0x5))), function at exception vector 30 too large)

.vector_31      0x9fc015e0        0x8
 *(.vector_31)
 .vector_31     0x9fc015e0        0x8 /opt/microchip/xc32/v1.43/bin/bin/../../lib/gcc/pic32mx/4.8.3/../../../../pic32mx/lib/libpic32.a(vector31.o)
                0x9fc015e0                __vector_dispatch_31
                0x00000001                ASSERT (((_vector_spacing == 0x0) || (SIZEOF (.vector_31) <= (_vector_spacing << 0x5))), function at exception vector 31 too large)

.vector_32      0x9fc01600        0x8
 *(.vector_32)
 .vector_32     0x9fc01600        0x8 /opt/microchip/xc32/v1.43/bin/bin/../../lib/gcc/pic32mx/4.8.3/../../../../pic32mx/lib/libpic32.a(vector32.o)
                0x9fc01600                __vector_dispatch_32
                0x00000001                ASSERT (((_vector_spacing == 0x0) || (SIZEOF (.vector_32) <= (_vector_spacing << 0x5))), function at exception vector 32 too large)

.vector_33      0x9fc01620        0x8
 *(.vector_33)
 .vector_33     0x9fc01620        0x8 /opt/microchip/xc32/v1.43/bin/bin/../../lib/gcc/pic32mx/4.8.3/../../../../pic32mx/lib/libpic32.a(vector33.o)
                0x9fc01620                __vector_dispatch_33
                0x00000001                ASSERT (((_vector_spacing == 0x0) || (SIZEOF (.vector_33) <= (_vector_spacing << 0x5))), function at exception vector 33 too large)

.vector_34      0x9fc01640        0x8
 *(.vector_34)
 .vector_34     0x9fc01640        0x8 /opt/microchip/xc32/v1.43/bin/bin/../../lib/gcc/pic32mx/4.8.3/../../../../pic32mx/lib/libpic32.a(vector34.o)
                0x9fc01640                __vector_dispatch_34
                0x00000001                ASSERT (((_vector_spacing == 0x0) || (SIZEOF (.vector_34) <= (_vector_spacing << 0x5))), function at exception vector 34 too large)

.vector_35      0x9fc01660        0x8
 *(.vector_35)
 .vector_35     0x9fc01660        0x8 /opt/microchip/xc32/v1.43/bin/bin/../../lib/gcc/pic32mx/4.8.3/../../../../pic32mx/lib/libpic32.a(vector35.o)
                0x9fc01660                __vector_dispatch_35
                0x00000001                ASSERT (((_vector_spacing == 0x0) || (SIZEOF (.vector_35) <= (_vector_spacing << 0x5))), function at exception vector 35 too large)

.vector_36      0x9fc01680        0x8
 *(.vector_36)
 .vector_36     0x9fc01680        0x8 /opt/microchip/xc32/v1.43/bin/bin/../../lib/gcc/pic32mx/4.8.3/../../../../pic32mx/lib/libpic32.a(vector36.o)
                0x9fc01680                __vector_dispatch_36
                0x00000001                ASSERT (((_vector_spacing == 0x0) || (SIZEOF (.vector_36) <= (_vector_spacing << 0x5))), function at exception vector 36 too large)

.vector_37      0x9fc016a0        0x8
 *(.vector_37)
 .vector_37     0x9fc016a0        0x8 /opt/microchip/xc32/v1.43/bin/bin/../../lib/gcc/pic32mx/4.8.3/../../../../pic32mx/lib/libpic32.a(vector37.o)
                0x9fc016a0                __vector_dispatch_37
                0x00000001                ASSERT (((_vector_spacing == 0x0) || (SIZEOF (.vector_37) <= (_vector_spacing << 0x5))), function at exception vector 37 too large)

.vector_38      0x9fc016c0        0x8
 *(.vector_38)
 .vector_38     0x9fc016c0        0x8 /opt/microchip/xc32/v1.43/bin/bin/../../lib/gcc/pic32mx/4.8.3/../../../../pic32mx/lib/libpic32.a(vector38.o)
                0x9fc016c0                __vector_dispatch_38
                0x00000001                ASSERT (((_vector_spacing == 0x0) || (SIZEOF (.vector_38) <= (_vector_spacing << 0x5))), function at exception vector 38 too large)

.vector_39      0x9fc016e0        0x8
 *(.vector_39)
 .vector_39     0x9fc016e0        0x8 /opt/microchip/xc32/v1.43/bin/bin/../../lib/gcc/pic32mx/4.8.3/../../../../pic32mx/lib/libpic32.a(vector39.o)
                0x9fc016e0                __vector_dispatch_39
                0x00000001                ASSERT (((_vector_spacing == 0x0) || (SIZEOF (.vector_39) <= (_vector_spacing << 0x5))), function at exception vector 39 too large)

.vector_40      0x9fc01700        0x8
 *(.vector_40)
 .vector_40     0x9fc01700        0x8 /opt/microchip/xc32/v1.43/bin/bin/../../lib/gcc/pic32mx/4.8.3/../../../../pic32mx/lib/libpic32.a(vector40.o)
                0x9fc01700                __vector_dispatch_40
                0x00000001                ASSERT (((_vector_spacing == 0x0) || (SIZEOF (.vector_40) <= (_vector_spacing << 0x5))), function at exception vector 40 too large)

.vector_41      0x9fc01720        0x8
 *(.vector_41)
 .vector_41     0x9fc01720        0x8 /opt/microchip/xc32/v1.43/bin/bin/../../lib/gcc/pic32mx/4.8.3/../../../../pic32mx/lib/libpic32.a(vector41.o)
                0x9fc01720                __vector_dispatch_41
                0x00000001                ASSERT (((_vector_spacing == 0x0) || (SIZEOF (.vector_41) <= (_vector_spacing << 0x5))), function at exception vector 41 too large)

.vector_42      0x9fc01740        0x8
 *(.vector_42)
 .vector_42     0x9fc01740        0x8 /opt/microchip/xc32/v1.43/bin/bin/../../lib/gcc/pic32mx/4.8.3/../../../../pic32mx/lib/libpic32.a(vector42.o)
                0x9fc01740                __vector_dispatch_42
                0x00000001                ASSERT (((_vector_spacing == 0x0) || (SIZEOF (.vector_42) <= (_vector_spacing << 0x5))), function at exception vector 42 too large)

.vector_43      0x9fc01760        0x8
 *(.vector_43)
 .vector_43     0x9fc01760        0x8 /opt/microchip/xc32/v1.43/bin/bin/../../lib/gcc/pic32mx/4.8.3/../../../../pic32mx/lib/libpic32.a(vector43.o)
                0x9fc01760                __vector_dispatch_43
                0x00000001                ASSERT (((_vector_spacing == 0x0) || (SIZEOF (.vector_43) <= (_vector_spacing << 0x5))), function at exception vector 43 too large)

.vector_44      0x9fc01780        0x8
 *(.vector_44)
 .vector_44     0x9fc01780        0x8 /opt/microchip/xc32/v1.43/bin/bin/../../lib/gcc/pic32mx/4.8.3/../../../../pic32mx/lib/libpic32.a(vector44.o)
                0x9fc01780                __vector_dispatch_44
                0x00000001                ASSERT (((_vector_spacing == 0x0) || (SIZEOF (.vector_44) <= (_vector_spacing << 0x5))), function at exception vector 44 too large)

.vector_45      0x9fc017a0        0x8
 *(.vector_45)
 .vector_45     0x9fc017a0        0x8 /opt/microchip/xc32/v1.43/bin/bin/../../lib/gcc/pic32mx/4.8.3/../../../../pic32mx/lib/libpic32.a(vector45.o)
                0x9fc017a0                __vector_dispatch_45
                0x00000001                ASSERT (((_vector_spacing == 0x0) || (SIZEOF (.vector_45) <= (_vector_spacing << 0x5))), function at exception vector 45 too large)

.vector_46      0x9fc017c0        0x8
 *(.vector_46)
 .vector_46     0x9fc017c0        0x8 /opt/microchip/xc32/v1.43/bin/bin/../../lib/gcc/pic32mx/4.8.3/../../../../pic32mx/lib/libpic32.a(vector46.o)
                0x9fc017c0                __vector_dispatch_46
                0x00000001                ASSERT (((_vector_spacing == 0x0) || (SIZEOF (.vector_46) <= (_vector_spacing << 0x5))), function at exception vector 46 too large)

.vector_47      0x9fc017e0        0x8
 *(.vector_47)
 .vector_47     0x9fc017e0        0x8 /opt/microchip/xc32/v1.43/bin/bin/../../lib/gcc/pic32mx/4.8.3/../../../../pic32mx/lib/libpic32.a(vector47.o)
                0x9fc017e0                __vector_dispatch_47
                0x00000001                ASSERT (((_vector_spacing == 0x0) || (SIZEOF (.vector_47) <= (_vector_spacing << 0x5))), function at exception vector 47 too large)

.vector_48      0x9fc01800        0x8
 *(.vector_48)
 .vector_48     0x9fc01800        0x8 build/DM30004-2/production/_ext/1280997252/system_interrupt.o
                0x9fc01800                __vector_dispatch_48
                0x00000001                ASSERT (((_vector_spacing == 0x0) || (SIZEOF (.vector_48) <= (_vector_spacing << 0x5))), function at exception vector 48 too large)

.vector_49      0x9fc01820        0x8
 *(.vector_49)
 .vector_49     0x9fc01820        0x8 /opt/microchip/xc32/v1.43/bin/bin/../../lib/gcc/pic32mx/4.8.3/../../../../pic32mx/lib/libpic32.a(vector49.o)
                0x9fc01820                __vector_dispatch_49
                0x00000001                ASSERT (((_vector_spacing == 0x0) || (SIZEOF (.vector_49) <= (_vector_spacing << 0x5))), function at exception vector 49 too large)

.vector_50      0x9fc01840        0x8
 *(.vector_50)
 .vector_50     0x9fc01840        0x8 /opt/microchip/xc32/v1.43/bin/bin/../../lib/gcc/pic32mx/4.8.3/../../../../pic32mx/lib/libpic32.a(vector50.o)
                0x9fc01840                __vector_dispatch_50
                0x00000001                ASSERT (((_vector_spacing == 0x0) || (SIZEOF (.vector_50) <= (_vector_spacing << 0x5))), function at exception vector 50 too large)

.vector_51      0x9fc01860        0x8
 *(.vector_51)
 .vector_51     0x9fc01860        0x8 /opt/microchip/xc32/v1.43/bin/bin/../../lib/gcc/pic32mx/4.8.3/../../../../pic32mx/lib/libpic32.a(vector51.o)
                0x9fc01860                __vector_dispatch_51
                0x00000001                ASSERT (((_vector_spacing == 0x0) || (SIZEOF (.vector_51) <= (_vector_spacing << 0x5))), function at exception vector 51 too large)

.vector_52      0x9fc01880        0x0
 *(.vector_52)
                0x00000001                ASSERT (((_vector_spacing == 0x0) || (SIZEOF (.vector_52) <= (_vector_spacing << 0x5))), function at exception vector 52 too large)

.vector_53      0x9fc018a0        0x0
 *(.vector_53)
                0x00000001                ASSERT (((_vector_spacing == 0x0) || (SIZEOF (.vector_53) <= (_vector_spacing << 0x5))), function at exception vector 53 too large)

.vector_54      0x9fc018c0        0x0
 *(.vector_54)
                0x00000001                ASSERT (((_vector_spacing == 0x0) || (SIZEOF (.vector_54) <= (_vector_spacing << 0x5))), function at exception vector 54 too large)

.vector_55      0x9fc018e0        0x0
 *(.vector_55)
                0x00000001                ASSERT (((_vector_spacing == 0x0) || (SIZEOF (.vector_55) <= (_vector_spacing << 0x5))), function at exception vector 55 too large)

.vector_56      0x9fc01900        0x0
 *(.vector_56)
                0x00000001                ASSERT (((_vector_spacing == 0x0) || (SIZEOF (.vector_56) <= (_vector_spacing << 0x5))), function at exception vector 56 too large)

.vector_57      0x9fc01920        0x0
 *(.vector_57)
                0x00000001                ASSERT (((_vector_spacing == 0x0) || (SIZEOF (.vector_57) <= (_vector_spacing << 0x5))), function at exception vector 57 too large)

.vector_58      0x9fc01940        0x0
 *(.vector_58)
                0x00000001                ASSERT (((_vector_spacing == 0x0) || (SIZEOF (.vector_58) <= (_vector_spacing << 0x5))), function at exception vector 58 too large)

.vector_59      0x9fc01960        0x0
 *(.vector_59)
                0x00000001                ASSERT (((_vector_spacing == 0x0) || (SIZEOF (.vector_59) <= (_vector_spacing << 0x5))), function at exception vector 59 too large)

.vector_60      0x9fc01980        0x0
 *(.vector_60)
                0x00000001                ASSERT (((_vector_spacing == 0x0) || (SIZEOF (.vector_60) <= (_vector_spacing << 0x5))), function at exception vector 60 too large)

.vector_61      0x9fc019a0        0x0
 *(.vector_61)
                0x00000001                ASSERT (((_vector_spacing == 0x0) || (SIZEOF (.vector_61) <= (_vector_spacing << 0x5))), function at exception vector 61 too large)

.vector_62      0x9fc019c0        0x0
 *(.vector_62)
                0x00000001                ASSERT (((_vector_spacing == 0x0) || (SIZEOF (.vector_62) <= (_vector_spacing << 0x5))), function at exception vector 62 too large)

.vector_63      0x9fc019e0        0x0
 *(.vector_63)
                0x00000001                ASSERT (((_vector_spacing == 0x0) || (SIZEOF (.vector_63) <= (_vector_spacing << 0x5))), function at exception vector 63 too large)

.startup
 *(.startup)

.text           0x9d000000        0x0
 *(.stub .gnu.linkonce.t.*)
 *(.text.*personality*)
 *(.mips16.fn.*)
 *(.mips16.call.*)
 *(.gnu.warning)
                0x9d000000                . = ALIGN (0x4)

.init           0x9d000000        0x0
 *crti.o(.init)
 *crtbegin.o(.init)
 *(EXCLUDE_FILE(*crtn.o *crtend?.o *crtend.o) .init)
 *crtend.o(.init)
 *crtn.o(.init)
                0x9d000000                . = ALIGN (0x4)

.fini           0x9d000000        0x0
 *(.fini)
                0x9d000000                . = ALIGN (0x4)

.preinit_array  0x9d000000        0x0
                0x9d000000                PROVIDE (__preinit_array_start, .)
 *(.preinit_array)
                0x9d000000                PROVIDE (__preinit_array_end, .)
                0x9d000000                . = ALIGN (0x4)

.init_array     0x9d000000        0x0
                0x9d000000                PROVIDE (__init_array_start, .)
 *(SORT(.init_array.*))
 *(.init_array)
                0x9d000000                PROVIDE (__init_array_end, .)
                0x9d000000                . = ALIGN (0x4)

.fini_array     0x9d000000        0x0
                0x9d000000                PROVIDE (__fini_array_start, .)
 *(SORT(.fini_array.*))
 *(.fini_array)
                0x9d000000                PROVIDE (__fini_array_end, .)
                0x9d000000                . = ALIGN (0x4)

.ctors          0x9d000000        0x0
 *crtbegin.o(.ctors)
 *crtbegin?.o(.ctors)
 *(EXCLUDE_FILE(*crtend?.o *crtend.o) .ctors)
 *(SORT(.ctors.*))
 *(.ctors)
                0x9d000000                . = ALIGN (0x4)

.dtors          0x9d000000        0x0
 *crtbegin.o(.dtors)
 *crtbegin?.o(.dtors)
 *(EXCLUDE_FILE(*crtend?.o *crtend.o) .dtors)
 *(SORT(.dtors.*))
 *(.dtors)
                0x9d000000                . = ALIGN (0x4)

.rodata         0x9d000000        0x0
 *(.gnu.linkonce.r.*)
 *(.rodata1)
                0x9d000000                . = ALIGN (0x4)

.sdata2         0x9fc00490        0x0
 *(.sdata2 .sdata2.* .gnu.linkonce.s2.*)
                0x9fc00490                . = ALIGN (0x4)

.sbss2          0x9fc00490        0x0
 *(.sbss2 .sbss2.* .gnu.linkonce.sb2.*)
                0x9fc00490                . = ALIGN (0x4)

.eh_frame_hdr
 *(.eh_frame_hdr)
                0x9fc00490                . = ALIGN (0x4)

.eh_frame
 *(.eh_frame)
                0x9fc00490                . = ALIGN (0x4)

.gcc_except_table
 *(.gcc_except_table .gcc_except_table.*)
                0x9fc00490                . = ALIGN (0x4)

.dbg_data       0xa0000000        0x0
                0xa0000000                . = (. + DEFINED (_DEBUGGER)?0x200:0x0)

.jcr            0xa0000000        0x0
 *(.jcr)
                0xa0000000                . = ALIGN (0x4)

.eh_frame
 *(.eh_frame)
                0xa0000000                . = ALIGN (0x4)

.gcc_except_table
 *(.gcc_except_table .gcc_except_table.*)
                0xa0000000                . = ALIGN (0x4)

.persist        0xa0000000        0x0
                0xa0000000                _persist_begin = .
 *(.persist .persist.*)
 *(.pbss .pbss.*)
                0xa0000000                . = ALIGN (0x4)
                0xa0000000                _persist_end = .

.data           0xa0000000        0x0
 *(.gnu.linkonce.d.*)
 *(.data1)
                0xa0000000                . = ALIGN (0x4)
                0xa0000000                . = .
                0xa0007ff0                _gp = (ALIGN (0x10) + 0x7ff0)

.got            0xa0000000        0x0
 *(.got.plt)
 *(.got)
                0xa0000000                . = ALIGN (0x4)

.sdata          0xa0000000       0x70
                0xa0000000                _sdata_begin = .
 *(.sdata .sdata.* .gnu.linkonce.s.*)
 .sdata         0xa0000000        0x8 build/DM30004-2/production/_ext/1360937237/app.o
                0xa0000000                server_id_end
                0xa0000004                idSuffix
 .sdata         0xa0000008        0x4 build/DM30004-2/production/_ext/1360937237/stream_echo.o
                0xa0000008                echoString
 .sdata         0xa000000c       0x50 build/DM30004-2/production/_ext/458569783/asn.o
                0xa000000c                END_PUB_KEY
                0xa0000010                BEGIN_PUB_KEY
                0xa0000014                END_DSA_PRIV
                0xa0000018                BEGIN_DSA_PRIV
                0xa000001c                END_EC_PRIV
                0xa0000020                BEGIN_EC_PRIV
                0xa0000024                END_ENC_PRIV_KEY
                0xa0000028                BEGIN_ENC_PRIV_KEY
                0xa000002c                END_PRIV_KEY
                0xa0000030                BEGIN_PRIV_KEY
                0xa0000034                END_RSA_PRIV
                0xa0000038                BEGIN_RSA_PRIV
                0xa000003c                END_X509_CRL
                0xa0000040                BEGIN_X509_CRL
                0xa0000044                END_DH_PARAM
                0xa0000048                BEGIN_DH_PARAM
                0xa000004c                END_CERT_REQ
                0xa0000050                BEGIN_CERT_REQ
                0xa0000054                END_CERT
                0xa0000058                BEGIN_CERT
 .sdata         0xa000005c        0x8 build/DM30004-2/production/_ext/1899562614/arp.o
 .sdata         0xa0000064        0x4 build/DM30004-2/production/_ext/1899562614/tcpip_manager.o
 .sdata         0xa0000068        0x2 build/DM30004-2/production/_ext/1442095083/unabto_common_main.o
                0xa0000068                nabtoCommunicationBufferSize
 *fill*         0xa000006a        0x2 
 .sdata         0xa000006c        0x4 /opt/microchip/xc32/v1.43/bin/bin/../../lib/gcc/pic32mx/4.8.3/../../../../pic32mx/lib/libpic32.a(xc32_uart.o)
                0xa000006c                __XC_UART
                0xa0000070                . = ALIGN (0x4)
                0xa0000070                _sdata_end = .

.lit8
 *(.lit8)

.lit4
 *(.lit4)
                0xa0000070                . = ALIGN (0x4)
                0xa0000070                _data_end = .
                0xa0000070                _bss_begin = .

.sbss           0xa0000070       0xd0
                0xa0000070                _sbss_begin = .
 *(.dynsbss)
 *(.sbss .sbss.* .gnu.linkonce.sb.*)
 .sbss          0xa0000070        0xc build/DM30004-2/production/_ext/1280997252/system_exceptions.o
 .sbss          0xa000007c        0xc build/DM30004-2/production/_ext/458569783/memory.o
 .sbss          0xa0000088        0x4 build/DM30004-2/production/_ext/854379441/drv_ethmac.o
 .sbss          0xa000008c        0x4 build/DM30004-2/production/_ext/2027566358/drv_tmr.o
 .sbss          0xa0000090       0x1c build/DM30004-2/production/_ext/1899562614/ipv4.o
                0xa0000090                _IPv4StayAssertLoop
 .sbss          0xa00000ac       0x1c build/DM30004-2/production/_ext/1899562614/udp.o
 .sbss          0xa00000c8       0x20 build/DM30004-2/production/_ext/1899562614/dhcp.o
 .sbss          0xa00000e8       0x10 build/DM30004-2/production/_ext/1899562614/dns.o
                0xa00000e8                _DNSStayCondLoop
                0xa00000ec                _DNSStayAssertLoop
 .sbss          0xa00000f8       0x24 build/DM30004-2/production/_ext/1899562614/tcpip_manager.o
 .sbss          0xa000011c        0x8 build/DM30004-2/production/_ext/1899562614/tcpip_packet.o
 .sbss          0xa0000124        0x4 build/DM30004-2/production/_ext/1442095083/unabto_connection.o
                0xa0000126                connection_timeout_cache_cached
 .sbss          0xa0000128        0x4 build/DM30004-2/production/_ext/1442095083/unabto_stream_window.o
 .sbss          0xa000012c        0x1 build/DM30004-2/production/_ext/2107900007/unabto_udp_debug.o
 *(.scommon)
 *fill*         0xa000012d        0x3 
 .scommon       0xa0000130        0x4 build/DM30004-2/production/_ext/1360937237/app.o
                0xa0000130                appData
 .scommon       0xa0000134        0x8 build/DM30004-2/production/_ext/1322803601/sys_devcon.o
                0xa0000134                sysDevconObj
 .scommon       0xa000013c        0x4 build/DM30004-2/production/_ext/1442095083/unabto_connection.o
                0xa000013c                connection_timeout_cache_stamp
                0xa0000140                _sbss_end = .
                0xa0000140                . = ALIGN (0x4)

.bss            0xa0000140     0xdb48
 *(.dynbss)
 *(COMMON)
 COMMON         0xa0000140       0x10 build/DM30004-2/production/_ext/1280997252/system_init.o
                0xa0000140                sysObj
 COMMON         0xa0000150       0x40 build/DM30004-2/production/_ext/1360937237/app.o
                0xa0000150                idBuffer
 COMMON         0xa0000190       0x10 build/DM30004-2/production/_ext/1360937237/stream_echo.o
                0xa0000190                echo_streams
 COMMON         0xa00001a0       0x60 build/DM30004-2/production/_ext/2030533247/drv_ethphy.o
                0xa00001a0                gDrvETHPHYClientObj
                0xa00001d8                gDrvETHPHYObj
 COMMON         0xa0000200      0x108 build/DM30004-2/production/_ext/1310142747/sys_random.o
                0xa0000200                sysRandCtx
 COMMON         0xa0000308      0x708 build/DM30004-2/production/_ext/1442095083/unabto_common_main.o
                0xa0000308                cryptoContextAttach
                0xa000037c                cryptoContextConnection
                0xa00003f0                nabtoCommunicationBuffer
                0xa0000948                nmc
 COMMON         0xa0000a10      0xa00 build/DM30004-2/production/_ext/1442095083/unabto_connection.o
                0xa0000a10                connections
 COMMON         0xa0001410     0xc878 build/DM30004-2/production/_ext/1442095083/unabto_stream_environment.o
                0xa0001410                x_buffers
                0xa0001640                r_buffers
                0xa0001730                x_buffer_data
                0xa000789c                stream__
                0xa0007b1c                r_buffer_data
                0xa000dc88                . = ALIGN ((. != 0x0)?0x4:0x1)
                0xa000dc88                . = ALIGN (0x4)
                0xa000dc88                _end = .
                0xa000dc88                _bss_end = .
                0x00020000                _bmxdudba_address = 0x20000
                0x00020000                _bmxdupba_address = 0x20000

/DISCARD/
 *(.pdr)
 *(.rel.dyn)
 *(.note.GNU-stack)
 *(.note.GNU-stack)
 *(.gnu_debuglink)
 *(.gnu.lto_*)
 *(.discard)

.gptab.sdata
 *(.gptab.data)
 *(.gptab.sdata)

.gptab.sbss
 *(.gptab.bss)
 *(.gptab.sbss)

.mdebug.abi32   0xa000dc88        0x0
 *(.mdebug.abi32)
 .mdebug.abi32  0xa000dc88        0x0 build/DM30004-2/production/_ext/2025569787/sys_clk_static.o
 .mdebug.abi32  0xa000dc88        0x0 build/DM30004-2/production/_ext/540202005/sys_ports_static.o
 .mdebug.abi32  0xa000dc88        0x0 build/DM30004-2/production/_ext/1280997252/system_init.o
 .mdebug.abi32  0xa000dc88        0x0 build/DM30004-2/production/_ext/1280997252/system_interrupt.o
 .mdebug.abi32  0xa000dc88        0x0 build/DM30004-2/production/_ext/1280997252/system_exceptions.o
 .mdebug.abi32  0xa000dc88        0x0 build/DM30004-2/production/_ext/1280997252/system_tasks.o
 .mdebug.abi32  0xa000dc88        0x0 build/DM30004-2/production/_ext/1360937237/app.o
 .mdebug.abi32  0xa000dc88        0x0 build/DM30004-2/production/_ext/1360937237/main.o
 .mdebug.abi32  0xa000dc88        0x0 build/DM30004-2/production/_ext/1360937237/stream_echo.o
 .mdebug.abi32  0xa000dc88        0x0 build/DM30004-2/production/_ext/632331575/bsp_sys_init.o
 .mdebug.abi32  0xa000dc88        0x0 build/DM30004-2/production/_ext/134845378/adler32.o
 .mdebug.abi32  0xa000dc88        0x0 build/DM30004-2/production/_ext/134845378/compress.o
 .mdebug.abi32  0xa000dc88        0x0 build/DM30004-2/production/_ext/134845378/crc32.o
 .mdebug.abi32  0xa000dc88        0x0 build/DM30004-2/production/_ext/134845378/deflate.o
 .mdebug.abi32  0xa000dc88        0x0 build/DM30004-2/production/_ext/134845378/infback.o
 .mdebug.abi32  0xa000dc88        0x0 build/DM30004-2/production/_ext/134845378/inffast.o
 .mdebug.abi32  0xa000dc88        0x0 build/DM30004-2/production/_ext/134845378/inflate.o
 .mdebug.abi32  0xa000dc88        0x0 build/DM30004-2/production/_ext/134845378/inftrees.o
 .mdebug.abi32  0xa000dc88        0x0 build/DM30004-2/production/_ext/134845378/trees.o
 .mdebug.abi32  0xa000dc88        0x0 build/DM30004-2/production/_ext/134845378/uncompr.o
 .mdebug.abi32  0xa000dc88        0x0 build/DM30004-2/production/_ext/134845378/zutil.o
 .mdebug.abi32  0xa000dc88        0x0 build/DM30004-2/production/_ext/458569783/ecc.o
 .mdebug.abi32  0xa000dc88        0x0 build/DM30004-2/production/_ext/458569783/arc4.o
 .mdebug.abi32  0xa000dc88        0x0 build/DM30004-2/production/_ext/458569783/pwdbased.o
 .mdebug.abi32  0xa000dc88        0x0 build/DM30004-2/production/_ext/458569783/tfm.o
 .mdebug.abi32  0xa000dc88        0x0 build/DM30004-2/production/_ext/458569783/asn.o
 .mdebug.abi32  0xa000dc88        0x0 build/DM30004-2/production/_ext/458569783/des3.o
 .mdebug.abi32  0xa000dc88        0x0 build/DM30004-2/production/_ext/458569783/rsa.o
 .mdebug.abi32  0xa000dc88        0x0 build/DM30004-2/production/_ext/458569783/aes.o
 .mdebug.abi32  0xa000dc88        0x0 build/DM30004-2/production/_ext/458569783/md5.o
 .mdebug.abi32  0xa000dc88        0x0 build/DM30004-2/production/_ext/458569783/sha.o
 .mdebug.abi32  0xa000dc88        0x0 build/DM30004-2/production/_ext/458569783/sha256.o
 .mdebug.abi32  0xa000dc88        0x0 build/DM30004-2/production/_ext/458569783/sha512.o
 .mdebug.abi32  0xa000dc88        0x0 build/DM30004-2/production/_ext/458569783/hmac.o
 .mdebug.abi32  0xa000dc88        0x0 build/DM30004-2/production/_ext/458569783/hash.o
 .mdebug.abi32  0xa000dc88        0x0 build/DM30004-2/production/_ext/458569783/compress.o
 .mdebug.abi32  0xa000dc88        0x0 build/DM30004-2/production/_ext/458569783/random.o
 .mdebug.abi32  0xa000dc88        0x0 build/DM30004-2/production/_ext/458569783/crypto.o
 .mdebug.abi32  0xa000dc88        0x0 build/DM30004-2/production/_ext/458569783/coding.o
 .mdebug.abi32  0xa000dc88        0x0 build/DM30004-2/production/_ext/458569783/error.o
 .mdebug.abi32  0xa000dc88        0x0 build/DM30004-2/production/_ext/458569783/integer.o
 .mdebug.abi32  0xa000dc88        0x0 build/DM30004-2/production/_ext/458569783/logging.o
 .mdebug.abi32  0xa000dc88        0x0 build/DM30004-2/production/_ext/458569783/memory.o
 .mdebug.abi32  0xa000dc88        0x0 build/DM30004-2/production/_ext/458569783/misc.o
 .mdebug.abi32  0xa000dc88        0x0 build/DM30004-2/production/_ext/458569783/port.o
 .mdebug.abi32  0xa000dc88        0x0 build/DM30004-2/production/_ext/854379441/drv_ethmac.o
 .mdebug.abi32  0xa000dc88        0x0 build/DM30004-2/production/_ext/854379441/drv_ethmac_lib.o
 .mdebug.abi32  0xa000dc88        0x0 build/DM30004-2/production/_ext/2030533247/drv_ethphy.o
 .mdebug.abi32  0xa000dc88        0x0 build/DM30004-2/production/_ext/2030533247/drv_extphy_smsc8740.o
 .mdebug.abi32  0xa000dc88        0x0 build/DM30004-2/production/_ext/2027566358/drv_tmr.o
 .mdebug.abi32  0xa000dc88        0x0 build/DM30004-2/production/_ext/1322803601/sys_devcon.o
 .mdebug.abi32  0xa000dc88        0x0 build/DM30004-2/production/_ext/1322803601/sys_devcon_pic32mx.o
 .mdebug.abi32  0xa000dc88        0x0 build/DM30004-2/production/_ext/1204230505/sys_int_pic32.o
 .mdebug.abi32  0xa000dc88        0x0 build/DM30004-2/production/_ext/1310142747/sys_random.o
 .mdebug.abi32  0xa000dc88        0x0 build/DM30004-2/production/_ext/62100799/sys_tmr.o
 .mdebug.abi32  0xa000dc88        0x0 build/DM30004-2/production/_ext/804969968/helpers.o
 .mdebug.abi32  0xa000dc88        0x0 build/DM30004-2/production/_ext/1899562614/ipv4.o
 .mdebug.abi32  0xa000dc88        0x0 build/DM30004-2/production/_ext/1899562614/udp.o
 .mdebug.abi32  0xa000dc88        0x0 build/DM30004-2/production/_ext/1899562614/tcpip_heap_alloc.o
 .mdebug.abi32  0xa000dc88        0x0 build/DM30004-2/production/_ext/1899562614/tcpip_heap_internal.o
 .mdebug.abi32  0xa000dc88        0x0 build/DM30004-2/production/_ext/1899562614/arp.o
 .mdebug.abi32  0xa000dc88        0x0 build/DM30004-2/production/_ext/1899562614/dhcp.o
 .mdebug.abi32  0xa000dc88        0x0 build/DM30004-2/production/_ext/1899562614/dns.o
 .mdebug.abi32  0xa000dc88        0x0 build/DM30004-2/production/_ext/1899562614/hash_fnv.o
 .mdebug.abi32  0xa000dc88        0x0 build/DM30004-2/production/_ext/1899562614/oahash.o
 .mdebug.abi32  0xa000dc88        0x0 build/DM30004-2/production/_ext/1899562614/tcpip_helpers.o
 .mdebug.abi32  0xa000dc88        0x0 build/DM30004-2/production/_ext/1899562614/tcpip_manager.o
 .mdebug.abi32  0xa000dc88        0x0 build/DM30004-2/production/_ext/1899562614/tcpip_notify.o
 .mdebug.abi32  0xa000dc88        0x0 build/DM30004-2/production/_ext/1899562614/tcpip_packet.o
 .mdebug.abi32  0xa000dc88        0x0 build/DM30004-2/production/_ext/1442095083/unabto_aes128_sha256.o
 .mdebug.abi32  0xa000dc88        0x0 build/DM30004-2/production/_ext/1442095083/unabto_app_adapter.o
 .mdebug.abi32  0xa000dc88        0x0 build/DM30004-2/production/_ext/1442095083/unabto_attach.o
 .mdebug.abi32  0xa000dc88        0x0 build/DM30004-2/production/_ext/1442095083/unabto_buffers.o
 .mdebug.abi32  0xa000dc88        0x0 build/DM30004-2/production/_ext/1442095083/unabto_common_main.o
 .mdebug.abi32  0xa000dc88        0x0 build/DM30004-2/production/_ext/1442095083/unabto_connection.o
 .mdebug.abi32  0xa000dc88        0x0 build/DM30004-2/production/_ext/1442095083/unabto_context.o
 .mdebug.abi32  0xa000dc88        0x0 build/DM30004-2/production/_ext/1442095083/unabto_crypto.o
 .mdebug.abi32  0xa000dc88        0x0 build/DM30004-2/production/_ext/1442095083/unabto_debug_packet.o
 .mdebug.abi32  0xa000dc88        0x0 build/DM30004-2/production/_ext/1442095083/unabto_extended_rendezvous.o
 .mdebug.abi32  0xa000dc88        0x0 build/DM30004-2/production/_ext/1442095083/unabto_memory.o
 .mdebug.abi32  0xa000dc88        0x0 build/DM30004-2/production/_ext/1442095083/unabto_message.o
 .mdebug.abi32  0xa000dc88        0x0 build/DM30004-2/production/_ext/1442095083/unabto_next_event.o
 .mdebug.abi32  0xa000dc88        0x0 build/DM30004-2/production/_ext/1442095083/unabto_packet.o
 .mdebug.abi32  0xa000dc88        0x0 build/DM30004-2/production/_ext/1442095083/unabto_packet_util.o
 .mdebug.abi32  0xa000dc88        0x0 build/DM30004-2/production/_ext/1442095083/unabto_prf.o
 .mdebug.abi32  0xa000dc88        0x0 build/DM30004-2/production/_ext/1442095083/unabto_query_rw.o
 .mdebug.abi32  0xa000dc88        0x0 build/DM30004-2/production/_ext/1442095083/unabto_stream.o
 .mdebug.abi32  0xa000dc88        0x0 build/DM30004-2/production/_ext/1442095083/unabto_stream_environment.o
 .mdebug.abi32  0xa000dc88        0x0 build/DM30004-2/production/_ext/1442095083/unabto_stream_event.o
 .mdebug.abi32  0xa000dc88        0x0 build/DM30004-2/production/_ext/1442095083/unabto_stream_window.o
 .mdebug.abi32  0xa000dc88        0x0 build/DM30004-2/production/_ext/1442095083/unabto_tcp_fallback.o
 .mdebug.abi32  0xa000dc88        0x0 build/DM30004-2/production/_ext/2107900007/unabto_harmony_crypto.o
 .mdebug.abi32  0xa000dc88        0x0 build/DM30004-2/production/_ext/2107900007/unabto_harmony_dns.o
 .mdebug.abi32  0xa000dc88        0x0 build/DM30004-2/production/_ext/2107900007/unabto_harmony_network.o
 .mdebug.abi32  0xa000dc88        0x0 build/DM30004-2/production/_ext/2107900007/unabto_harmony_random.o
 .mdebug.abi32  0xa000dc88        0x0 build/DM30004-2/production/_ext/2107900007/unabto_harmony_time.o
 .mdebug.abi32  0xa000dc88        0x0 build/DM30004-2/production/_ext/2107900007/unabto_udp_debug.o
 .mdebug.abi32  0xa000dc88        0x0 ../../../../../microchip/harmony/v1_11/bin/framework/peripheral/PIC32MX795F512L_peripherals.a(plib_eth_lib.o)
 .mdebug.abi32  0xa000dc88        0x0 /opt/microchip/xc32/v1.43/bin/bin/../../lib/gcc/pic32mx/4.8.3/libgcc.a(_divdi3.o)
 .mdebug.abi32  0xa000dc88        0x0 /opt/microchip/xc32/v1.43/bin/bin/../../lib/gcc/pic32mx/4.8.3/libgcc.a(_udivdi3.o)
 .mdebug.abi32  0xa000dc88        0x0 /opt/microchip/xc32/v1.43/bin/bin/../../lib/gcc/pic32mx/4.8.3/libgcc.a(floatunsisf.o)
 .mdebug.abi32  0xa000dc88        0x0 /opt/microchip/xc32/v1.43/bin/bin/../../lib/gcc/pic32mx/4.8.3/../../../../pic32mx/lib/libpic32.a(default-bootstrap-exception-handler.o)
 .mdebug.abi32  0xa000dc88        0x0 /opt/microchip/xc32/v1.43/bin/bin/../../lib/gcc/pic32mx/4.8.3/../../../../pic32mx/lib/libpic32.a(default-on-reset.o)
 .mdebug.abi32  0xa000dc88        0x0 /opt/microchip/xc32/v1.43/bin/bin/../../lib/gcc/pic32mx/4.8.3/../../../../pic32mx/lib/libpic32.a(default-on-bootstrap.o)
 .mdebug.abi32  0xa000dc88        0x0 /opt/microchip/xc32/v1.43/bin/bin/../../lib/gcc/pic32mx/4.8.3/../../../../pic32mx/lib/libpic32.a(defaultinterrupt.o)
 .mdebug.abi32  0xa000dc88        0x0 /opt/microchip/xc32/v1.43/bin/bin/../../lib/gcc/pic32mx/4.8.3/../../../../pic32mx/lib/libc.a(calloc.o)
 .mdebug.abi32  0xa000dc88        0x0 /opt/microchip/xc32/v1.43/bin/bin/../../lib/gcc/pic32mx/4.8.3/../../../../pic32mx/lib/libc.a(ctime.o)
 .mdebug.abi32  0xa000dc88        0x0 /opt/microchip/xc32/v1.43/bin/bin/../../lib/gcc/pic32mx/4.8.3/../../../../pic32mx/lib/libc.a(ctype.o)
 .mdebug.abi32  0xa000dc88        0x0 /opt/microchip/xc32/v1.43/bin/bin/../../lib/gcc/pic32mx/4.8.3/../../../../pic32mx/lib/libc.a(ctypef.o)
 .mdebug.abi32  0xa000dc88        0x0 /opt/microchip/xc32/v1.43/bin/bin/../../lib/gcc/pic32mx/4.8.3/../../../../pic32mx/lib/libc.a(malloc.o)
 .mdebug.abi32  0xa000dc88        0x0 /opt/microchip/xc32/v1.43/bin/bin/../../lib/gcc/pic32mx/4.8.3/../../../../pic32mx/lib/libc.a(memmove.o)
 .mdebug.abi32  0xa000dc88        0x0 /opt/microchip/xc32/v1.43/bin/bin/../../lib/gcc/pic32mx/4.8.3/../../../../pic32mx/lib/libc.a(rand.o)
 .mdebug.abi32  0xa000dc88        0x0 /opt/microchip/xc32/v1.43/bin/bin/../../lib/gcc/pic32mx/4.8.3/../../../../pic32mx/lib/libc.a(strncmp.o)
 .mdebug.abi32  0xa000dc88        0x0 /opt/microchip/xc32/v1.43/bin/bin/../../lib/gcc/pic32mx/4.8.3/../../../../pic32mx/lib/libc.a(strncpy.o)
 .mdebug.abi32  0xa000dc88        0x0 /opt/microchip/xc32/v1.43/bin/bin/../../lib/gcc/pic32mx/4.8.3/../../../../pic32mx/lib/libc.a(strtol.o)
 .mdebug.abi32  0xa000dc88        0x0 /opt/microchip/xc32/v1.43/bin/bin/../../lib/gcc/pic32mx/4.8.3/../../../../pic32mx/lib/libc.a(time.o)
 .mdebug.abi32  0xa000dc88        0x0 /opt/microchip/xc32/v1.43/bin/bin/../../lib/gcc/pic32mx/4.8.3/../../../../pic32mx/lib/libc.a(exit.o)
 .mdebug.abi32  0xa000dc88        0x0 /opt/microchip/xc32/v1.43/bin/bin/../../lib/gcc/pic32mx/4.8.3/../../../../pic32mx/lib/libc.a(stdclean_simple.o)
 .mdebug.abi32  0xa000dc88        0x0 /opt/microchip/xc32/v1.43/bin/bin/../../lib/gcc/pic32mx/4.8.3/../../../../pic32mx/lib/libc.a(sprintf_cdnopsuxX.eo)
 .mdebug.abi32  0xa000dc88        0x0 /opt/microchip/xc32/v1.43/bin/bin/../../lib/gcc/pic32mx/4.8.3/../../../../pic32mx/lib/libc.a(vsnprintf.o)
 .mdebug.abi32  0xa000dc88        0x0 /opt/microchip/xc32/v1.43/bin/bin/../../lib/gcc/pic32mx/4.8.3/../../../../pic32mx/lib/libc.a(errno.o)
 .mdebug.abi32  0xa000dc88        0x0 /opt/microchip/xc32/v1.43/bin/bin/../../lib/gcc/pic32mx/4.8.3/../../../../pic32mx/lib/libc.a(doprnt_cdnopsuxX.eo)
 .mdebug.abi32  0xa000dc88        0x0 /opt/microchip/xc32/v1.43/bin/bin/../../lib/gcc/pic32mx/4.8.3/../../../../pic32mx/lib/libc.a(doprnt.o)
 .mdebug.abi32  0xa000dc88        0x0 /opt/microchip/xc32/v1.43/bin/bin/../../lib/gcc/pic32mx/4.8.3/../../../../pic32mx/lib/libc.a(_fputc_simple.o)
 .mdebug.abi32  0xa000dc88        0x0 /opt/microchip/xc32/v1.43/bin/bin/../../lib/gcc/pic32mx/4.8.3/../../../../pic32mx/lib/libc.a(ldpowers.o)
 .mdebug.abi32  0xa000dc88        0x0 /opt/microchip/xc32/v1.43/bin/bin/../../lib/gcc/pic32mx/4.8.3/../../../../pic32mx/lib/libc.a(_iob.o)
 .mdebug.abi32  0xa000dc88        0x0 /opt/microchip/xc32/v1.43/bin/bin/../../lib/gcc/pic32mx/4.8.3/../../../../pic32mx/lib/libc.a(_flsbuf_simple.o)
 .mdebug.abi32  0xa000dc88        0x0 /opt/microchip/xc32/v1.43/bin/bin/../../lib/gcc/pic32mx/4.8.3/../../../../pic32mx/lib/libe.a(_fixunsdfdi.o)
 .mdebug.abi32  0xa000dc88        0x0 /opt/microchip/xc32/v1.43/bin/bin/../../lib/gcc/pic32mx/4.8.3/../../../../pic32mx/lib/libe.a(_orderdf2.o)
 .mdebug.abi32  0xa000dc88        0x0 /opt/microchip/xc32/v1.43/bin/bin/../../lib/gcc/pic32mx/4.8.3/../../../../pic32mx/lib/libe.a(_fixdfdi.o)
 .mdebug.abi32  0xa000dc88        0x0 /opt/microchip/xc32/v1.43/bin/bin/../../lib/gcc/pic32mx/4.8.3/libgcc.a(_umoddi3.o)
 .mdebug.abi32  0xa000dc88        0x0 /opt/microchip/xc32/v1.43/bin/bin/../../lib/gcc/pic32mx/4.8.3/libgcc.a(floatunsidf.o)
 .mdebug.abi32  0xa000dc88        0x0 /opt/microchip/xc32/v1.43/bin/bin/../../lib/gcc/pic32mx/4.8.3/../../../../pic32mx/lib/libpic32.a(sbrk.o)
 .mdebug.abi32  0xa000dc88        0x0 /opt/microchip/xc32/v1.43/bin/bin/../../lib/gcc/pic32mx/4.8.3/../../../../pic32mx/lib/libpic32.a(write.o)
 .mdebug.abi32  0xa000dc88        0x0 /opt/microchip/xc32/v1.43/bin/bin/../../lib/gcc/pic32mx/4.8.3/../../../../pic32mx/lib/libpic32.a(_mon_putc.o)
 .mdebug.abi32  0xa000dc88        0x0 /opt/microchip/xc32/v1.43/bin/bin/../../lib/gcc/pic32mx/4.8.3/../../../../pic32mx/lib/libpic32.a(xc32_uart.o)

.mdebug.abiN32
 *(.mdebug.abiN32)

.mdebug.abi64
 *(.mdebug.abi64)

.mdebug.abiO64
 *(.mdebug.abiO64)

.mdebug.eabi32
 *(.mdebug.eabi32)

.mdebug.eabi64
 *(.mdebug.eabi64)

.gcc_compiled_long32
 *(.gcc_compiled_long32)

.gcc_compiled_long64
 *(.gcc_compiled_long64)

.stab
 *(.stab)

.stabstr
 *(.stabstr)

.stab.excl
 *(.stab.excl)

.stab.exclstr
 *(.stab.exclstr)

.stab.index
 *(.stab.index)

.stab.indexstr
 *(.stab.indexstr)

.comment        0x00000000      0x301
 *(.comment)
 .comment       0x00000000       0x3c build/DM30004-2/production/_ext/2025569787/sys_clk_static.o
                                 0x3d (size before relaxing)
 .comment       0x00000000       0x3d build/DM30004-2/production/_ext/540202005/sys_ports_static.o
 .comment       0x00000000       0x3d build/DM30004-2/production/_ext/1280997252/system_init.o
 .comment       0x00000000       0x3d build/DM30004-2/production/_ext/1280997252/system_interrupt.o
 .comment       0x00000000       0x3d build/DM30004-2/production/_ext/1280997252/system_exceptions.o
 .comment       0x00000000       0x3d build/DM30004-2/production/_ext/1280997252/system_tasks.o
 .comment       0x00000000       0x3d build/DM30004-2/production/_ext/1360937237/app.o
 .comment       0x00000000       0x3d build/DM30004-2/production/_ext/1360937237/main.o
 .comment       0x00000000       0x3d build/DM30004-2/production/_ext/1360937237/stream_echo.o
 .comment       0x00000000       0x3d build/DM30004-2/production/_ext/632331575/bsp_sys_init.o
 .comment       0x00000000       0x3d build/DM30004-2/production/_ext/134845378/adler32.o
 .comment       0x00000000       0x3d build/DM30004-2/production/_ext/134845378/compress.o
 .comment       0x00000000       0x3d build/DM30004-2/production/_ext/134845378/crc32.o
 .comment       0x00000000       0x3d build/DM30004-2/production/_ext/134845378/deflate.o
 .comment       0x00000000       0x3d build/DM30004-2/production/_ext/134845378/infback.o
 .comment       0x00000000       0x3d build/DM30004-2/production/_ext/134845378/inffast.o
 .comment       0x00000000       0x3d build/DM30004-2/production/_ext/134845378/inflate.o
 .comment       0x00000000       0x3d build/DM30004-2/production/_ext/134845378/inftrees.o
 .comment       0x00000000       0x3d build/DM30004-2/production/_ext/134845378/trees.o
 .comment       0x00000000       0x3d build/DM30004-2/production/_ext/134845378/uncompr.o
 .comment       0x00000000       0x3d build/DM30004-2/production/_ext/134845378/zutil.o
 .comment       0x00000000       0x3d build/DM30004-2/production/_ext/458569783/ecc.o
 .comment       0x00000000       0x3d build/DM30004-2/production/_ext/458569783/arc4.o
 .comment       0x00000000       0x3d build/DM30004-2/production/_ext/458569783/pwdbased.o
 .comment       0x00000000       0x3d build/DM30004-2/production/_ext/458569783/tfm.o
 .comment       0x00000000       0x3d build/DM30004-2/production/_ext/458569783/asn.o
 .comment       0x00000000       0x3d build/DM30004-2/production/_ext/458569783/des3.o
 .comment       0x00000000       0x3d build/DM30004-2/production/_ext/458569783/rsa.o
 .comment       0x00000000       0x3d build/DM30004-2/production/_ext/458569783/aes.o
 .comment       0x00000000       0x3d build/DM30004-2/production/_ext/458569783/md5.o
 .comment       0x00000000       0x3d build/DM30004-2/production/_ext/458569783/sha.o
 .comment       0x00000000       0x3d build/DM30004-2/production/_ext/458569783/sha256.o
 .comment       0x00000000       0x3d build/DM30004-2/production/_ext/458569783/sha512.o
 .comment       0x00000000       0x3d build/DM30004-2/production/_ext/458569783/hmac.o
 .comment       0x00000000       0x3d build/DM30004-2/production/_ext/458569783/hash.o
 .comment       0x00000000       0x3d build/DM30004-2/production/_ext/458569783/compress.o
 .comment       0x00000000       0x3d build/DM30004-2/production/_ext/458569783/random.o
 .comment       0x00000000       0x3d build/DM30004-2/production/_ext/458569783/crypto.o
 .comment       0x00000000       0x3d build/DM30004-2/production/_ext/458569783/coding.o
 .comment       0x00000000       0x3d build/DM30004-2/production/_ext/458569783/error.o
 .comment       0x00000000       0x3d build/DM30004-2/production/_ext/458569783/integer.o
 .comment       0x00000000       0x3d build/DM30004-2/production/_ext/458569783/logging.o
 .comment       0x00000000       0x3d build/DM30004-2/production/_ext/458569783/memory.o
 .comment       0x00000000       0x3d build/DM30004-2/production/_ext/458569783/misc.o
 .comment       0x00000000       0x3d build/DM30004-2/production/_ext/458569783/port.o
 .comment       0x00000000       0x3d build/DM30004-2/production/_ext/854379441/drv_ethmac.o
 .comment       0x00000000       0x3d build/DM30004-2/production/_ext/854379441/drv_ethmac_lib.o
 .comment       0x00000000       0x3d build/DM30004-2/production/_ext/2030533247/drv_ethphy.o
 .comment       0x00000000       0x3d build/DM30004-2/production/_ext/2030533247/drv_extphy_smsc8740.o
 .comment       0x00000000       0x3d build/DM30004-2/production/_ext/2027566358/drv_tmr.o
 .comment       0x00000000       0x3d build/DM30004-2/production/_ext/1322803601/sys_devcon.o
 .comment       0x00000000       0x3d build/DM30004-2/production/_ext/1322803601/sys_devcon_pic32mx.o
 .comment       0x00000000       0x3d build/DM30004-2/production/_ext/1204230505/sys_int_pic32.o
 .comment       0x00000000       0x3d build/DM30004-2/production/_ext/1310142747/sys_random.o
 .comment       0x00000000       0x3d build/DM30004-2/production/_ext/62100799/sys_tmr.o
 .comment       0x00000000       0x3d build/DM30004-2/production/_ext/804969968/helpers.o
 .comment       0x00000000       0x3d build/DM30004-2/production/_ext/1899562614/ipv4.o
 .comment       0x00000000       0x3d build/DM30004-2/production/_ext/1899562614/udp.o
 .comment       0x00000000       0x3d build/DM30004-2/production/_ext/1899562614/tcpip_heap_alloc.o
 .comment       0x00000000       0x3d build/DM30004-2/production/_ext/1899562614/tcpip_heap_internal.o
 .comment       0x00000000       0x3d build/DM30004-2/production/_ext/1899562614/arp.o
 .comment       0x00000000       0x3d build/DM30004-2/production/_ext/1899562614/dhcp.o
 .comment       0x00000000       0x3d build/DM30004-2/production/_ext/1899562614/dns.o
 .comment       0x00000000       0x3d build/DM30004-2/production/_ext/1899562614/hash_fnv.o
 .comment       0x00000000       0x3d build/DM30004-2/production/_ext/1899562614/oahash.o
 .comment       0x00000000       0x3d build/DM30004-2/production/_ext/1899562614/tcpip_helpers.o
 .comment       0x00000000       0x3d build/DM30004-2/production/_ext/1899562614/tcpip_manager.o
 .comment       0x00000000       0x3d build/DM30004-2/production/_ext/1899562614/tcpip_notify.o
 .comment       0x00000000       0x3d build/DM30004-2/production/_ext/1899562614/tcpip_packet.o
 .comment       0x00000000       0x3d build/DM30004-2/production/_ext/1442095083/unabto_aes128_sha256.o
 .comment       0x00000000       0x3d build/DM30004-2/production/_ext/1442095083/unabto_app_adapter.o
 .comment       0x00000000       0x3d build/DM30004-2/production/_ext/1442095083/unabto_attach.o
 .comment       0x00000000       0x3d build/DM30004-2/production/_ext/1442095083/unabto_buffers.o
 .comment       0x00000000       0x3d build/DM30004-2/production/_ext/1442095083/unabto_common_main.o
 .comment       0x00000000       0x3d build/DM30004-2/production/_ext/1442095083/unabto_connection.o
 .comment       0x00000000       0x3d build/DM30004-2/production/_ext/1442095083/unabto_context.o
 .comment       0x00000000       0x3d build/DM30004-2/production/_ext/1442095083/unabto_crypto.o
 .comment       0x00000000       0x3d build/DM30004-2/production/_ext/1442095083/unabto_debug_packet.o
 .comment       0x00000000       0x3d build/DM30004-2/production/_ext/1442095083/unabto_extended_rendezvous.o
 .comment       0x00000000       0x3d build/DM30004-2/production/_ext/1442095083/unabto_memory.o
 .comment       0x00000000       0x3d build/DM30004-2/production/_ext/1442095083/unabto_message.o
 .comment       0x00000000       0x3d build/DM30004-2/production/_ext/1442095083/unabto_next_event.o
 .comment       0x00000000       0x3d build/DM30004-2/production/_ext/1442095083/unabto_packet.o
 .comment       0x00000000       0x3d build/DM30004-2/production/_ext/1442095083/unabto_packet_util.o
 .comment       0x00000000       0x3d build/DM30004-2/production/_ext/1442095083/unabto_prf.o
 .comment       0x00000000       0x3d build/DM30004-2/production/_ext/1442095083/unabto_query_rw.o
 .comment       0x00000000       0x3d build/DM30004-2/production/_ext/1442095083/unabto_stream.o
 .comment       0x00000000       0x3d build/DM30004-2/production/_ext/1442095083/unabto_stream_environment.o
 .comment       0x00000000       0x3d build/DM30004-2/production/_ext/1442095083/unabto_stream_event.o
 .comment       0x00000000       0x3d build/DM30004-2/production/_ext/1442095083/unabto_stream_window.o
 .comment       0x00000000       0x3d build/DM30004-2/production/_ext/1442095083/unabto_tcp_fallback.o
 .comment       0x00000000       0x3d build/DM30004-2/production/_ext/2107900007/unabto_harmony_crypto.o
 .comment       0x00000000       0x3d build/DM30004-2/production/_ext/2107900007/unabto_harmony_dns.o
 .comment       0x00000000       0x3d build/DM30004-2/production/_ext/2107900007/unabto_harmony_network.o
 .comment       0x00000000       0x3d build/DM30004-2/production/_ext/2107900007/unabto_harmony_random.o
 .comment       0x00000000       0x3d build/DM30004-2/production/_ext/2107900007/unabto_harmony_time.o
 .comment       0x00000000       0x3d build/DM30004-2/production/_ext/2107900007/unabto_udp_debug.o
 .comment       0x0000003c       0x3c ../../../../../microchip/harmony/v1_11/bin/framework/peripheral/PIC32MX795F512L_peripherals.a(plib_eth_lib.o)
                                 0x3d (size before relaxing)
 .comment       0x00000000       0x3d /opt/microchip/xc32/v1.43/bin/bin/../../lib/gcc/pic32mx/4.8.3/libgcc.a(_divdi3.o)
 .comment       0x00000000       0x3d /opt/microchip/xc32/v1.43/bin/bin/../../lib/gcc/pic32mx/4.8.3/libgcc.a(_udivdi3.o)
 .comment       0x00000000       0x3d /opt/microchip/xc32/v1.43/bin/bin/../../lib/gcc/pic32mx/4.8.3/libgcc.a(floatunsisf.o)
 .comment       0x00000078       0x18 /opt/microchip/xc32/v1.43/bin/bin/../../lib/gcc/pic32mx/4.8.3/../../../../pic32mx/lib/libpic32.a(memcmp.o)
                                 0x19 (size before relaxing)
 .comment       0x00000090       0x18 /opt/microchip/xc32/v1.43/bin/bin/../../lib/gcc/pic32mx/4.8.3/../../../../pic32mx/lib/libpic32.a(memset.o)
                                 0x19 (size before relaxing)
 .comment       0x000000a8       0x19 /opt/microchip/xc32/v1.43/bin/bin/../../lib/gcc/pic32mx/4.8.3/../../../../pic32mx/lib/libpic32.a(strcmp.o)
                                 0x1a (size before relaxing)
 .comment       0x000000c1       0x19 /opt/microchip/xc32/v1.43/bin/bin/../../lib/gcc/pic32mx/4.8.3/../../../../pic32mx/lib/libpic32.a(strlen.o)
                                 0x1a (size before relaxing)
 .comment       0x00000000       0x3d /opt/microchip/xc32/v1.43/bin/bin/../../lib/gcc/pic32mx/4.8.3/../../../../pic32mx/lib/libpic32.a(default-bootstrap-exception-handler.o)
 .comment       0x00000000       0x3d /opt/microchip/xc32/v1.43/bin/bin/../../lib/gcc/pic32mx/4.8.3/../../../../pic32mx/lib/libpic32.a(default-on-reset.o)
 .comment       0x00000000       0x3d /opt/microchip/xc32/v1.43/bin/bin/../../lib/gcc/pic32mx/4.8.3/../../../../pic32mx/lib/libpic32.a(default-on-bootstrap.o)
 .comment       0x00000000       0x3d /opt/microchip/xc32/v1.43/bin/bin/../../lib/gcc/pic32mx/4.8.3/../../../../pic32mx/lib/libpic32.a(defaultinterrupt.o)
 .comment       0x00000000       0x3d /opt/microchip/xc32/v1.43/bin/bin/../../lib/gcc/pic32mx/4.8.3/../../../../pic32mx/lib/libc.a(calloc.o)
 .comment       0x00000000       0x3d /opt/microchip/xc32/v1.43/bin/bin/../../lib/gcc/pic32mx/4.8.3/../../../../pic32mx/lib/libc.a(ctime.o)
 .comment       0x000000da       0x4e /opt/microchip/xc32/v1.43/bin/bin/../../lib/gcc/pic32mx/4.8.3/../../../../pic32mx/lib/libc.a(ctype.o)
                                 0x8b (size before relaxing)
 .comment       0x00000128       0x4f /opt/microchip/xc32/v1.43/bin/bin/../../lib/gcc/pic32mx/4.8.3/../../../../pic32mx/lib/libc.a(ctypef.o)
                                 0x8c (size before relaxing)
 .comment       0x00000000       0x3d /opt/microchip/xc32/v1.43/bin/bin/../../lib/gcc/pic32mx/4.8.3/../../../../pic32mx/lib/libc.a(malloc.o)
 .comment       0x00000000       0x3d /opt/microchip/xc32/v1.43/bin/bin/../../lib/gcc/pic32mx/4.8.3/../../../../pic32mx/lib/libc.a(memmove.o)
 .comment       0x00000000       0x3d /opt/microchip/xc32/v1.43/bin/bin/../../lib/gcc/pic32mx/4.8.3/../../../../pic32mx/lib/libc.a(rand.o)
 .comment       0x00000000       0x3d /opt/microchip/xc32/v1.43/bin/bin/../../lib/gcc/pic32mx/4.8.3/../../../../pic32mx/lib/libc.a(strncmp.o)
 .comment       0x00000000       0x3d /opt/microchip/xc32/v1.43/bin/bin/../../lib/gcc/pic32mx/4.8.3/../../../../pic32mx/lib/libc.a(strncpy.o)
 .comment       0x00000000       0x3d /opt/microchip/xc32/v1.43/bin/bin/../../lib/gcc/pic32mx/4.8.3/../../../../pic32mx/lib/libc.a(strtol.o)
 .comment       0x00000000       0x3d /opt/microchip/xc32/v1.43/bin/bin/../../lib/gcc/pic32mx/4.8.3/../../../../pic32mx/lib/libc.a(time.o)
 .comment       0x00000000       0x3d /opt/microchip/xc32/v1.43/bin/bin/../../lib/gcc/pic32mx/4.8.3/../../../../pic32mx/lib/libc.a(exit.o)
 .comment       0x00000000       0x3d /opt/microchip/xc32/v1.43/bin/bin/../../lib/gcc/pic32mx/4.8.3/../../../../pic32mx/lib/libc.a(stdclean_simple.o)
 .comment       0x00000000       0x3d /opt/microchip/xc32/v1.43/bin/bin/../../lib/gcc/pic32mx/4.8.3/../../../../pic32mx/lib/libc.a(sprintf_cdnopsuxX.eo)
 .comment       0x00000000       0x3d /opt/microchip/xc32/v1.43/bin/bin/../../lib/gcc/pic32mx/4.8.3/../../../../pic32mx/lib/libc.a(vsnprintf.o)
 .comment       0x00000000       0x3d /opt/microchip/xc32/v1.43/bin/bin/../../lib/gcc/pic32mx/4.8.3/../../../../pic32mx/lib/libc.a(errno.o)
 .comment       0x00000000       0x3d /opt/microchip/xc32/v1.43/bin/bin/../../lib/gcc/pic32mx/4.8.3/../../../../pic32mx/lib/libc.a(doprnt_cdnopsuxX.eo)
 .comment       0x00000000       0x3d /opt/microchip/xc32/v1.43/bin/bin/../../lib/gcc/pic32mx/4.8.3/../../../../pic32mx/lib/libc.a(doprnt.o)
 .comment       0x00000000       0x3d /opt/microchip/xc32/v1.43/bin/bin/../../lib/gcc/pic32mx/4.8.3/../../../../pic32mx/lib/libc.a(_fputc_simple.o)
 .comment       0x00000000       0x3d /opt/microchip/xc32/v1.43/bin/bin/../../lib/gcc/pic32mx/4.8.3/../../../../pic32mx/lib/libc.a(ldpowers.o)
 .comment       0x00000000       0x3d /opt/microchip/xc32/v1.43/bin/bin/../../lib/gcc/pic32mx/4.8.3/../../../../pic32mx/lib/libc.a(_iob.o)
 .comment       0x00000000       0x3d /opt/microchip/xc32/v1.43/bin/bin/../../lib/gcc/pic32mx/4.8.3/../../../../pic32mx/lib/libc.a(_flsbuf_simple.o)
 .comment       0x00000177       0x9f /opt/microchip/xc32/v1.43/bin/bin/../../lib/gcc/pic32mx/4.8.3/../../../../pic32mx/lib/libe.a(_fixunsdfdi.o)
                                 0xdc (size before relaxing)
 .comment       0x00000216       0x50 /opt/microchip/xc32/v1.43/bin/bin/../../lib/gcc/pic32mx/4.8.3/../../../../pic32mx/lib/libe.a(_orderdf2.o)
                                 0xdb (size before relaxing)
 .comment       0x00000266       0x50 /opt/microchip/xc32/v1.43/bin/bin/../../lib/gcc/pic32mx/4.8.3/../../../../pic32mx/lib/libe.a(_fixdfdi.o)
                                 0xdb (size before relaxing)
 .comment       0x00000000       0x3d /opt/microchip/xc32/v1.43/bin/bin/../../lib/gcc/pic32mx/4.8.3/libgcc.a(_umoddi3.o)
 .comment       0x00000000       0x3d /opt/microchip/xc32/v1.43/bin/bin/../../lib/gcc/pic32mx/4.8.3/libgcc.a(floatunsidf.o)
 .comment       0x000002b6       0x4b /opt/microchip/xc32/v1.43/bin/bin/../../lib/gcc/pic32mx/4.8.3/../../../../pic32mx/lib/libpic32.a(sbrk.o)
                                 0x88 (size before relaxing)
 .comment       0x00000000       0x3d /opt/microchip/xc32/v1.43/bin/bin/../../lib/gcc/pic32mx/4.8.3/../../../../pic32mx/lib/libpic32.a(write.o)
 .comment       0x00000000       0x3d /opt/microchip/xc32/v1.43/bin/bin/../../lib/gcc/pic32mx/4.8.3/../../../../pic32mx/lib/libpic32.a(_mon_putc.o)
 .comment       0x00000000       0x3d /opt/microchip/xc32/v1.43/bin/bin/../../lib/gcc/pic32mx/4.8.3/../../../../pic32mx/lib/libpic32.a(xc32_uart.o)

.debug
 *(.debug)

.line
 *(.line)

.debug_srcinfo
 *(.debug_srcinfo)

.debug_sfnames
 *(.debug_sfnames)

.debug_aranges  0x00000000     0x3810
 *(.debug_aranges)
 .debug_aranges
                0x00000000       0x50 build/DM30004-2/production/_ext/2025569787/sys_clk_static.o
 .debug_aranges
                0x00000050      0x108 build/DM30004-2/production/_ext/540202005/sys_ports_static.o
 .debug_aranges
                0x00000158       0x28 build/DM30004-2/production/_ext/1280997252/system_init.o
 .debug_aranges
                0x00000180       0x30 build/DM30004-2/production/_ext/1280997252/system_interrupt.o
 .debug_aranges
                0x000001b0       0x20 build/DM30004-2/production/_ext/1280997252/system_exceptions.o
 .debug_aranges
                0x000001d0       0x20 build/DM30004-2/production/_ext/1280997252/system_tasks.o
 .debug_aranges
                0x000001f0       0x30 build/DM30004-2/production/_ext/1360937237/app.o
 .debug_aranges
                0x00000220       0x20 build/DM30004-2/production/_ext/1360937237/main.o
 .debug_aranges
                0x00000240       0x40 build/DM30004-2/production/_ext/1360937237/stream_echo.o
 .debug_aranges
                0x00000280       0x60 build/DM30004-2/production/_ext/632331575/bsp_sys_init.o
 .debug_aranges
                0x000002e0       0x38 build/DM30004-2/production/_ext/134845378/adler32.o
 .debug_aranges
                0x00000318       0x30 build/DM30004-2/production/_ext/134845378/compress.o
 .debug_aranges
                0x00000348       0x50 build/DM30004-2/production/_ext/134845378/crc32.o
 .debug_aranges
                0x00000398       0xc0 build/DM30004-2/production/_ext/134845378/deflate.o
 .debug_aranges
                0x00000458       0x30 build/DM30004-2/production/_ext/134845378/infback.o
 .debug_aranges
                0x00000488       0x20 build/DM30004-2/production/_ext/134845378/inffast.o
 .debug_aranges
                0x000004a8       0xa0 build/DM30004-2/production/_ext/134845378/inflate.o
 .debug_aranges
                0x00000548       0x20 build/DM30004-2/production/_ext/134845378/inftrees.o
 .debug_aranges
                0x00000568       0x88 build/DM30004-2/production/_ext/134845378/trees.o
 .debug_aranges
                0x000005f0       0x20 build/DM30004-2/production/_ext/134845378/uncompr.o
 .debug_aranges
                0x00000610       0x40 build/DM30004-2/production/_ext/134845378/zutil.o
 .debug_aranges
                0x00000650       0x18 build/DM30004-2/production/_ext/458569783/ecc.o
 .debug_aranges
                0x00000668       0x28 build/DM30004-2/production/_ext/458569783/arc4.o
 .debug_aranges
                0x00000690       0x48 build/DM30004-2/production/_ext/458569783/pwdbased.o
 .debug_aranges
                0x000006d8       0x18 build/DM30004-2/production/_ext/458569783/tfm.o
 .debug_aranges
                0x000006f0      0x188 build/DM30004-2/production/_ext/458569783/asn.o
 .debug_aranges
                0x00000878       0x78 build/DM30004-2/production/_ext/458569783/des3.o
 .debug_aranges
                0x000008f0       0xa8 build/DM30004-2/production/_ext/458569783/rsa.o
 .debug_aranges
                0x00000998       0x68 build/DM30004-2/production/_ext/458569783/aes.o
 .debug_aranges
                0x00000a00       0x40 build/DM30004-2/production/_ext/458569783/md5.o
 .debug_aranges
                0x00000a40       0x38 build/DM30004-2/production/_ext/458569783/sha.o
 .debug_aranges
                0x00000a78       0x38 build/DM30004-2/production/_ext/458569783/sha256.o
 .debug_aranges
                0x00000ab0       0x18 build/DM30004-2/production/_ext/458569783/sha512.o
 .debug_aranges
                0x00000ac8       0x40 build/DM30004-2/production/_ext/458569783/hmac.o
 .debug_aranges
                0x00000b08       0x70 build/DM30004-2/production/_ext/458569783/hash.o
 .debug_aranges
                0x00000b78       0x18 build/DM30004-2/production/_ext/458569783/compress.o
 .debug_aranges
                0x00000b90       0x78 build/DM30004-2/production/_ext/458569783/random.o
 .debug_aranges
                0x00000c08      0x138 build/DM30004-2/production/_ext/458569783/crypto.o
 .debug_aranges
                0x00000d40       0x48 build/DM30004-2/production/_ext/458569783/coding.o
 .debug_aranges
                0x00000d88       0x28 build/DM30004-2/production/_ext/458569783/error.o
 .debug_aranges
                0x00000db0      0x260 build/DM30004-2/production/_ext/458569783/integer.o
 .debug_aranges
                0x00001010       0x30 build/DM30004-2/production/_ext/458569783/logging.o
 .debug_aranges
                0x00001040       0x38 build/DM30004-2/production/_ext/458569783/memory.o
 .debug_aranges
                0x00001078       0x18 build/DM30004-2/production/_ext/458569783/misc.o
 .debug_aranges
                0x00001090       0x40 build/DM30004-2/production/_ext/458569783/port.o
 .debug_aranges
                0x000010d0      0x180 build/DM30004-2/production/_ext/854379441/drv_ethmac.o
 .debug_aranges
                0x00001250       0xf0 build/DM30004-2/production/_ext/854379441/drv_ethmac_lib.o
 .debug_aranges
                0x00001340      0x280 build/DM30004-2/production/_ext/2030533247/drv_ethphy.o
 .debug_aranges
                0x000015c0       0x30 build/DM30004-2/production/_ext/2030533247/drv_extphy_smsc8740.o
 .debug_aranges
                0x000015f0      0x178 build/DM30004-2/production/_ext/2027566358/drv_tmr.o
 .debug_aranges
                0x00001768       0x78 build/DM30004-2/production/_ext/1322803601/sys_devcon.o
 .debug_aranges
                0x000017e0       0x20 build/DM30004-2/production/_ext/1322803601/sys_devcon_pic32mx.o
 .debug_aranges
                0x00001800       0x48 build/DM30004-2/production/_ext/1204230505/sys_int_pic32.o
 .debug_aranges
                0x00001848       0x68 build/DM30004-2/production/_ext/1310142747/sys_random.o
 .debug_aranges
                0x000018b0       0xd0 build/DM30004-2/production/_ext/62100799/sys_tmr.o
 .debug_aranges
                0x00001980       0x40 build/DM30004-2/production/_ext/804969968/helpers.o
 .debug_aranges
                0x000019c0       0x90 build/DM30004-2/production/_ext/1899562614/ipv4.o
 .debug_aranges
                0x00001a50      0x1b8 build/DM30004-2/production/_ext/1899562614/udp.o
 .debug_aranges
                0x00001c08       0x48 build/DM30004-2/production/_ext/1899562614/tcpip_heap_alloc.o
 .debug_aranges
                0x00001c50       0x60 build/DM30004-2/production/_ext/1899562614/tcpip_heap_internal.o
 .debug_aranges
                0x00001cb0      0x110 build/DM30004-2/production/_ext/1899562614/arp.o
 .debug_aranges
                0x00001dc0      0x180 build/DM30004-2/production/_ext/1899562614/dhcp.o
 .debug_aranges
                0x00001f40      0x140 build/DM30004-2/production/_ext/1899562614/dns.o
 .debug_aranges
                0x00002080       0x28 build/DM30004-2/production/_ext/1899562614/hash_fnv.o
 .debug_aranges
                0x000020a8       0x50 build/DM30004-2/production/_ext/1899562614/oahash.o
 .debug_aranges
                0x000020f8      0x210 build/DM30004-2/production/_ext/1899562614/tcpip_helpers.o
 .debug_aranges
                0x00002308       0x20 build/DM30004-2/production/_ext/1899562614/tcpip_helper_c32.o
 .debug_aranges
                0x00002328      0x370 build/DM30004-2/production/_ext/1899562614/tcpip_manager.o
 .debug_aranges
                0x00002698       0x40 build/DM30004-2/production/_ext/1899562614/tcpip_notify.o
 .debug_aranges
                0x000026d8       0x78 build/DM30004-2/production/_ext/1899562614/tcpip_packet.o
 .debug_aranges
                0x00002750       0x20 build/DM30004-2/production/_ext/1442095083/unabto_aes128_sha256.o
 .debug_aranges
                0x00002770       0x48 build/DM30004-2/production/_ext/1442095083/unabto_app_adapter.o
 .debug_aranges
                0x000027b8       0xd0 build/DM30004-2/production/_ext/1442095083/unabto_attach.o
 .debug_aranges
                0x00002888       0xa0 build/DM30004-2/production/_ext/1442095083/unabto_buffers.o
 .debug_aranges
                0x00002928       0x78 build/DM30004-2/production/_ext/1442095083/unabto_common_main.o
 .debug_aranges
                0x000029a0      0x110 build/DM30004-2/production/_ext/1442095083/unabto_connection.o
 .debug_aranges
                0x00002ab0       0x40 build/DM30004-2/production/_ext/1442095083/unabto_context.o
 .debug_aranges
                0x00002af0       0x98 build/DM30004-2/production/_ext/1442095083/unabto_crypto.o
 .debug_aranges
                0x00002b88       0x18 build/DM30004-2/production/_ext/1442095083/unabto_debug_packet.o
 .debug_aranges
                0x00002ba0       0x28 build/DM30004-2/production/_ext/1442095083/unabto_extended_rendezvous.o
 .debug_aranges
                0x00002bc8       0x18 build/DM30004-2/production/_ext/1442095083/unabto_memory.o
 .debug_aranges
                0x00002be0       0x38 build/DM30004-2/production/_ext/1442095083/unabto_message.o
 .debug_aranges
                0x00002c18       0x28 build/DM30004-2/production/_ext/1442095083/unabto_next_event.o
 .debug_aranges
                0x00002c40       0x70 build/DM30004-2/production/_ext/1442095083/unabto_packet.o
 .debug_aranges
                0x00002cb0       0xc0 build/DM30004-2/production/_ext/1442095083/unabto_packet_util.o
 .debug_aranges
                0x00002d70       0x28 build/DM30004-2/production/_ext/1442095083/unabto_prf.o
 .debug_aranges
                0x00002d98       0xe0 build/DM30004-2/production/_ext/1442095083/unabto_query_rw.o
 .debug_aranges
                0x00002e78       0xa0 build/DM30004-2/production/_ext/1442095083/unabto_stream.o
 .debug_aranges
                0x00002f18       0x30 build/DM30004-2/production/_ext/1442095083/unabto_stream_environment.o
 .debug_aranges
                0x00002f48       0xa0 build/DM30004-2/production/_ext/1442095083/unabto_stream_event.o
 .debug_aranges
                0x00002fe8      0x1e0 build/DM30004-2/production/_ext/1442095083/unabto_stream_window.o
 .debug_aranges
                0x000031c8       0x18 build/DM30004-2/production/_ext/1442095083/unabto_tcp_fallback.o
 .debug_aranges
                0x000031e0       0x30 build/DM30004-2/production/_ext/2107900007/unabto_harmony_crypto.o
 .debug_aranges
                0x00003210       0x28 build/DM30004-2/production/_ext/2107900007/unabto_harmony_dns.o
 .debug_aranges
                0x00003238       0x40 build/DM30004-2/production/_ext/2107900007/unabto_harmony_network.o
 .debug_aranges
                0x00003278       0x20 build/DM30004-2/production/_ext/2107900007/unabto_harmony_random.o
 .debug_aranges
                0x00003298       0x40 build/DM30004-2/production/_ext/2107900007/unabto_harmony_time.o
 .debug_aranges
                0x000032d8       0x28 build/DM30004-2/production/_ext/2107900007/unabto_udp_debug.o
 .debug_aranges
                0x00003300       0x20 /opt/microchip/xc32/v1.43/bin/bin/../../lib/gcc/pic32mx/4.8.3/libgcc.a(_divdi3.o)
 .debug_aranges
                0x00003320       0x20 /opt/microchip/xc32/v1.43/bin/bin/../../lib/gcc/pic32mx/4.8.3/libgcc.a(_udivdi3.o)
 .debug_aranges
                0x00003340       0x20 /opt/microchip/xc32/v1.43/bin/bin/../../lib/gcc/pic32mx/4.8.3/libgcc.a(floatunsisf.o)
 .debug_aranges
                0x00003360       0x20 /opt/microchip/xc32/v1.43/bin/bin/../../lib/gcc/pic32mx/4.8.3/../../../../pic32mx/lib/libpic32.a(default-bootstrap-exception-handler.o)
 .debug_aranges
                0x00003380       0x20 /opt/microchip/xc32/v1.43/bin/bin/../../lib/gcc/pic32mx/4.8.3/../../../../pic32mx/lib/libpic32.a(default-on-reset.o)
 .debug_aranges
                0x000033a0       0x20 /opt/microchip/xc32/v1.43/bin/bin/../../lib/gcc/pic32mx/4.8.3/../../../../pic32mx/lib/libpic32.a(default-on-bootstrap.o)
 .debug_aranges
                0x000033c0       0x20 /opt/microchip/xc32/v1.43/bin/bin/../../lib/gcc/pic32mx/4.8.3/../../../../pic32mx/lib/libpic32.a(defaultinterrupt.o)
 .debug_aranges
                0x000033e0       0x20 /opt/microchip/xc32/v1.43/bin/bin/../../lib/gcc/pic32mx/4.8.3/../../../../pic32mx/lib/libc.a(calloc.o)
 .debug_aranges
                0x00003400       0x40 /opt/microchip/xc32/v1.43/bin/bin/../../lib/gcc/pic32mx/4.8.3/../../../../pic32mx/lib/libc.a(ctime.o)
 .debug_aranges
                0x00003440       0xa0 /opt/microchip/xc32/v1.43/bin/bin/../../lib/gcc/pic32mx/4.8.3/../../../../pic32mx/lib/libc.a(ctypef.o)
 .debug_aranges
                0x000034e0       0x30 /opt/microchip/xc32/v1.43/bin/bin/../../lib/gcc/pic32mx/4.8.3/../../../../pic32mx/lib/libc.a(malloc.o)
 .debug_aranges
                0x00003510       0x20 /opt/microchip/xc32/v1.43/bin/bin/../../lib/gcc/pic32mx/4.8.3/../../../../pic32mx/lib/libc.a(memmove.o)
 .debug_aranges
                0x00003530       0x28 /opt/microchip/xc32/v1.43/bin/bin/../../lib/gcc/pic32mx/4.8.3/../../../../pic32mx/lib/libc.a(rand.o)
 .debug_aranges
                0x00003558       0x20 /opt/microchip/xc32/v1.43/bin/bin/../../lib/gcc/pic32mx/4.8.3/../../../../pic32mx/lib/libc.a(strncmp.o)
 .debug_aranges
                0x00003578       0x20 /opt/microchip/xc32/v1.43/bin/bin/../../lib/gcc/pic32mx/4.8.3/../../../../pic32mx/lib/libc.a(strncpy.o)
 .debug_aranges
                0x00003598       0x28 /opt/microchip/xc32/v1.43/bin/bin/../../lib/gcc/pic32mx/4.8.3/../../../../pic32mx/lib/libc.a(strtol.o)
 .debug_aranges
                0x000035c0       0x20 /opt/microchip/xc32/v1.43/bin/bin/../../lib/gcc/pic32mx/4.8.3/../../../../pic32mx/lib/libc.a(time.o)
 .debug_aranges
                0x000035e0       0x20 /opt/microchip/xc32/v1.43/bin/bin/../../lib/gcc/pic32mx/4.8.3/../../../../pic32mx/lib/libc.a(exit.o)
 .debug_aranges
                0x00003600       0x20 /opt/microchip/xc32/v1.43/bin/bin/../../lib/gcc/pic32mx/4.8.3/../../../../pic32mx/lib/libc.a(stdclean_simple.o)
 .debug_aranges
                0x00003620       0x20 /opt/microchip/xc32/v1.43/bin/bin/../../lib/gcc/pic32mx/4.8.3/../../../../pic32mx/lib/libc.a(sprintf_cdnopsuxX.eo)
 .debug_aranges
                0x00003640       0x20 /opt/microchip/xc32/v1.43/bin/bin/../../lib/gcc/pic32mx/4.8.3/../../../../pic32mx/lib/libc.a(vsnprintf.o)
 .debug_aranges
                0x00003660       0x20 /opt/microchip/xc32/v1.43/bin/bin/../../lib/gcc/pic32mx/4.8.3/../../../../pic32mx/lib/libc.a(doprnt_cdnopsuxX.eo)
 .debug_aranges
                0x00003680       0x30 /opt/microchip/xc32/v1.43/bin/bin/../../lib/gcc/pic32mx/4.8.3/../../../../pic32mx/lib/libc.a(doprnt.o)
 .debug_aranges
                0x000036b0       0x20 /opt/microchip/xc32/v1.43/bin/bin/../../lib/gcc/pic32mx/4.8.3/../../../../pic32mx/lib/libc.a(_fputc_simple.o)
 .debug_aranges
                0x000036d0       0x20 /opt/microchip/xc32/v1.43/bin/bin/../../lib/gcc/pic32mx/4.8.3/../../../../pic32mx/lib/libc.a(_flsbuf_simple.o)
 .debug_aranges
                0x000036f0       0x20 /opt/microchip/xc32/v1.43/bin/bin/../../lib/gcc/pic32mx/4.8.3/../../../../pic32mx/lib/libe.a(_fixunsdfdi.o)
 .debug_aranges
                0x00003710       0x20 /opt/microchip/xc32/v1.43/bin/bin/../../lib/gcc/pic32mx/4.8.3/../../../../pic32mx/lib/libe.a(_orderdf2.o)
 .debug_aranges
                0x00003730       0x20 /opt/microchip/xc32/v1.43/bin/bin/../../lib/gcc/pic32mx/4.8.3/../../../../pic32mx/lib/libe.a(_fixdfdi.o)
 .debug_aranges
                0x00003750       0x20 /opt/microchip/xc32/v1.43/bin/bin/../../lib/gcc/pic32mx/4.8.3/libgcc.a(_umoddi3.o)
 .debug_aranges
                0x00003770       0x20 /opt/microchip/xc32/v1.43/bin/bin/../../lib/gcc/pic32mx/4.8.3/libgcc.a(floatunsidf.o)
 .debug_aranges
                0x00003790       0x40 /opt/microchip/xc32/v1.43/bin/bin/../../lib/gcc/pic32mx/4.8.3/../../../../pic32mx/lib/libpic32.a(sbrk.o)
 .debug_aranges
                0x000037d0       0x20 /opt/microchip/xc32/v1.43/bin/bin/../../lib/gcc/pic32mx/4.8.3/../../../../pic32mx/lib/libpic32.a(write.o)
 .debug_aranges
                0x000037f0       0x20 /opt/microchip/xc32/v1.43/bin/bin/../../lib/gcc/pic32mx/4.8.3/../../../../pic32mx/lib/libpic32.a(_mon_putc.o)

.debug_pubnames
 *(.debug_pubnames)

.debug_info     0x00000000    0xe070d
 *(.debug_info .gnu.linkonce.wi.*)
 .debug_info    0x00000000     0x1545 build/DM30004-2/production/_ext/2025569787/sys_clk_static.o
 .debug_info    0x00001545     0x3c9e build/DM30004-2/production/_ext/540202005/sys_ports_static.o
 .debug_info    0x000051e3     0x5f51 build/DM30004-2/production/_ext/1280997252/system_init.o
 .debug_info    0x0000b134     0x14c2 build/DM30004-2/production/_ext/1280997252/system_interrupt.o
 .debug_info    0x0000c5f6      0xa96 build/DM30004-2/production/_ext/1280997252/system_exceptions.o
 .debug_info    0x0000d08c      0x95d build/DM30004-2/production/_ext/1280997252/system_tasks.o
 .debug_info    0x0000d9e9     0x1b4e build/DM30004-2/production/_ext/1360937237/app.o
 .debug_info    0x0000f537      0x1a7 build/DM30004-2/production/_ext/1360937237/main.o
 .debug_info    0x0000f6de     0x14d4 build/DM30004-2/production/_ext/1360937237/stream_echo.o
 .debug_info    0x00010bb2     0x1002 build/DM30004-2/production/_ext/632331575/bsp_sys_init.o
 .debug_info    0x00011bb4      0x3af build/DM30004-2/production/_ext/134845378/adler32.o
 .debug_info    0x00011f63      0x606 build/DM30004-2/production/_ext/134845378/compress.o
 .debug_info    0x00012569      0x639 build/DM30004-2/production/_ext/134845378/crc32.o
 .debug_info    0x00012ba2     0x2453 build/DM30004-2/production/_ext/134845378/deflate.o
 .debug_info    0x00014ff5     0x17cd build/DM30004-2/production/_ext/134845378/infback.o
 .debug_info    0x000167c2      0xa24 build/DM30004-2/production/_ext/134845378/inffast.o
 .debug_info    0x000171e6     0x1f15 build/DM30004-2/production/_ext/134845378/inflate.o
 .debug_info    0x000190fb      0x4b8 build/DM30004-2/production/_ext/134845378/inftrees.o
 .debug_info    0x000195b3     0x1f3e build/DM30004-2/production/_ext/134845378/trees.o
 .debug_info    0x0001b4f1      0x526 build/DM30004-2/production/_ext/134845378/uncompr.o
 .debug_info    0x0001ba17      0x364 build/DM30004-2/production/_ext/134845378/zutil.o
 .debug_info    0x0001bd7b      0x36e build/DM30004-2/production/_ext/458569783/ecc.o
 .debug_info    0x0001c0e9      0x5d6 build/DM30004-2/production/_ext/458569783/arc4.o
 .debug_info    0x0001c6bf     0x2684 build/DM30004-2/production/_ext/458569783/pwdbased.o
 .debug_info    0x0001ed43      0x36e build/DM30004-2/production/_ext/458569783/tfm.o
 .debug_info    0x0001f0b1     0x8aab build/DM30004-2/production/_ext/458569783/asn.o
 .debug_info    0x00027b5c     0x1892 build/DM30004-2/production/_ext/458569783/des3.o
 .debug_info    0x000293ee     0x35c3 build/DM30004-2/production/_ext/458569783/rsa.o
 .debug_info    0x0002c9b1     0x1b28 build/DM30004-2/production/_ext/458569783/aes.o
 .debug_info    0x0002e4d9     0x10f2 build/DM30004-2/production/_ext/458569783/md5.o
 .debug_info    0x0002f5cb     0x28cd build/DM30004-2/production/_ext/458569783/sha.o
 .debug_info    0x00031e98     0x12f6 build/DM30004-2/production/_ext/458569783/sha256.o
 .debug_info    0x0003318e      0x371 build/DM30004-2/production/_ext/458569783/sha512.o
 .debug_info    0x000334ff     0x15e1 build/DM30004-2/production/_ext/458569783/hmac.o
 .debug_info    0x00034ae0     0x14a7 build/DM30004-2/production/_ext/458569783/hash.o
 .debug_info    0x00035f87      0x373 build/DM30004-2/production/_ext/458569783/compress.o
 .debug_info    0x000362fa     0x273c build/DM30004-2/production/_ext/458569783/random.o
 .debug_info    0x00038a36     0x2d1b build/DM30004-2/production/_ext/458569783/crypto.o
 .debug_info    0x0003b751     0x14c5 build/DM30004-2/production/_ext/458569783/coding.o
 .debug_info    0x0003cc16      0xbc5 build/DM30004-2/production/_ext/458569783/error.o
 .debug_info    0x0003d7db     0x5a70 build/DM30004-2/production/_ext/458569783/integer.o
 .debug_info    0x0004324b      0xb81 build/DM30004-2/production/_ext/458569783/logging.o
 .debug_info    0x00043dcc      0xea7 build/DM30004-2/production/_ext/458569783/memory.o
 .debug_info    0x00044c73      0x36f build/DM30004-2/production/_ext/458569783/misc.o
 .debug_info    0x00044fe2      0x483 build/DM30004-2/production/_ext/458569783/port.o
 .debug_info    0x00045465     0x98b8 build/DM30004-2/production/_ext/854379441/drv_ethmac.o
 .debug_info    0x0004ed1d     0x898a build/DM30004-2/production/_ext/854379441/drv_ethmac_lib.o
 .debug_info    0x000576a7     0x73ae build/DM30004-2/production/_ext/2030533247/drv_ethphy.o
 .debug_info    0x0005ea55     0x1cba build/DM30004-2/production/_ext/2030533247/drv_extphy_smsc8740.o
 .debug_info    0x0006070f     0x6527 build/DM30004-2/production/_ext/2027566358/drv_tmr.o
 .debug_info    0x00066c36     0x149c build/DM30004-2/production/_ext/1322803601/sys_devcon.o
 .debug_info    0x000680d2      0xf5e build/DM30004-2/production/_ext/1322803601/sys_devcon_pic32mx.o
 .debug_info    0x00069030     0x17c5 build/DM30004-2/production/_ext/1204230505/sys_int_pic32.o
 .debug_info    0x0006a7f5      0xba7 build/DM30004-2/production/_ext/1310142747/sys_random.o
 .debug_info    0x0006b39c     0x2622 build/DM30004-2/production/_ext/62100799/sys_tmr.o
 .debug_info    0x0006d9be      0x495 build/DM30004-2/production/_ext/804969968/helpers.o
 .debug_info    0x0006de53     0x5781 build/DM30004-2/production/_ext/1899562614/ipv4.o
 .debug_info    0x000735d4     0x80b6 build/DM30004-2/production/_ext/1899562614/udp.o
 .debug_info    0x0007b68a     0x11b4 build/DM30004-2/production/_ext/1899562614/tcpip_heap_alloc.o
 .debug_info    0x0007c83e     0x1ef7 build/DM30004-2/production/_ext/1899562614/tcpip_heap_internal.o
 .debug_info    0x0007e735     0x68c1 build/DM30004-2/production/_ext/1899562614/arp.o
 .debug_info    0x00084ff6     0x8f47 build/DM30004-2/production/_ext/1899562614/dhcp.o
 .debug_info    0x0008df3d     0x7363 build/DM30004-2/production/_ext/1899562614/dns.o
 .debug_info    0x000952a0      0x28a build/DM30004-2/production/_ext/1899562614/hash_fnv.o
 .debug_info    0x0009552a      0x8a4 build/DM30004-2/production/_ext/1899562614/oahash.o
 .debug_info    0x00095dce     0x4fc9 build/DM30004-2/production/_ext/1899562614/tcpip_helpers.o
 .debug_info    0x0009ad97       0xb9 build/DM30004-2/production/_ext/1899562614/tcpip_helper_c32.o
 .debug_info    0x0009ae50     0xa82f build/DM30004-2/production/_ext/1899562614/tcpip_manager.o
 .debug_info    0x000a567f     0x1111 build/DM30004-2/production/_ext/1899562614/tcpip_notify.o
 .debug_info    0x000a6790     0x1d87 build/DM30004-2/production/_ext/1899562614/tcpip_packet.o
 .debug_info    0x000a8517      0xaeb build/DM30004-2/production/_ext/1442095083/unabto_aes128_sha256.o
 .debug_info    0x000a9002     0x19ca build/DM30004-2/production/_ext/1442095083/unabto_app_adapter.o
 .debug_info    0x000aa9cc     0x3f54 build/DM30004-2/production/_ext/1442095083/unabto_attach.o
 .debug_info    0x000ae920      0xf31 build/DM30004-2/production/_ext/1442095083/unabto_buffers.o
 .debug_info    0x000af851     0x2331 build/DM30004-2/production/_ext/1442095083/unabto_common_main.o
 .debug_info    0x000b1b82     0x500d build/DM30004-2/production/_ext/1442095083/unabto_connection.o
 .debug_info    0x000b6b8f     0x1249 build/DM30004-2/production/_ext/1442095083/unabto_context.o
 .debug_info    0x000b7dd8     0x2599 build/DM30004-2/production/_ext/1442095083/unabto_crypto.o
 .debug_info    0x000ba371      0x809 build/DM30004-2/production/_ext/1442095083/unabto_debug_packet.o
 .debug_info    0x000bab7a      0x98b build/DM30004-2/production/_ext/1442095083/unabto_extended_rendezvous.o
 .debug_info    0x000bb505      0x803 build/DM30004-2/production/_ext/1442095083/unabto_memory.o
 .debug_info    0x000bbd08     0x26b5 build/DM30004-2/production/_ext/1442095083/unabto_message.o
 .debug_info    0x000be3bd     0x1784 build/DM30004-2/production/_ext/1442095083/unabto_next_event.o
 .debug_info    0x000bfb41     0x37f1 build/DM30004-2/production/_ext/1442095083/unabto_packet.o
 .debug_info    0x000c3332     0x2aa6 build/DM30004-2/production/_ext/1442095083/unabto_packet_util.o
 .debug_info    0x000c5dd8      0xc90 build/DM30004-2/production/_ext/1442095083/unabto_prf.o
 .debug_info    0x000c6a68     0x1446 build/DM30004-2/production/_ext/1442095083/unabto_query_rw.o
 .debug_info    0x000c7eae     0x265f build/DM30004-2/production/_ext/1442095083/unabto_stream.o
 .debug_info    0x000ca50d     0x276f build/DM30004-2/production/_ext/1442095083/unabto_stream_environment.o
 .debug_info    0x000ccc7c     0x4a5e build/DM30004-2/production/_ext/1442095083/unabto_stream_event.o
 .debug_info    0x000d16da     0x62eb build/DM30004-2/production/_ext/1442095083/unabto_stream_window.o
 .debug_info    0x000d79c5      0x809 build/DM30004-2/production/_ext/1442095083/unabto_tcp_fallback.o
 .debug_info    0x000d81ce     0x1189 build/DM30004-2/production/_ext/2107900007/unabto_harmony_crypto.o
 .debug_info    0x000d9357      0xdc0 build/DM30004-2/production/_ext/2107900007/unabto_harmony_dns.o
 .debug_info    0x000da117     0x10e1 build/DM30004-2/production/_ext/2107900007/unabto_harmony_network.o
 .debug_info    0x000db1f8      0x8c2 build/DM30004-2/production/_ext/2107900007/unabto_harmony_random.o
 .debug_info    0x000dbaba      0xa87 build/DM30004-2/production/_ext/2107900007/unabto_harmony_time.o
 .debug_info    0x000dc541      0xf95 build/DM30004-2/production/_ext/2107900007/unabto_udp_debug.o
 .debug_info    0x000dd4d6      0x7a3 /opt/microchip/xc32/v1.43/bin/bin/../../lib/gcc/pic32mx/4.8.3/libgcc.a(_divdi3.o)
 .debug_info    0x000ddc79      0x76f /opt/microchip/xc32/v1.43/bin/bin/../../lib/gcc/pic32mx/4.8.3/libgcc.a(_udivdi3.o)
 .debug_info    0x000de3e8      0x12f /opt/microchip/xc32/v1.43/bin/bin/../../lib/gcc/pic32mx/4.8.3/libgcc.a(floatunsisf.o)
 .debug_info    0x000de517       0xf5 /opt/microchip/xc32/v1.43/bin/bin/../../lib/gcc/pic32mx/4.8.3/../../../../pic32mx/lib/libpic32.a(default-bootstrap-exception-handler.o)
 .debug_info    0x000de60c       0xce /opt/microchip/xc32/v1.43/bin/bin/../../lib/gcc/pic32mx/4.8.3/../../../../pic32mx/lib/libpic32.a(default-on-reset.o)
 .debug_info    0x000de6da       0xd6 /opt/microchip/xc32/v1.43/bin/bin/../../lib/gcc/pic32mx/4.8.3/../../../../pic32mx/lib/libpic32.a(default-on-bootstrap.o)
 .debug_info    0x000de7b0       0xe8 /opt/microchip/xc32/v1.43/bin/bin/../../lib/gcc/pic32mx/4.8.3/../../../../pic32mx/lib/libpic32.a(defaultinterrupt.o)
 .debug_info    0x000de898       0xc6 /opt/microchip/xc32/v1.43/bin/bin/../../lib/gcc/pic32mx/4.8.3/../../../../pic32mx/lib/libc.a(calloc.o)
 .debug_info    0x000de95e      0x134 /opt/microchip/xc32/v1.43/bin/bin/../../lib/gcc/pic32mx/4.8.3/../../../../pic32mx/lib/libc.a(ctime.o)
 .debug_info    0x000dea92      0x23a /opt/microchip/xc32/v1.43/bin/bin/../../lib/gcc/pic32mx/4.8.3/../../../../pic32mx/lib/libc.a(ctypef.o)
 .debug_info    0x000deccc       0xf7 /opt/microchip/xc32/v1.43/bin/bin/../../lib/gcc/pic32mx/4.8.3/../../../../pic32mx/lib/libc.a(malloc.o)
 .debug_info    0x000dedc3       0xc8 /opt/microchip/xc32/v1.43/bin/bin/../../lib/gcc/pic32mx/4.8.3/../../../../pic32mx/lib/libc.a(memmove.o)
 .debug_info    0x000dee8b       0xdd /opt/microchip/xc32/v1.43/bin/bin/../../lib/gcc/pic32mx/4.8.3/../../../../pic32mx/lib/libc.a(rand.o)
 .debug_info    0x000def68       0xc8 /opt/microchip/xc32/v1.43/bin/bin/../../lib/gcc/pic32mx/4.8.3/../../../../pic32mx/lib/libc.a(strncmp.o)
 .debug_info    0x000df030       0xc8 /opt/microchip/xc32/v1.43/bin/bin/../../lib/gcc/pic32mx/4.8.3/../../../../pic32mx/lib/libc.a(strncpy.o)
 .debug_info    0x000df0f8       0xdd /opt/microchip/xc32/v1.43/bin/bin/../../lib/gcc/pic32mx/4.8.3/../../../../pic32mx/lib/libc.a(strtol.o)
 .debug_info    0x000df1d5       0xc2 /opt/microchip/xc32/v1.43/bin/bin/../../lib/gcc/pic32mx/4.8.3/../../../../pic32mx/lib/libc.a(time.o)
 .debug_info    0x000df297       0xc2 /opt/microchip/xc32/v1.43/bin/bin/../../lib/gcc/pic32mx/4.8.3/../../../../pic32mx/lib/libc.a(exit.o)
 .debug_info    0x000df359       0xca /opt/microchip/xc32/v1.43/bin/bin/../../lib/gcc/pic32mx/4.8.3/../../../../pic32mx/lib/libc.a(stdclean_simple.o)
 .debug_info    0x000df423       0xd3 /opt/microchip/xc32/v1.43/bin/bin/../../lib/gcc/pic32mx/4.8.3/../../../../pic32mx/lib/libc.a(sprintf_cdnopsuxX.eo)
 .debug_info    0x000df4f6       0xcc /opt/microchip/xc32/v1.43/bin/bin/../../lib/gcc/pic32mx/4.8.3/../../../../pic32mx/lib/libc.a(vsnprintf.o)
 .debug_info    0x000df5c2       0xd4 /opt/microchip/xc32/v1.43/bin/bin/../../lib/gcc/pic32mx/4.8.3/../../../../pic32mx/lib/libc.a(doprnt_cdnopsuxX.eo)
 .debug_info    0x000df696      0x100 /opt/microchip/xc32/v1.43/bin/bin/../../lib/gcc/pic32mx/4.8.3/../../../../pic32mx/lib/libc.a(doprnt.o)
 .debug_info    0x000df796       0xc4 /opt/microchip/xc32/v1.43/bin/bin/../../lib/gcc/pic32mx/4.8.3/../../../../pic32mx/lib/libc.a(_fputc_simple.o)
 .debug_info    0x000df85a       0xc7 /opt/microchip/xc32/v1.43/bin/bin/../../lib/gcc/pic32mx/4.8.3/../../../../pic32mx/lib/libc.a(_flsbuf_simple.o)
 .debug_info    0x000df921       0xcf /opt/microchip/xc32/v1.43/bin/bin/../../lib/gcc/pic32mx/4.8.3/../../../../pic32mx/lib/libe.a(_fixunsdfdi.o)
 .debug_info    0x000df9f0       0xbb /opt/microchip/xc32/v1.43/bin/bin/../../lib/gcc/pic32mx/4.8.3/../../../../pic32mx/lib/libe.a(_orderdf2.o)
 .debug_info    0x000dfaab       0xba /opt/microchip/xc32/v1.43/bin/bin/../../lib/gcc/pic32mx/4.8.3/../../../../pic32mx/lib/libe.a(_fixdfdi.o)
 .debug_info    0x000dfb65      0x7ac /opt/microchip/xc32/v1.43/bin/bin/../../lib/gcc/pic32mx/4.8.3/libgcc.a(_umoddi3.o)
 .debug_info    0x000e0311      0x142 /opt/microchip/xc32/v1.43/bin/bin/../../lib/gcc/pic32mx/4.8.3/libgcc.a(floatunsidf.o)
 .debug_info    0x000e0453      0x132 /opt/microchip/xc32/v1.43/bin/bin/../../lib/gcc/pic32mx/4.8.3/../../../../pic32mx/lib/libpic32.a(sbrk.o)
 .debug_info    0x000e0585       0xc0 /opt/microchip/xc32/v1.43/bin/bin/../../lib/gcc/pic32mx/4.8.3/../../../../pic32mx/lib/libpic32.a(write.o)
 .debug_info    0x000e0645       0xc8 /opt/microchip/xc32/v1.43/bin/bin/../../lib/gcc/pic32mx/4.8.3/../../../../pic32mx/lib/libpic32.a(_mon_putc.o)

.debug_abbrev   0x00000000     0xf52d
 *(.debug_abbrev)
 .debug_abbrev  0x00000000      0x27b build/DM30004-2/production/_ext/2025569787/sys_clk_static.o
 .debug_abbrev  0x0000027b      0x222 build/DM30004-2/production/_ext/540202005/sys_ports_static.o
 .debug_abbrev  0x0000049d      0x378 build/DM30004-2/production/_ext/1280997252/system_init.o
 .debug_abbrev  0x00000815      0x1af build/DM30004-2/production/_ext/1280997252/system_interrupt.o
 .debug_abbrev  0x000009c4       0xa9 build/DM30004-2/production/_ext/1280997252/system_exceptions.o
 .debug_abbrev  0x00000a6d       0xc3 build/DM30004-2/production/_ext/1280997252/system_tasks.o
 .debug_abbrev  0x00000b30      0x225 build/DM30004-2/production/_ext/1360937237/app.o
 .debug_abbrev  0x00000d55       0x93 build/DM30004-2/production/_ext/1360937237/main.o
 .debug_abbrev  0x00000de8      0x1e8 build/DM30004-2/production/_ext/1360937237/stream_echo.o
 .debug_abbrev  0x00000fd0      0x187 build/DM30004-2/production/_ext/632331575/bsp_sys_init.o
 .debug_abbrev  0x00001157       0xd2 build/DM30004-2/production/_ext/134845378/adler32.o
 .debug_abbrev  0x00001229      0x162 build/DM30004-2/production/_ext/134845378/compress.o
 .debug_abbrev  0x0000138b      0x1b6 build/DM30004-2/production/_ext/134845378/crc32.o
 .debug_abbrev  0x00001541      0x3b8 build/DM30004-2/production/_ext/134845378/deflate.o
 .debug_abbrev  0x000018f9      0x289 build/DM30004-2/production/_ext/134845378/infback.o
 .debug_abbrev  0x00001b82      0x13b build/DM30004-2/production/_ext/134845378/inffast.o
 .debug_abbrev  0x00001cbd      0x346 build/DM30004-2/production/_ext/134845378/inflate.o
 .debug_abbrev  0x00002003       0xeb build/DM30004-2/production/_ext/134845378/inftrees.o
 .debug_abbrev  0x000020ee      0x2e6 build/DM30004-2/production/_ext/134845378/trees.o
 .debug_abbrev  0x000023d4      0x13e build/DM30004-2/production/_ext/134845378/uncompr.o
 .debug_abbrev  0x00002512      0x152 build/DM30004-2/production/_ext/134845378/zutil.o
 .debug_abbrev  0x00002664       0x33 build/DM30004-2/production/_ext/458569783/ecc.o
 .debug_abbrev  0x00002697      0x149 build/DM30004-2/production/_ext/458569783/arc4.o
 .debug_abbrev  0x000027e0      0x321 build/DM30004-2/production/_ext/458569783/pwdbased.o
 .debug_abbrev  0x00002b01       0x33 build/DM30004-2/production/_ext/458569783/tfm.o
 .debug_abbrev  0x00002b34      0x40e build/DM30004-2/production/_ext/458569783/asn.o
 .debug_abbrev  0x00002f42      0x2a9 build/DM30004-2/production/_ext/458569783/des3.o
 .debug_abbrev  0x000031eb      0x38a build/DM30004-2/production/_ext/458569783/rsa.o
 .debug_abbrev  0x00003575      0x288 build/DM30004-2/production/_ext/458569783/aes.o
 .debug_abbrev  0x000037fd      0x212 build/DM30004-2/production/_ext/458569783/md5.o
 .debug_abbrev  0x00003a0f      0x238 build/DM30004-2/production/_ext/458569783/sha.o
 .debug_abbrev  0x00003c47      0x26e build/DM30004-2/production/_ext/458569783/sha256.o
 .debug_abbrev  0x00003eb5       0x33 build/DM30004-2/production/_ext/458569783/sha512.o
 .debug_abbrev  0x00003ee8      0x261 build/DM30004-2/production/_ext/458569783/hmac.o
 .debug_abbrev  0x00004149      0x213 build/DM30004-2/production/_ext/458569783/hash.o
 .debug_abbrev  0x0000435c       0x33 build/DM30004-2/production/_ext/458569783/compress.o
 .debug_abbrev  0x0000438f      0x3f4 build/DM30004-2/production/_ext/458569783/random.o
 .debug_abbrev  0x00004783      0x28b build/DM30004-2/production/_ext/458569783/crypto.o
 .debug_abbrev  0x00004a0e      0x1e3 build/DM30004-2/production/_ext/458569783/coding.o
 .debug_abbrev  0x00004bf1      0x10b build/DM30004-2/production/_ext/458569783/error.o
 .debug_abbrev  0x00004cfc      0x321 build/DM30004-2/production/_ext/458569783/integer.o
 .debug_abbrev  0x0000501d       0xd9 build/DM30004-2/production/_ext/458569783/logging.o
 .debug_abbrev  0x000050f6      0x156 build/DM30004-2/production/_ext/458569783/memory.o
 .debug_abbrev  0x0000524c       0x33 build/DM30004-2/production/_ext/458569783/misc.o
 .debug_abbrev  0x0000527f       0xa3 build/DM30004-2/production/_ext/458569783/port.o
 .debug_abbrev  0x00005322      0x594 build/DM30004-2/production/_ext/854379441/drv_ethmac.o
 .debug_abbrev  0x000058b6      0x561 build/DM30004-2/production/_ext/854379441/drv_ethmac_lib.o
 .debug_abbrev  0x00005e17      0x546 build/DM30004-2/production/_ext/2030533247/drv_ethphy.o
 .debug_abbrev  0x0000635d      0x215 build/DM30004-2/production/_ext/2030533247/drv_extphy_smsc8740.o
 .debug_abbrev  0x00006572      0x4ee build/DM30004-2/production/_ext/2027566358/drv_tmr.o
 .debug_abbrev  0x00006a60      0x26d build/DM30004-2/production/_ext/1322803601/sys_devcon.o
 .debug_abbrev  0x00006ccd      0x16d build/DM30004-2/production/_ext/1322803601/sys_devcon_pic32mx.o
 .debug_abbrev  0x00006e3a      0x1d0 build/DM30004-2/production/_ext/1204230505/sys_int_pic32.o
 .debug_abbrev  0x0000700a      0x252 build/DM30004-2/production/_ext/1310142747/sys_random.o
 .debug_abbrev  0x0000725c      0x4ea build/DM30004-2/production/_ext/62100799/sys_tmr.o
 .debug_abbrev  0x00007746      0x12e build/DM30004-2/production/_ext/804969968/helpers.o
 .debug_abbrev  0x00007874      0x522 build/DM30004-2/production/_ext/1899562614/ipv4.o
 .debug_abbrev  0x00007d96      0x65c build/DM30004-2/production/_ext/1899562614/udp.o
 .debug_abbrev  0x000083f2      0x174 build/DM30004-2/production/_ext/1899562614/tcpip_heap_alloc.o
 .debug_abbrev  0x00008566      0x35c build/DM30004-2/production/_ext/1899562614/tcpip_heap_internal.o
 .debug_abbrev  0x000088c2      0x540 build/DM30004-2/production/_ext/1899562614/arp.o
 .debug_abbrev  0x00008e02      0x58a build/DM30004-2/production/_ext/1899562614/dhcp.o
 .debug_abbrev  0x0000938c      0x5e7 build/DM30004-2/production/_ext/1899562614/dns.o
 .debug_abbrev  0x00009973       0xb5 build/DM30004-2/production/_ext/1899562614/hash_fnv.o
 .debug_abbrev  0x00009a28      0x277 build/DM30004-2/production/_ext/1899562614/oahash.o
 .debug_abbrev  0x00009c9f      0x486 build/DM30004-2/production/_ext/1899562614/tcpip_helpers.o
 .debug_abbrev  0x0000a125       0x14 build/DM30004-2/production/_ext/1899562614/tcpip_helper_c32.o
 .debug_abbrev  0x0000a139      0x660 build/DM30004-2/production/_ext/1899562614/tcpip_manager.o
 .debug_abbrev  0x0000a799      0x219 build/DM30004-2/production/_ext/1899562614/tcpip_notify.o
 .debug_abbrev  0x0000a9b2      0x31d build/DM30004-2/production/_ext/1899562614/tcpip_packet.o
 .debug_abbrev  0x0000accf      0x13b build/DM30004-2/production/_ext/1442095083/unabto_aes128_sha256.o
 .debug_abbrev  0x0000ae0a      0x238 build/DM30004-2/production/_ext/1442095083/unabto_app_adapter.o
 .debug_abbrev  0x0000b042      0x45d build/DM30004-2/production/_ext/1442095083/unabto_attach.o
 .debug_abbrev  0x0000b49f      0x1f8 build/DM30004-2/production/_ext/1442095083/unabto_buffers.o
 .debug_abbrev  0x0000b697      0x311 build/DM30004-2/production/_ext/1442095083/unabto_common_main.o
 .debug_abbrev  0x0000b9a8      0x492 build/DM30004-2/production/_ext/1442095083/unabto_connection.o
 .debug_abbrev  0x0000be3a      0x1b6 build/DM30004-2/production/_ext/1442095083/unabto_context.o
 .debug_abbrev  0x0000bff0      0x370 build/DM30004-2/production/_ext/1442095083/unabto_crypto.o
 .debug_abbrev  0x0000c360       0x44 build/DM30004-2/production/_ext/1442095083/unabto_debug_packet.o
 .debug_abbrev  0x0000c3a4      0x111 build/DM30004-2/production/_ext/1442095083/unabto_extended_rendezvous.o
 .debug_abbrev  0x0000c4b5       0x44 build/DM30004-2/production/_ext/1442095083/unabto_memory.o
 .debug_abbrev  0x0000c4f9      0x2c0 build/DM30004-2/production/_ext/1442095083/unabto_message.o
 .debug_abbrev  0x0000c7b9      0x202 build/DM30004-2/production/_ext/1442095083/unabto_next_event.o
 .debug_abbrev  0x0000c9bb      0x3f0 build/DM30004-2/production/_ext/1442095083/unabto_packet.o
 .debug_abbrev  0x0000cdab      0x2b0 build/DM30004-2/production/_ext/1442095083/unabto_packet_util.o
 .debug_abbrev  0x0000d05b      0x17e build/DM30004-2/production/_ext/1442095083/unabto_prf.o
 .debug_abbrev  0x0000d1d9      0x185 build/DM30004-2/production/_ext/1442095083/unabto_query_rw.o
 .debug_abbrev  0x0000d35e      0x29f build/DM30004-2/production/_ext/1442095083/unabto_stream.o
 .debug_abbrev  0x0000d5fd      0x288 build/DM30004-2/production/_ext/1442095083/unabto_stream_environment.o
 .debug_abbrev  0x0000d885      0x45e build/DM30004-2/production/_ext/1442095083/unabto_stream_event.o
 .debug_abbrev  0x0000dce3      0x4fe build/DM30004-2/production/_ext/1442095083/unabto_stream_window.o
 .debug_abbrev  0x0000e1e1       0x44 build/DM30004-2/production/_ext/1442095083/unabto_tcp_fallback.o
 .debug_abbrev  0x0000e225      0x200 build/DM30004-2/production/_ext/2107900007/unabto_harmony_crypto.o
 .debug_abbrev  0x0000e425      0x182 build/DM30004-2/production/_ext/2107900007/unabto_harmony_dns.o
 .debug_abbrev  0x0000e5a7      0x1e8 build/DM30004-2/production/_ext/2107900007/unabto_harmony_network.o
 .debug_abbrev  0x0000e78f       0xbf build/DM30004-2/production/_ext/2107900007/unabto_harmony_random.o
 .debug_abbrev  0x0000e84e      0x141 build/DM30004-2/production/_ext/2107900007/unabto_harmony_time.o
 .debug_abbrev  0x0000e98f      0x1d5 build/DM30004-2/production/_ext/2107900007/unabto_udp_debug.o
 .debug_abbrev  0x0000eb64      0x13e /opt/microchip/xc32/v1.43/bin/bin/../../lib/gcc/pic32mx/4.8.3/libgcc.a(_divdi3.o)
 .debug_abbrev  0x0000eca2      0x138 /opt/microchip/xc32/v1.43/bin/bin/../../lib/gcc/pic32mx/4.8.3/libgcc.a(_udivdi3.o)
 .debug_abbrev  0x0000edda       0x62 /opt/microchip/xc32/v1.43/bin/bin/../../lib/gcc/pic32mx/4.8.3/libgcc.a(floatunsisf.o)
 .debug_abbrev  0x0000ee3c       0x28 /opt/microchip/xc32/v1.43/bin/bin/../../lib/gcc/pic32mx/4.8.3/../../../../pic32mx/lib/libpic32.a(default-bootstrap-exception-handler.o)
 .debug_abbrev  0x0000ee64       0x28 /opt/microchip/xc32/v1.43/bin/bin/../../lib/gcc/pic32mx/4.8.3/../../../../pic32mx/lib/libpic32.a(default-on-reset.o)
 .debug_abbrev  0x0000ee8c       0x28 /opt/microchip/xc32/v1.43/bin/bin/../../lib/gcc/pic32mx/4.8.3/../../../../pic32mx/lib/libpic32.a(default-on-bootstrap.o)
 .debug_abbrev  0x0000eeb4       0x28 /opt/microchip/xc32/v1.43/bin/bin/../../lib/gcc/pic32mx/4.8.3/../../../../pic32mx/lib/libpic32.a(defaultinterrupt.o)
 .debug_abbrev  0x0000eedc       0x28 /opt/microchip/xc32/v1.43/bin/bin/../../lib/gcc/pic32mx/4.8.3/../../../../pic32mx/lib/libc.a(calloc.o)
 .debug_abbrev  0x0000ef04       0x7a /opt/microchip/xc32/v1.43/bin/bin/../../lib/gcc/pic32mx/4.8.3/../../../../pic32mx/lib/libc.a(ctime.o)
 .debug_abbrev  0x0000ef7e       0x28 /opt/microchip/xc32/v1.43/bin/bin/../../lib/gcc/pic32mx/4.8.3/../../../../pic32mx/lib/libc.a(ctypef.o)
 .debug_abbrev  0x0000efa6       0x47 /opt/microchip/xc32/v1.43/bin/bin/../../lib/gcc/pic32mx/4.8.3/../../../../pic32mx/lib/libc.a(malloc.o)
 .debug_abbrev  0x0000efed       0x28 /opt/microchip/xc32/v1.43/bin/bin/../../lib/gcc/pic32mx/4.8.3/../../../../pic32mx/lib/libc.a(memmove.o)
 .debug_abbrev  0x0000f015       0x47 /opt/microchip/xc32/v1.43/bin/bin/../../lib/gcc/pic32mx/4.8.3/../../../../pic32mx/lib/libc.a(rand.o)
 .debug_abbrev  0x0000f05c       0x28 /opt/microchip/xc32/v1.43/bin/bin/../../lib/gcc/pic32mx/4.8.3/../../../../pic32mx/lib/libc.a(strncmp.o)
 .debug_abbrev  0x0000f084       0x28 /opt/microchip/xc32/v1.43/bin/bin/../../lib/gcc/pic32mx/4.8.3/../../../../pic32mx/lib/libc.a(strncpy.o)
 .debug_abbrev  0x0000f0ac       0x28 /opt/microchip/xc32/v1.43/bin/bin/../../lib/gcc/pic32mx/4.8.3/../../../../pic32mx/lib/libc.a(strtol.o)
 .debug_abbrev  0x0000f0d4       0x28 /opt/microchip/xc32/v1.43/bin/bin/../../lib/gcc/pic32mx/4.8.3/../../../../pic32mx/lib/libc.a(time.o)
 .debug_abbrev  0x0000f0fc       0x28 /opt/microchip/xc32/v1.43/bin/bin/../../lib/gcc/pic32mx/4.8.3/../../../../pic32mx/lib/libc.a(exit.o)
 .debug_abbrev  0x0000f124       0x28 /opt/microchip/xc32/v1.43/bin/bin/../../lib/gcc/pic32mx/4.8.3/../../../../pic32mx/lib/libc.a(stdclean_simple.o)
 .debug_abbrev  0x0000f14c       0x28 /opt/microchip/xc32/v1.43/bin/bin/../../lib/gcc/pic32mx/4.8.3/../../../../pic32mx/lib/libc.a(sprintf_cdnopsuxX.eo)
 .debug_abbrev  0x0000f174       0x28 /opt/microchip/xc32/v1.43/bin/bin/../../lib/gcc/pic32mx/4.8.3/../../../../pic32mx/lib/libc.a(vsnprintf.o)
 .debug_abbrev  0x0000f19c       0x28 /opt/microchip/xc32/v1.43/bin/bin/../../lib/gcc/pic32mx/4.8.3/../../../../pic32mx/lib/libc.a(doprnt_cdnopsuxX.eo)
 .debug_abbrev  0x0000f1c4       0x45 /opt/microchip/xc32/v1.43/bin/bin/../../lib/gcc/pic32mx/4.8.3/../../../../pic32mx/lib/libc.a(doprnt.o)
 .debug_abbrev  0x0000f209       0x28 /opt/microchip/xc32/v1.43/bin/bin/../../lib/gcc/pic32mx/4.8.3/../../../../pic32mx/lib/libc.a(_fputc_simple.o)
 .debug_abbrev  0x0000f231       0x28 /opt/microchip/xc32/v1.43/bin/bin/../../lib/gcc/pic32mx/4.8.3/../../../../pic32mx/lib/libc.a(_flsbuf_simple.o)
 .debug_abbrev  0x0000f259       0x37 /opt/microchip/xc32/v1.43/bin/bin/../../lib/gcc/pic32mx/4.8.3/../../../../pic32mx/lib/libe.a(_fixunsdfdi.o)
 .debug_abbrev  0x0000f290       0x28 /opt/microchip/xc32/v1.43/bin/bin/../../lib/gcc/pic32mx/4.8.3/../../../../pic32mx/lib/libe.a(_orderdf2.o)
 .debug_abbrev  0x0000f2b8       0x28 /opt/microchip/xc32/v1.43/bin/bin/../../lib/gcc/pic32mx/4.8.3/../../../../pic32mx/lib/libe.a(_fixdfdi.o)
 .debug_abbrev  0x0000f2e0      0x147 /opt/microchip/xc32/v1.43/bin/bin/../../lib/gcc/pic32mx/4.8.3/libgcc.a(_umoddi3.o)
 .debug_abbrev  0x0000f427       0x62 /opt/microchip/xc32/v1.43/bin/bin/../../lib/gcc/pic32mx/4.8.3/libgcc.a(floatunsidf.o)
 .debug_abbrev  0x0000f489       0x54 /opt/microchip/xc32/v1.43/bin/bin/../../lib/gcc/pic32mx/4.8.3/../../../../pic32mx/lib/libpic32.a(sbrk.o)
 .debug_abbrev  0x0000f4dd       0x28 /opt/microchip/xc32/v1.43/bin/bin/../../lib/gcc/pic32mx/4.8.3/../../../../pic32mx/lib/libpic32.a(write.o)
 .debug_abbrev  0x0000f505       0x28 /opt/microchip/xc32/v1.43/bin/bin/../../lib/gcc/pic32mx/4.8.3/../../../../pic32mx/lib/libpic32.a(_mon_putc.o)

.debug_line     0x00000000    0x1d76e
 *(.debug_line)
 .debug_line    0x00000000      0x415 build/DM30004-2/production/_ext/2025569787/sys_clk_static.o
 .debug_line    0x00000415      0x7a9 build/DM30004-2/production/_ext/540202005/sys_ports_static.o
 .debug_line    0x00000bbe      0x86c build/DM30004-2/production/_ext/1280997252/system_init.o
 .debug_line    0x0000142a      0x35e build/DM30004-2/production/_ext/1280997252/system_interrupt.o
 .debug_line    0x00001788      0x186 build/DM30004-2/production/_ext/1280997252/system_exceptions.o
 .debug_line    0x0000190e      0x29b build/DM30004-2/production/_ext/1280997252/system_tasks.o
 .debug_line    0x00001ba9      0x4dc build/DM30004-2/production/_ext/1360937237/app.o
 .debug_line    0x00002085       0xc2 build/DM30004-2/production/_ext/1360937237/main.o
 .debug_line    0x00002147      0x39e build/DM30004-2/production/_ext/1360937237/stream_echo.o
 .debug_line    0x000024e5      0x313 build/DM30004-2/production/_ext/632331575/bsp_sys_init.o
 .debug_line    0x000027f8      0x120 build/DM30004-2/production/_ext/134845378/adler32.o
 .debug_line    0x00002918       0xc9 build/DM30004-2/production/_ext/134845378/compress.o
 .debug_line    0x000029e1      0x177 build/DM30004-2/production/_ext/134845378/crc32.o
 .debug_line    0x00002b58      0x665 build/DM30004-2/production/_ext/134845378/deflate.o
 .debug_line    0x000031bd      0x2be build/DM30004-2/production/_ext/134845378/infback.o
 .debug_line    0x0000347b      0x184 build/DM30004-2/production/_ext/134845378/inffast.o
 .debug_line    0x000035ff      0x654 build/DM30004-2/production/_ext/134845378/inflate.o
 .debug_line    0x00003c53      0x13c build/DM30004-2/production/_ext/134845378/inftrees.o
 .debug_line    0x00003d8f      0x3af build/DM30004-2/production/_ext/134845378/trees.o
 .debug_line    0x0000413e       0xa7 build/DM30004-2/production/_ext/134845378/uncompr.o
 .debug_line    0x000041e5      0x111 build/DM30004-2/production/_ext/134845378/zutil.o
 .debug_line    0x000042f6       0x5f build/DM30004-2/production/_ext/458569783/ecc.o
 .debug_line    0x00004355       0xf8 build/DM30004-2/production/_ext/458569783/arc4.o
 .debug_line    0x0000444d      0x30c build/DM30004-2/production/_ext/458569783/pwdbased.o
 .debug_line    0x00004759       0x5f build/DM30004-2/production/_ext/458569783/tfm.o
 .debug_line    0x000047b8      0xeee build/DM30004-2/production/_ext/458569783/asn.o
 .debug_line    0x000056a6      0x4dc build/DM30004-2/production/_ext/458569783/des3.o
 .debug_line    0x00005b82      0x4c5 build/DM30004-2/production/_ext/458569783/rsa.o
 .debug_line    0x00006047      0x530 build/DM30004-2/production/_ext/458569783/aes.o
 .debug_line    0x00006577      0x499 build/DM30004-2/production/_ext/458569783/md5.o
 .debug_line    0x00006a10      0xc97 build/DM30004-2/production/_ext/458569783/sha.o
 .debug_line    0x000076a7      0x40b build/DM30004-2/production/_ext/458569783/sha256.o
 .debug_line    0x00007ab2       0x5f build/DM30004-2/production/_ext/458569783/sha512.o
 .debug_line    0x00007b11      0x1b9 build/DM30004-2/production/_ext/458569783/hmac.o
 .debug_line    0x00007cca      0x1fe build/DM30004-2/production/_ext/458569783/hash.o
 .debug_line    0x00007ec8       0x5f build/DM30004-2/production/_ext/458569783/compress.o
 .debug_line    0x00007f27      0x43c build/DM30004-2/production/_ext/458569783/random.o
 .debug_line    0x00008363      0x4bd build/DM30004-2/production/_ext/458569783/crypto.o
 .debug_line    0x00008820      0x296 build/DM30004-2/production/_ext/458569783/coding.o
 .debug_line    0x00008ab6      0x19b build/DM30004-2/production/_ext/458569783/error.o
 .debug_line    0x00008c51      0xe7e build/DM30004-2/production/_ext/458569783/integer.o
 .debug_line    0x00009acf       0xf5 build/DM30004-2/production/_ext/458569783/logging.o
 .debug_line    0x00009bc4      0x1b2 build/DM30004-2/production/_ext/458569783/memory.o
 .debug_line    0x00009d76       0x5f build/DM30004-2/production/_ext/458569783/misc.o
 .debug_line    0x00009dd5      0x101 build/DM30004-2/production/_ext/458569783/port.o
 .debug_line    0x00009ed6      0xe78 build/DM30004-2/production/_ext/854379441/drv_ethmac.o
 .debug_line    0x0000ad4e      0xe30 build/DM30004-2/production/_ext/854379441/drv_ethmac_lib.o
 .debug_line    0x0000bb7e     0x116d build/DM30004-2/production/_ext/2030533247/drv_ethphy.o
 .debug_line    0x0000cceb      0x2cf build/DM30004-2/production/_ext/2030533247/drv_extphy_smsc8740.o
 .debug_line    0x0000cfba     0x1135 build/DM30004-2/production/_ext/2027566358/drv_tmr.o
 .debug_line    0x0000e0ef      0x64f build/DM30004-2/production/_ext/1322803601/sys_devcon.o
 .debug_line    0x0000e73e      0x492 build/DM30004-2/production/_ext/1322803601/sys_devcon_pic32mx.o
 .debug_line    0x0000ebd0      0x392 build/DM30004-2/production/_ext/1204230505/sys_int_pic32.o
 .debug_line    0x0000ef62      0x33b build/DM30004-2/production/_ext/1310142747/sys_random.o
 .debug_line    0x0000f29d      0x67f build/DM30004-2/production/_ext/62100799/sys_tmr.o
 .debug_line    0x0000f91c      0x184 build/DM30004-2/production/_ext/804969968/helpers.o
 .debug_line    0x0000faa0      0x6c7 build/DM30004-2/production/_ext/1899562614/ipv4.o
 .debug_line    0x00010167      0xd33 build/DM30004-2/production/_ext/1899562614/udp.o
 .debug_line    0x00010e9a      0x1a9 build/DM30004-2/production/_ext/1899562614/tcpip_heap_alloc.o
 .debug_line    0x00011043      0x3ff build/DM30004-2/production/_ext/1899562614/tcpip_heap_internal.o
 .debug_line    0x00011442      0x94c build/DM30004-2/production/_ext/1899562614/arp.o
 .debug_line    0x00011d8e      0xbf9 build/DM30004-2/production/_ext/1899562614/dhcp.o
 .debug_line    0x00012987      0x9f9 build/DM30004-2/production/_ext/1899562614/dns.o
 .debug_line    0x00013380      0x114 build/DM30004-2/production/_ext/1899562614/hash_fnv.o
 .debug_line    0x00013494      0x1c3 build/DM30004-2/production/_ext/1899562614/oahash.o
 .debug_line    0x00013657      0xcf0 build/DM30004-2/production/_ext/1899562614/tcpip_helpers.o
 .debug_line    0x00014347      0x115 build/DM30004-2/production/_ext/1899562614/tcpip_helper_c32.o
 .debug_line    0x0001445c     0x12a5 build/DM30004-2/production/_ext/1899562614/tcpip_manager.o
 .debug_line    0x00015701      0x250 build/DM30004-2/production/_ext/1899562614/tcpip_notify.o
 .debug_line    0x00015951      0x3c5 build/DM30004-2/production/_ext/1899562614/tcpip_packet.o
 .debug_line    0x00015d16      0x192 build/DM30004-2/production/_ext/1442095083/unabto_aes128_sha256.o
 .debug_line    0x00015ea8      0x35f build/DM30004-2/production/_ext/1442095083/unabto_app_adapter.o
 .debug_line    0x00016207      0x6d4 build/DM30004-2/production/_ext/1442095083/unabto_attach.o
 .debug_line    0x000168db      0x2b1 build/DM30004-2/production/_ext/1442095083/unabto_buffers.o
 .debug_line    0x00016b8c      0x52b build/DM30004-2/production/_ext/1442095083/unabto_common_main.o
 .debug_line    0x000170b7      0x90a build/DM30004-2/production/_ext/1442095083/unabto_connection.o
 .debug_line    0x000179c1      0x2ed build/DM30004-2/production/_ext/1442095083/unabto_context.o
 .debug_line    0x00017cae      0x4e6 build/DM30004-2/production/_ext/1442095083/unabto_crypto.o
 .debug_line    0x00018194       0x5f build/DM30004-2/production/_ext/1442095083/unabto_debug_packet.o
 .debug_line    0x000181f3      0x145 build/DM30004-2/production/_ext/1442095083/unabto_extended_rendezvous.o
 .debug_line    0x00018338       0x5f build/DM30004-2/production/_ext/1442095083/unabto_memory.o
 .debug_line    0x00018397      0x461 build/DM30004-2/production/_ext/1442095083/unabto_message.o
 .debug_line    0x000187f8      0x316 build/DM30004-2/production/_ext/1442095083/unabto_next_event.o
 .debug_line    0x00018b0e      0x5bc build/DM30004-2/production/_ext/1442095083/unabto_packet.o
 .debug_line    0x000190ca      0x533 build/DM30004-2/production/_ext/1442095083/unabto_packet_util.o
 .debug_line    0x000195fd      0x1ed build/DM30004-2/production/_ext/1442095083/unabto_prf.o
 .debug_line    0x000197ea      0x322 build/DM30004-2/production/_ext/1442095083/unabto_query_rw.o
 .debug_line    0x00019b0c      0x449 build/DM30004-2/production/_ext/1442095083/unabto_stream.o
 .debug_line    0x00019f55      0x456 build/DM30004-2/production/_ext/1442095083/unabto_stream_environment.o
 .debug_line    0x0001a3ab      0x66e build/DM30004-2/production/_ext/1442095083/unabto_stream_event.o
 .debug_line    0x0001aa19      0xd7a build/DM30004-2/production/_ext/1442095083/unabto_stream_window.o
 .debug_line    0x0001b793       0x5f build/DM30004-2/production/_ext/1442095083/unabto_tcp_fallback.o
 .debug_line    0x0001b7f2      0x2af build/DM30004-2/production/_ext/2107900007/unabto_harmony_crypto.o
 .debug_line    0x0001baa1      0x1e5 build/DM30004-2/production/_ext/2107900007/unabto_harmony_dns.o
 .debug_line    0x0001bc86      0x23d build/DM30004-2/production/_ext/2107900007/unabto_harmony_network.o
 .debug_line    0x0001bec3      0x189 build/DM30004-2/production/_ext/2107900007/unabto_harmony_random.o
 .debug_line    0x0001c04c      0x1b2 build/DM30004-2/production/_ext/2107900007/unabto_harmony_time.o
 .debug_line    0x0001c1fe      0x28d build/DM30004-2/production/_ext/2107900007/unabto_udp_debug.o
 .debug_line    0x0001c48b      0x105 /opt/microchip/xc32/v1.43/bin/bin/../../lib/gcc/pic32mx/4.8.3/libgcc.a(_divdi3.o)
 .debug_line    0x0001c590       0xfd /opt/microchip/xc32/v1.43/bin/bin/../../lib/gcc/pic32mx/4.8.3/libgcc.a(_udivdi3.o)
 .debug_line    0x0001c68d       0x9a /opt/microchip/xc32/v1.43/bin/bin/../../lib/gcc/pic32mx/4.8.3/libgcc.a(floatunsisf.o)
 .debug_line    0x0001c727       0xa7 /opt/microchip/xc32/v1.43/bin/bin/../../lib/gcc/pic32mx/4.8.3/../../../../pic32mx/lib/libpic32.a(default-bootstrap-exception-handler.o)
 .debug_line    0x0001c7ce       0x94 /opt/microchip/xc32/v1.43/bin/bin/../../lib/gcc/pic32mx/4.8.3/../../../../pic32mx/lib/libpic32.a(default-on-reset.o)
 .debug_line    0x0001c862       0x98 /opt/microchip/xc32/v1.43/bin/bin/../../lib/gcc/pic32mx/4.8.3/../../../../pic32mx/lib/libpic32.a(default-on-bootstrap.o)
 .debug_line    0x0001c8fa       0xa6 /opt/microchip/xc32/v1.43/bin/bin/../../lib/gcc/pic32mx/4.8.3/../../../../pic32mx/lib/libpic32.a(defaultinterrupt.o)
 .debug_line    0x0001c9a0       0x80 /opt/microchip/xc32/v1.43/bin/bin/../../lib/gcc/pic32mx/4.8.3/../../../../pic32mx/lib/libc.a(calloc.o)
 .debug_line    0x0001ca20       0x7f /opt/microchip/xc32/v1.43/bin/bin/../../lib/gcc/pic32mx/4.8.3/../../../../pic32mx/lib/libc.a(ctime.o)
 .debug_line    0x0001ca9f        0x0 /opt/microchip/xc32/v1.43/bin/bin/../../lib/gcc/pic32mx/4.8.3/../../../../pic32mx/lib/libc.a(ctype.o)
 .debug_line    0x0001ca9f       0x80 /opt/microchip/xc32/v1.43/bin/bin/../../lib/gcc/pic32mx/4.8.3/../../../../pic32mx/lib/libc.a(ctypef.o)
 .debug_line    0x0001cb1f       0x80 /opt/microchip/xc32/v1.43/bin/bin/../../lib/gcc/pic32mx/4.8.3/../../../../pic32mx/lib/libc.a(malloc.o)
 .debug_line    0x0001cb9f       0x81 /opt/microchip/xc32/v1.43/bin/bin/../../lib/gcc/pic32mx/4.8.3/../../../../pic32mx/lib/libc.a(memmove.o)
 .debug_line    0x0001cc20       0x7e /opt/microchip/xc32/v1.43/bin/bin/../../lib/gcc/pic32mx/4.8.3/../../../../pic32mx/lib/libc.a(rand.o)
 .debug_line    0x0001cc9e       0x81 /opt/microchip/xc32/v1.43/bin/bin/../../lib/gcc/pic32mx/4.8.3/../../../../pic32mx/lib/libc.a(strncmp.o)
 .debug_line    0x0001cd1f       0x81 /opt/microchip/xc32/v1.43/bin/bin/../../lib/gcc/pic32mx/4.8.3/../../../../pic32mx/lib/libc.a(strncpy.o)
 .debug_line    0x0001cda0       0x80 /opt/microchip/xc32/v1.43/bin/bin/../../lib/gcc/pic32mx/4.8.3/../../../../pic32mx/lib/libc.a(strtol.o)
 .debug_line    0x0001ce20       0x7e /opt/microchip/xc32/v1.43/bin/bin/../../lib/gcc/pic32mx/4.8.3/../../../../pic32mx/lib/libc.a(time.o)
 .debug_line    0x0001ce9e       0x7e /opt/microchip/xc32/v1.43/bin/bin/../../lib/gcc/pic32mx/4.8.3/../../../../pic32mx/lib/libc.a(exit.o)
 .debug_line    0x0001cf1c       0x82 /opt/microchip/xc32/v1.43/bin/bin/../../lib/gcc/pic32mx/4.8.3/../../../../pic32mx/lib/libc.a(stdclean_simple.o)
 .debug_line    0x0001cf9e       0x81 /opt/microchip/xc32/v1.43/bin/bin/../../lib/gcc/pic32mx/4.8.3/../../../../pic32mx/lib/libc.a(sprintf_cdnopsuxX.eo)
 .debug_line    0x0001d01f       0x83 /opt/microchip/xc32/v1.43/bin/bin/../../lib/gcc/pic32mx/4.8.3/../../../../pic32mx/lib/libc.a(vsnprintf.o)
 .debug_line    0x0001d0a2        0x0 /opt/microchip/xc32/v1.43/bin/bin/../../lib/gcc/pic32mx/4.8.3/../../../../pic32mx/lib/libc.a(errno.o)
 .debug_line    0x0001d0a2       0x80 /opt/microchip/xc32/v1.43/bin/bin/../../lib/gcc/pic32mx/4.8.3/../../../../pic32mx/lib/libc.a(doprnt_cdnopsuxX.eo)
 .debug_line    0x0001d122       0x80 /opt/microchip/xc32/v1.43/bin/bin/../../lib/gcc/pic32mx/4.8.3/../../../../pic32mx/lib/libc.a(doprnt.o)
 .debug_line    0x0001d1a2       0x7f /opt/microchip/xc32/v1.43/bin/bin/../../lib/gcc/pic32mx/4.8.3/../../../../pic32mx/lib/libc.a(_fputc_simple.o)
 .debug_line    0x0001d221        0x0 /opt/microchip/xc32/v1.43/bin/bin/../../lib/gcc/pic32mx/4.8.3/../../../../pic32mx/lib/libc.a(ldpowers.o)
 .debug_line    0x0001d221        0x0 /opt/microchip/xc32/v1.43/bin/bin/../../lib/gcc/pic32mx/4.8.3/../../../../pic32mx/lib/libc.a(_iob.o)
 .debug_line    0x0001d221       0x80 /opt/microchip/xc32/v1.43/bin/bin/../../lib/gcc/pic32mx/4.8.3/../../../../pic32mx/lib/libc.a(_flsbuf_simple.o)
 .debug_line    0x0001d2a1       0x83 /opt/microchip/xc32/v1.43/bin/bin/../../lib/gcc/pic32mx/4.8.3/../../../../pic32mx/lib/libe.a(_fixunsdfdi.o)
 .debug_line    0x0001d324       0x82 /opt/microchip/xc32/v1.43/bin/bin/../../lib/gcc/pic32mx/4.8.3/../../../../pic32mx/lib/libe.a(_orderdf2.o)
 .debug_line    0x0001d3a6       0x82 /opt/microchip/xc32/v1.43/bin/bin/../../lib/gcc/pic32mx/4.8.3/../../../../pic32mx/lib/libe.a(_fixdfdi.o)
 .debug_line    0x0001d428      0x10f /opt/microchip/xc32/v1.43/bin/bin/../../lib/gcc/pic32mx/4.8.3/libgcc.a(_umoddi3.o)
 .debug_line    0x0001d537       0x99 /opt/microchip/xc32/v1.43/bin/bin/../../lib/gcc/pic32mx/4.8.3/libgcc.a(floatunsidf.o)
 .debug_line    0x0001d5d0       0x88 /opt/microchip/xc32/v1.43/bin/bin/../../lib/gcc/pic32mx/4.8.3/../../../../pic32mx/lib/libpic32.a(sbrk.o)
 .debug_line    0x0001d658       0x89 /opt/microchip/xc32/v1.43/bin/bin/../../lib/gcc/pic32mx/4.8.3/../../../../pic32mx/lib/libpic32.a(write.o)
 .debug_line    0x0001d6e1       0x8d /opt/microchip/xc32/v1.43/bin/bin/../../lib/gcc/pic32mx/4.8.3/../../../../pic32mx/lib/libpic32.a(_mon_putc.o)
 .debug_line    0x0001d76e        0x0 /opt/microchip/xc32/v1.43/bin/bin/../../lib/gcc/pic32mx/4.8.3/../../../../pic32mx/lib/libpic32.a(xc32_uart.o)

.debug_frame    0x00000000     0x9144
 *(.debug_frame)
 .debug_frame   0x00000000       0xa0 build/DM30004-2/production/_ext/2025569787/sys_clk_static.o
 .debug_frame   0x000000a0      0x1f0 build/DM30004-2/production/_ext/540202005/sys_ports_static.o
 .debug_frame   0x00000290       0x44 build/DM30004-2/production/_ext/1280997252/system_init.o
 .debug_frame   0x000002d4       0xc8 build/DM30004-2/production/_ext/1280997252/system_interrupt.o
 .debug_frame   0x0000039c       0x28 build/DM30004-2/production/_ext/1280997252/system_exceptions.o
 .debug_frame   0x000003c4       0x28 build/DM30004-2/production/_ext/1280997252/system_tasks.o
 .debug_frame   0x000003ec       0x4c build/DM30004-2/production/_ext/1360937237/app.o
 .debug_frame   0x00000438       0x28 build/DM30004-2/production/_ext/1360937237/main.o
 .debug_frame   0x00000460       0x98 build/DM30004-2/production/_ext/1360937237/stream_echo.o
 .debug_frame   0x000004f8       0xa0 build/DM30004-2/production/_ext/632331575/bsp_sys_init.o
 .debug_frame   0x00000598       0x70 build/DM30004-2/production/_ext/134845378/adler32.o
 .debug_frame   0x00000608       0x54 build/DM30004-2/production/_ext/134845378/compress.o
 .debug_frame   0x0000065c       0xb0 build/DM30004-2/production/_ext/134845378/crc32.o
 .debug_frame   0x0000070c      0x294 build/DM30004-2/production/_ext/134845378/deflate.o
 .debug_frame   0x000009a0       0x80 build/DM30004-2/production/_ext/134845378/infback.o
 .debug_frame   0x00000a20       0x38 build/DM30004-2/production/_ext/134845378/inffast.o
 .debug_frame   0x00000a58      0x1cc build/DM30004-2/production/_ext/134845378/inflate.o
 .debug_frame   0x00000c24       0x38 build/DM30004-2/production/_ext/134845378/inftrees.o
 .debug_frame   0x00000c5c      0x154 build/DM30004-2/production/_ext/134845378/trees.o
 .debug_frame   0x00000db0       0x2c build/DM30004-2/production/_ext/134845378/uncompr.o
 .debug_frame   0x00000ddc       0x70 build/DM30004-2/production/_ext/134845378/zutil.o
 .debug_frame   0x00000e4c       0x30 build/DM30004-2/production/_ext/458569783/arc4.o
 .debug_frame   0x00000e7c       0xd4 build/DM30004-2/production/_ext/458569783/pwdbased.o
 .debug_frame   0x00000f50      0x544 build/DM30004-2/production/_ext/458569783/asn.o
 .debug_frame   0x00001494      0x1a0 build/DM30004-2/production/_ext/458569783/des3.o
 .debug_frame   0x00001634      0x23c build/DM30004-2/production/_ext/458569783/rsa.o
 .debug_frame   0x00001870      0x14c build/DM30004-2/production/_ext/458569783/aes.o
 .debug_frame   0x000019bc       0xac build/DM30004-2/production/_ext/458569783/md5.o
 .debug_frame   0x00001a68       0x90 build/DM30004-2/production/_ext/458569783/sha.o
 .debug_frame   0x00001af8       0x84 build/DM30004-2/production/_ext/458569783/sha256.o
 .debug_frame   0x00001b7c       0x90 build/DM30004-2/production/_ext/458569783/hmac.o
 .debug_frame   0x00001c0c      0x10c build/DM30004-2/production/_ext/458569783/hash.o
 .debug_frame   0x00001d18      0x16c build/DM30004-2/production/_ext/458569783/random.o
 .debug_frame   0x00001e84      0x430 build/DM30004-2/production/_ext/458569783/crypto.o
 .debug_frame   0x000022b4       0xdc build/DM30004-2/production/_ext/458569783/coding.o
 .debug_frame   0x00002390       0x38 build/DM30004-2/production/_ext/458569783/error.o
 .debug_frame   0x000023c8      0x7f8 build/DM30004-2/production/_ext/458569783/integer.o
 .debug_frame   0x00002bc0       0x40 build/DM30004-2/production/_ext/458569783/logging.o
 .debug_frame   0x00002c00       0x68 build/DM30004-2/production/_ext/458569783/memory.o
 .debug_frame   0x00002c68       0x60 build/DM30004-2/production/_ext/458569783/port.o
 .debug_frame   0x00002cc8      0x460 build/DM30004-2/production/_ext/854379441/drv_ethmac.o
 .debug_frame   0x00003128      0x288 build/DM30004-2/production/_ext/854379441/drv_ethmac_lib.o
 .debug_frame   0x000033b0      0x6d4 build/DM30004-2/production/_ext/2030533247/drv_ethphy.o
 .debug_frame   0x00003a84       0x60 build/DM30004-2/production/_ext/2030533247/drv_extphy_smsc8740.o
 .debug_frame   0x00003ae4      0x3e4 build/DM30004-2/production/_ext/2027566358/drv_tmr.o
 .debug_frame   0x00003ec8       0xe8 build/DM30004-2/production/_ext/1322803601/sys_devcon.o
 .debug_frame   0x00003fb0       0x28 build/DM30004-2/production/_ext/1322803601/sys_devcon_pic32mx.o
 .debug_frame   0x00003fd8       0x90 build/DM30004-2/production/_ext/1204230505/sys_int_pic32.o
 .debug_frame   0x00004068       0xe4 build/DM30004-2/production/_ext/1310142747/sys_random.o
 .debug_frame   0x0000414c      0x24c build/DM30004-2/production/_ext/62100799/sys_tmr.o
 .debug_frame   0x00004398       0x74 build/DM30004-2/production/_ext/804969968/helpers.o
 .debug_frame   0x0000440c      0x1c0 build/DM30004-2/production/_ext/1899562614/ipv4.o
 .debug_frame   0x000045cc      0x5a8 build/DM30004-2/production/_ext/1899562614/udp.o
 .debug_frame   0x00004b74       0x98 build/DM30004-2/production/_ext/1899562614/tcpip_heap_alloc.o
 .debug_frame   0x00004c0c      0x104 build/DM30004-2/production/_ext/1899562614/tcpip_heap_internal.o
 .debug_frame   0x00004d10      0x3c8 build/DM30004-2/production/_ext/1899562614/arp.o
 .debug_frame   0x000050d8      0x4e8 build/DM30004-2/production/_ext/1899562614/dhcp.o
 .debug_frame   0x000055c0      0x3fc build/DM30004-2/production/_ext/1899562614/dns.o
 .debug_frame   0x000059bc       0x30 build/DM30004-2/production/_ext/1899562614/hash_fnv.o
 .debug_frame   0x000059ec       0xb4 build/DM30004-2/production/_ext/1899562614/oahash.o
 .debug_frame   0x00005aa0      0x600 build/DM30004-2/production/_ext/1899562614/tcpip_helpers.o
 .debug_frame   0x000060a0      0x968 build/DM30004-2/production/_ext/1899562614/tcpip_manager.o
 .debug_frame   0x00006a08       0x94 build/DM30004-2/production/_ext/1899562614/tcpip_notify.o
 .debug_frame   0x00006a9c      0x144 build/DM30004-2/production/_ext/1899562614/tcpip_packet.o
 .debug_frame   0x00006be0       0x2c build/DM30004-2/production/_ext/1442095083/unabto_aes128_sha256.o
 .debug_frame   0x00006c0c       0x84 build/DM30004-2/production/_ext/1442095083/unabto_app_adapter.o
 .debug_frame   0x00006c90      0x294 build/DM30004-2/production/_ext/1442095083/unabto_attach.o
 .debug_frame   0x00006f24      0x16c build/DM30004-2/production/_ext/1442095083/unabto_buffers.o
 .debug_frame   0x00007090      0x128 build/DM30004-2/production/_ext/1442095083/unabto_common_main.o
 .debug_frame   0x000071b8      0x35c build/DM30004-2/production/_ext/1442095083/unabto_connection.o
 .debug_frame   0x00007514       0x88 build/DM30004-2/production/_ext/1442095083/unabto_context.o
 .debug_frame   0x0000759c      0x1bc build/DM30004-2/production/_ext/1442095083/unabto_crypto.o
 .debug_frame   0x00007758       0x30 build/DM30004-2/production/_ext/1442095083/unabto_extended_rendezvous.o
 .debug_frame   0x00007788       0x9c build/DM30004-2/production/_ext/1442095083/unabto_message.o
 .debug_frame   0x00007824       0x3c build/DM30004-2/production/_ext/1442095083/unabto_next_event.o
 .debug_frame   0x00007860      0x140 build/DM30004-2/production/_ext/1442095083/unabto_packet.o
 .debug_frame   0x000079a0      0x1fc build/DM30004-2/production/_ext/1442095083/unabto_packet_util.o
 .debug_frame   0x00007b9c       0x58 build/DM30004-2/production/_ext/1442095083/unabto_prf.o
 .debug_frame   0x00007bf4      0x204 build/DM30004-2/production/_ext/1442095083/unabto_query_rw.o
 .debug_frame   0x00007df8      0x1c0 build/DM30004-2/production/_ext/1442095083/unabto_stream.o
 .debug_frame   0x00007fb8       0x68 build/DM30004-2/production/_ext/1442095083/unabto_stream_environment.o
 .debug_frame   0x00008020      0x1c8 build/DM30004-2/production/_ext/1442095083/unabto_stream_event.o
 .debug_frame   0x000081e8      0x5d8 build/DM30004-2/production/_ext/1442095083/unabto_stream_window.o
 .debug_frame   0x000087c0       0x70 build/DM30004-2/production/_ext/2107900007/unabto_harmony_crypto.o
 .debug_frame   0x00008830       0x40 build/DM30004-2/production/_ext/2107900007/unabto_harmony_dns.o
 .debug_frame   0x00008870       0x90 build/DM30004-2/production/_ext/2107900007/unabto_harmony_network.o
 .debug_frame   0x00008900       0x28 build/DM30004-2/production/_ext/2107900007/unabto_harmony_random.o
 .debug_frame   0x00008928       0x7c build/DM30004-2/production/_ext/2107900007/unabto_harmony_time.o
 .debug_frame   0x000089a4       0x48 build/DM30004-2/production/_ext/2107900007/unabto_udp_debug.o
 .debug_frame   0x000089ec       0x20 /opt/microchip/xc32/v1.43/bin/bin/../../lib/gcc/pic32mx/4.8.3/libgcc.a(_divdi3.o)
 .debug_frame   0x00008a0c       0x20 /opt/microchip/xc32/v1.43/bin/bin/../../lib/gcc/pic32mx/4.8.3/libgcc.a(_udivdi3.o)
 .debug_frame   0x00008a2c       0x28 /opt/microchip/xc32/v1.43/bin/bin/../../lib/gcc/pic32mx/4.8.3/libgcc.a(floatunsisf.o)
 .debug_frame   0x00008a54       0x2c /opt/microchip/xc32/v1.43/bin/bin/../../lib/gcc/pic32mx/4.8.3/../../../../pic32mx/lib/libpic32.a(default-bootstrap-exception-handler.o)
 .debug_frame   0x00008a80       0x20 /opt/microchip/xc32/v1.43/bin/bin/../../lib/gcc/pic32mx/4.8.3/../../../../pic32mx/lib/libpic32.a(default-on-reset.o)
 .debug_frame   0x00008aa0       0x20 /opt/microchip/xc32/v1.43/bin/bin/../../lib/gcc/pic32mx/4.8.3/../../../../pic32mx/lib/libpic32.a(default-on-bootstrap.o)
 .debug_frame   0x00008ac0       0x20 /opt/microchip/xc32/v1.43/bin/bin/../../lib/gcc/pic32mx/4.8.3/../../../../pic32mx/lib/libpic32.a(defaultinterrupt.o)
 .debug_frame   0x00008ae0       0x28 /opt/microchip/xc32/v1.43/bin/bin/../../lib/gcc/pic32mx/4.8.3/../../../../pic32mx/lib/libc.a(calloc.o)
 .debug_frame   0x00008b08       0x78 /opt/microchip/xc32/v1.43/bin/bin/../../lib/gcc/pic32mx/4.8.3/../../../../pic32mx/lib/libc.a(ctime.o)
 .debug_frame   0x00008b80      0x120 /opt/microchip/xc32/v1.43/bin/bin/../../lib/gcc/pic32mx/4.8.3/../../../../pic32mx/lib/libc.a(ctypef.o)
 .debug_frame   0x00008ca0       0x68 /opt/microchip/xc32/v1.43/bin/bin/../../lib/gcc/pic32mx/4.8.3/../../../../pic32mx/lib/libc.a(malloc.o)
 .debug_frame   0x00008d08       0x20 /opt/microchip/xc32/v1.43/bin/bin/../../lib/gcc/pic32mx/4.8.3/../../../../pic32mx/lib/libc.a(memmove.o)
 .debug_frame   0x00008d28       0x30 /opt/microchip/xc32/v1.43/bin/bin/../../lib/gcc/pic32mx/4.8.3/../../../../pic32mx/lib/libc.a(rand.o)
 .debug_frame   0x00008d58       0x20 /opt/microchip/xc32/v1.43/bin/bin/../../lib/gcc/pic32mx/4.8.3/../../../../pic32mx/lib/libc.a(strncmp.o)
 .debug_frame   0x00008d78       0x20 /opt/microchip/xc32/v1.43/bin/bin/../../lib/gcc/pic32mx/4.8.3/../../../../pic32mx/lib/libc.a(strncpy.o)
 .debug_frame   0x00008d98       0x58 /opt/microchip/xc32/v1.43/bin/bin/../../lib/gcc/pic32mx/4.8.3/../../../../pic32mx/lib/libc.a(strtol.o)
 .debug_frame   0x00008df0       0x20 /opt/microchip/xc32/v1.43/bin/bin/../../lib/gcc/pic32mx/4.8.3/../../../../pic32mx/lib/libc.a(time.o)
 .debug_frame   0x00008e10       0x28 /opt/microchip/xc32/v1.43/bin/bin/../../lib/gcc/pic32mx/4.8.3/../../../../pic32mx/lib/libc.a(exit.o)
 .debug_frame   0x00008e38       0x20 /opt/microchip/xc32/v1.43/bin/bin/../../lib/gcc/pic32mx/4.8.3/../../../../pic32mx/lib/libc.a(stdclean_simple.o)
 .debug_frame   0x00008e58       0x28 /opt/microchip/xc32/v1.43/bin/bin/../../lib/gcc/pic32mx/4.8.3/../../../../pic32mx/lib/libc.a(sprintf_cdnopsuxX.eo)
 .debug_frame   0x00008e80       0x2c /opt/microchip/xc32/v1.43/bin/bin/../../lib/gcc/pic32mx/4.8.3/../../../../pic32mx/lib/libc.a(vsnprintf.o)
 .debug_frame   0x00008eac       0x38 /opt/microchip/xc32/v1.43/bin/bin/../../lib/gcc/pic32mx/4.8.3/../../../../pic32mx/lib/libc.a(doprnt_cdnopsuxX.eo)
 .debug_frame   0x00008ee4       0x74 /opt/microchip/xc32/v1.43/bin/bin/../../lib/gcc/pic32mx/4.8.3/../../../../pic32mx/lib/libc.a(doprnt.o)
 .debug_frame   0x00008f58       0x2c /opt/microchip/xc32/v1.43/bin/bin/../../lib/gcc/pic32mx/4.8.3/../../../../pic32mx/lib/libc.a(_fputc_simple.o)
 .debug_frame   0x00008f84       0x28 /opt/microchip/xc32/v1.43/bin/bin/../../lib/gcc/pic32mx/4.8.3/../../../../pic32mx/lib/libc.a(_flsbuf_simple.o)
 .debug_frame   0x00008fac       0x2c /opt/microchip/xc32/v1.43/bin/bin/../../lib/gcc/pic32mx/4.8.3/../../../../pic32mx/lib/libe.a(_fixunsdfdi.o)
 .debug_frame   0x00008fd8       0x20 /opt/microchip/xc32/v1.43/bin/bin/../../lib/gcc/pic32mx/4.8.3/../../../../pic32mx/lib/libe.a(_orderdf2.o)
 .debug_frame   0x00008ff8       0x20 /opt/microchip/xc32/v1.43/bin/bin/../../lib/gcc/pic32mx/4.8.3/../../../../pic32mx/lib/libe.a(_fixdfdi.o)
 .debug_frame   0x00009018       0x20 /opt/microchip/xc32/v1.43/bin/bin/../../lib/gcc/pic32mx/4.8.3/libgcc.a(_umoddi3.o)
 .debug_frame   0x00009038       0x28 /opt/microchip/xc32/v1.43/bin/bin/../../lib/gcc/pic32mx/4.8.3/libgcc.a(floatunsidf.o)
 .debug_frame   0x00009060       0x84 /opt/microchip/xc32/v1.43/bin/bin/../../lib/gcc/pic32mx/4.8.3/../../../../pic32mx/lib/libpic32.a(sbrk.o)
 .debug_frame   0x000090e4       0x38 /opt/microchip/xc32/v1.43/bin/bin/../../lib/gcc/pic32mx/4.8.3/../../../../pic32mx/lib/libpic32.a(write.o)
 .debug_frame   0x0000911c       0x28 /opt/microchip/xc32/v1.43/bin/bin/../../lib/gcc/pic32mx/4.8.3/../../../../pic32mx/lib/libpic32.a(_mon_putc.o)

.debug_str      0x00000000     0x1e55
 *(.debug_str)
 .debug_str     0x00000000       0x39 build/DM30004-2/production/_ext/2025569787/sys_clk_static.o
 .debug_str     0x00000039       0x55 build/DM30004-2/production/_ext/540202005/sys_ports_static.o
 .debug_str     0x0000008e       0x5d build/DM30004-2/production/_ext/1280997252/system_init.o
 .debug_str     0x000000eb        0x0 build/DM30004-2/production/_ext/1280997252/system_interrupt.o
 .debug_str     0x000000eb        0x0 build/DM30004-2/production/_ext/1280997252/system_exceptions.o
 .debug_str     0x000000eb        0x0 build/DM30004-2/production/_ext/1280997252/system_tasks.o
 .debug_str     0x000000eb        0x9 build/DM30004-2/production/_ext/1360937237/app.o
 .debug_str     0x000000f4        0x0 build/DM30004-2/production/_ext/1360937237/main.o
 .debug_str     0x000000f4        0xb build/DM30004-2/production/_ext/1360937237/stream_echo.o
 .debug_str     0x000000ff       0x15 build/DM30004-2/production/_ext/632331575/bsp_sys_init.o
 .debug_str     0x00000114        0xe build/DM30004-2/production/_ext/134845378/adler32.o
 .debug_str     0x00000122        0xa build/DM30004-2/production/_ext/134845378/compress.o
 .debug_str     0x0000012c        0x0 build/DM30004-2/production/_ext/134845378/crc32.o
 .debug_str     0x0000012c       0x6d build/DM30004-2/production/_ext/134845378/deflate.o
 .debug_str     0x00000199        0x6 build/DM30004-2/production/_ext/134845378/infback.o
 .debug_str     0x0000019f        0x0 build/DM30004-2/production/_ext/134845378/inffast.o
 .debug_str     0x0000019f       0x22 build/DM30004-2/production/_ext/134845378/inflate.o
 .debug_str     0x000001c1        0x0 build/DM30004-2/production/_ext/134845378/inftrees.o
 .debug_str     0x000001c1       0x4d build/DM30004-2/production/_ext/134845378/trees.o
 .debug_str     0x0000020e        0x0 build/DM30004-2/production/_ext/134845378/uncompr.o
 .debug_str     0x0000020e        0x0 build/DM30004-2/production/_ext/134845378/zutil.o
 .debug_str     0x0000020e        0x0 build/DM30004-2/production/_ext/458569783/ecc.o
 .debug_str     0x0000020e        0x0 build/DM30004-2/production/_ext/458569783/arc4.o
 .debug_str     0x0000020e       0x4c build/DM30004-2/production/_ext/458569783/pwdbased.o
 .debug_str     0x0000025a        0x0 build/DM30004-2/production/_ext/458569783/tfm.o
 .debug_str     0x0000025a      0x117 build/DM30004-2/production/_ext/458569783/asn.o
 .debug_str     0x00000371        0x7 build/DM30004-2/production/_ext/458569783/des3.o
 .debug_str     0x00000378       0x64 build/DM30004-2/production/_ext/458569783/rsa.o
 .debug_str     0x000003dc       0x18 build/DM30004-2/production/_ext/458569783/aes.o
 .debug_str     0x000003f4        0x0 build/DM30004-2/production/_ext/458569783/md5.o
 .debug_str     0x000003f4        0x0 build/DM30004-2/production/_ext/458569783/sha.o
 .debug_str     0x000003f4        0x7 build/DM30004-2/production/_ext/458569783/sha256.o
 .debug_str     0x000003fb        0x0 build/DM30004-2/production/_ext/458569783/sha512.o
 .debug_str     0x000003fb       0x16 build/DM30004-2/production/_ext/458569783/hmac.o
 .debug_str     0x00000411       0x2e build/DM30004-2/production/_ext/458569783/hash.o
 .debug_str     0x0000043f        0x0 build/DM30004-2/production/_ext/458569783/compress.o
 .debug_str     0x0000043f       0x42 build/DM30004-2/production/_ext/458569783/random.o
 .debug_str     0x00000481       0xa4 build/DM30004-2/production/_ext/458569783/crypto.o
 .debug_str     0x00000525       0x17 build/DM30004-2/production/_ext/458569783/coding.o
 .debug_str     0x0000053c        0x0 build/DM30004-2/production/_ext/458569783/error.o
 .debug_str     0x0000053c       0x30 build/DM30004-2/production/_ext/458569783/integer.o
 .debug_str     0x0000056c        0x0 build/DM30004-2/production/_ext/458569783/logging.o
 .debug_str     0x0000056c        0x0 build/DM30004-2/production/_ext/458569783/memory.o
 .debug_str     0x0000056c        0x0 build/DM30004-2/production/_ext/458569783/misc.o
 .debug_str     0x0000056c        0x0 build/DM30004-2/production/_ext/458569783/port.o
 .debug_str     0x0000056c      0x17b build/DM30004-2/production/_ext/854379441/drv_ethmac.o
 .debug_str     0x000006e7      0x166 build/DM30004-2/production/_ext/854379441/drv_ethmac_lib.o
 .debug_str     0x0000084d      0x475 build/DM30004-2/production/_ext/2030533247/drv_ethphy.o
 .debug_str     0x00000cc2       0x2a build/DM30004-2/production/_ext/2030533247/drv_extphy_smsc8740.o
 .debug_str     0x00000cec       0xb9 build/DM30004-2/production/_ext/2027566358/drv_tmr.o
 .debug_str     0x00000da5       0x16 build/DM30004-2/production/_ext/1322803601/sys_devcon.o
 .debug_str     0x00000dbb        0x6 build/DM30004-2/production/_ext/1322803601/sys_devcon_pic32mx.o
 .debug_str     0x00000dc1       0x2d build/DM30004-2/production/_ext/1204230505/sys_int_pic32.o
 .debug_str     0x00000dee       0x1d build/DM30004-2/production/_ext/1310142747/sys_random.o
 .debug_str     0x00000e0b       0x7d build/DM30004-2/production/_ext/62100799/sys_tmr.o
 .debug_str     0x00000e88        0x0 build/DM30004-2/production/_ext/804969968/helpers.o
 .debug_str     0x00000e88       0x91 build/DM30004-2/production/_ext/1899562614/ipv4.o
 .debug_str     0x00000f19      0x179 build/DM30004-2/production/_ext/1899562614/udp.o
 .debug_str     0x00001092       0x70 build/DM30004-2/production/_ext/1899562614/tcpip_heap_alloc.o
 .debug_str     0x00001102       0x59 build/DM30004-2/production/_ext/1899562614/tcpip_heap_internal.o
 .debug_str     0x0000115b      0x104 build/DM30004-2/production/_ext/1899562614/arp.o
 .debug_str     0x0000125f       0xe1 build/DM30004-2/production/_ext/1899562614/dhcp.o
 .debug_str     0x00001340      0x15a build/DM30004-2/production/_ext/1899562614/dns.o
 .debug_str     0x0000149a        0x0 build/DM30004-2/production/_ext/1899562614/hash_fnv.o
 .debug_str     0x0000149a        0xa build/DM30004-2/production/_ext/1899562614/oahash.o
 .debug_str     0x000014a4       0xa6 build/DM30004-2/production/_ext/1899562614/tcpip_helpers.o
 .debug_str     0x0000154a      0x2ec build/DM30004-2/production/_ext/1899562614/tcpip_manager.o
 .debug_str     0x00001836       0x33 build/DM30004-2/production/_ext/1899562614/tcpip_notify.o
 .debug_str     0x00001869       0x2c build/DM30004-2/production/_ext/1899562614/tcpip_packet.o
 .debug_str     0x00001895        0x0 build/DM30004-2/production/_ext/1442095083/unabto_aes128_sha256.o
 .debug_str     0x00001895       0x10 build/DM30004-2/production/_ext/1442095083/unabto_app_adapter.o
 .debug_str     0x000018a5       0x54 build/DM30004-2/production/_ext/1442095083/unabto_attach.o
 .debug_str     0x000018f9        0xf build/DM30004-2/production/_ext/1442095083/unabto_buffers.o
 .debug_str     0x00001908       0x24 build/DM30004-2/production/_ext/1442095083/unabto_common_main.o
 .debug_str     0x0000192c       0xaf build/DM30004-2/production/_ext/1442095083/unabto_connection.o
 .debug_str     0x000019db       0x13 build/DM30004-2/production/_ext/1442095083/unabto_context.o
 .debug_str     0x000019ee       0x47 build/DM30004-2/production/_ext/1442095083/unabto_crypto.o
 .debug_str     0x00001a35        0x0 build/DM30004-2/production/_ext/1442095083/unabto_debug_packet.o
 .debug_str     0x00001a35       0x1b build/DM30004-2/production/_ext/1442095083/unabto_extended_rendezvous.o
 .debug_str     0x00001a50        0x0 build/DM30004-2/production/_ext/1442095083/unabto_memory.o
 .debug_str     0x00001a50       0x26 build/DM30004-2/production/_ext/1442095083/unabto_message.o
 .debug_str     0x00001a76       0x1d build/DM30004-2/production/_ext/1442095083/unabto_next_event.o
 .debug_str     0x00001a93       0xb5 build/DM30004-2/production/_ext/1442095083/unabto_packet.o
 .debug_str     0x00001b48       0x57 build/DM30004-2/production/_ext/1442095083/unabto_packet_util.o
 .debug_str     0x00001b9f       0x15 build/DM30004-2/production/_ext/1442095083/unabto_prf.o
 .debug_str     0x00001bb4       0x3f build/DM30004-2/production/_ext/1442095083/unabto_query_rw.o
 .debug_str     0x00001bf3       0x51 build/DM30004-2/production/_ext/1442095083/unabto_stream.o
 .debug_str     0x00001c44       0x62 build/DM30004-2/production/_ext/1442095083/unabto_stream_environment.o
 .debug_str     0x00001ca6       0xa2 build/DM30004-2/production/_ext/1442095083/unabto_stream_event.o
 .debug_str     0x00001d48       0xcc build/DM30004-2/production/_ext/1442095083/unabto_stream_window.o
 .debug_str     0x00001e14        0x0 build/DM30004-2/production/_ext/1442095083/unabto_tcp_fallback.o
 .debug_str     0x00001e14       0x30 build/DM30004-2/production/_ext/2107900007/unabto_harmony_crypto.o
 .debug_str     0x00001e44        0x0 build/DM30004-2/production/_ext/2107900007/unabto_harmony_dns.o
 .debug_str     0x00001e44       0x11 build/DM30004-2/production/_ext/2107900007/unabto_harmony_network.o
 .debug_str     0x00001e55        0x0 build/DM30004-2/production/_ext/2107900007/unabto_harmony_random.o
 .debug_str     0x00001e55        0x0 build/DM30004-2/production/_ext/2107900007/unabto_harmony_time.o
 .debug_str     0x00001e55        0x0 build/DM30004-2/production/_ext/2107900007/unabto_udp_debug.o
 .debug_str     0x00001e55        0x0 /opt/microchip/xc32/v1.43/bin/bin/../../lib/gcc/pic32mx/4.8.3/libgcc.a(_divdi3.o)
 .debug_str     0x00001e55        0x0 /opt/microchip/xc32/v1.43/bin/bin/../../lib/gcc/pic32mx/4.8.3/libgcc.a(_udivdi3.o)
 .debug_str     0x00001e55        0x0 /opt/microchip/xc32/v1.43/bin/bin/../../lib/gcc/pic32mx/4.8.3/libgcc.a(floatunsisf.o)
 .debug_str     0x00001e55        0x0 /opt/microchip/xc32/v1.43/bin/bin/../../lib/gcc/pic32mx/4.8.3/../../../../pic32mx/lib/libpic32.a(default-bootstrap-exception-handler.o)
 .debug_str     0x00001e55        0x0 /opt/microchip/xc32/v1.43/bin/bin/../../lib/gcc/pic32mx/4.8.3/../../../../pic32mx/lib/libpic32.a(default-on-reset.o)
 .debug_str     0x00001e55        0x0 /opt/microchip/xc32/v1.43/bin/bin/../../lib/gcc/pic32mx/4.8.3/../../../../pic32mx/lib/libpic32.a(default-on-bootstrap.o)
 .debug_str     0x00001e55        0x0 /opt/microchip/xc32/v1.43/bin/bin/../../lib/gcc/pic32mx/4.8.3/../../../../pic32mx/lib/libpic32.a(defaultinterrupt.o)
 .debug_str     0x00001e55        0x0 /opt/microchip/xc32/v1.43/bin/bin/../../lib/gcc/pic32mx/4.8.3/../../../../pic32mx/lib/libc.a(calloc.o)
 .debug_str     0x00001e55        0x0 /opt/microchip/xc32/v1.43/bin/bin/../../lib/gcc/pic32mx/4.8.3/../../../../pic32mx/lib/libc.a(ctime.o)
 .debug_str     0x00001e55        0x0 /opt/microchip/xc32/v1.43/bin/bin/../../lib/gcc/pic32mx/4.8.3/../../../../pic32mx/lib/libc.a(ctype.o)
 .debug_str     0x00001e55        0x0 /opt/microchip/xc32/v1.43/bin/bin/../../lib/gcc/pic32mx/4.8.3/../../../../pic32mx/lib/libc.a(ctypef.o)
 .debug_str     0x00001e55        0x0 /opt/microchip/xc32/v1.43/bin/bin/../../lib/gcc/pic32mx/4.8.3/../../../../pic32mx/lib/libc.a(malloc.o)
 .debug_str     0x00001e55        0x0 /opt/microchip/xc32/v1.43/bin/bin/../../lib/gcc/pic32mx/4.8.3/../../../../pic32mx/lib/libc.a(memmove.o)
 .debug_str     0x00001e55        0x0 /opt/microchip/xc32/v1.43/bin/bin/../../lib/gcc/pic32mx/4.8.3/../../../../pic32mx/lib/libc.a(rand.o)
 .debug_str     0x00001e55        0x0 /opt/microchip/xc32/v1.43/bin/bin/../../lib/gcc/pic32mx/4.8.3/../../../../pic32mx/lib/libc.a(strncmp.o)
 .debug_str     0x00001e55        0x0 /opt/microchip/xc32/v1.43/bin/bin/../../lib/gcc/pic32mx/4.8.3/../../../../pic32mx/lib/libc.a(strncpy.o)
 .debug_str     0x00001e55        0x0 /opt/microchip/xc32/v1.43/bin/bin/../../lib/gcc/pic32mx/4.8.3/../../../../pic32mx/lib/libc.a(strtol.o)
 .debug_str     0x00001e55        0x0 /opt/microchip/xc32/v1.43/bin/bin/../../lib/gcc/pic32mx/4.8.3/../../../../pic32mx/lib/libc.a(time.o)
 .debug_str     0x00001e55        0x0 /opt/microchip/xc32/v1.43/bin/bin/../../lib/gcc/pic32mx/4.8.3/../../../../pic32mx/lib/libc.a(exit.o)
 .debug_str     0x00001e55        0x0 /opt/microchip/xc32/v1.43/bin/bin/../../lib/gcc/pic32mx/4.8.3/../../../../pic32mx/lib/libc.a(stdclean_simple.o)
 .debug_str     0x00001e55        0x0 /opt/microchip/xc32/v1.43/bin/bin/../../lib/gcc/pic32mx/4.8.3/../../../../pic32mx/lib/libc.a(sprintf_cdnopsuxX.eo)
 .debug_str     0x00001e55        0x0 /opt/microchip/xc32/v1.43/bin/bin/../../lib/gcc/pic32mx/4.8.3/../../../../pic32mx/lib/libc.a(vsnprintf.o)
 .debug_str     0x00001e55        0x0 /opt/microchip/xc32/v1.43/bin/bin/../../lib/gcc/pic32mx/4.8.3/../../../../pic32mx/lib/libc.a(errno.o)
 .debug_str     0x00001e55        0x0 /opt/microchip/xc32/v1.43/bin/bin/../../lib/gcc/pic32mx/4.8.3/../../../../pic32mx/lib/libc.a(doprnt_cdnopsuxX.eo)
 .debug_str     0x00001e55        0x0 /opt/microchip/xc32/v1.43/bin/bin/../../lib/gcc/pic32mx/4.8.3/../../../../pic32mx/lib/libc.a(doprnt.o)
 .debug_str     0x00001e55        0x0 /opt/microchip/xc32/v1.43/bin/bin/../../lib/gcc/pic32mx/4.8.3/../../../../pic32mx/lib/libc.a(_fputc_simple.o)
 .debug_str     0x00001e55        0x0 /opt/microchip/xc32/v1.43/bin/bin/../../lib/gcc/pic32mx/4.8.3/../../../../pic32mx/lib/libc.a(ldpowers.o)
 .debug_str     0x00001e55        0x0 /opt/microchip/xc32/v1.43/bin/bin/../../lib/gcc/pic32mx/4.8.3/../../../../pic32mx/lib/libc.a(_iob.o)
 .debug_str     0x00001e55        0x0 /opt/microchip/xc32/v1.43/bin/bin/../../lib/gcc/pic32mx/4.8.3/../../../../pic32mx/lib/libc.a(_flsbuf_simple.o)
 .debug_str     0x00001e55        0x0 /opt/microchip/xc32/v1.43/bin/bin/../../lib/gcc/pic32mx/4.8.3/../../../../pic32mx/lib/libe.a(_fixunsdfdi.o)
 .debug_str     0x00001e55        0x0 /opt/microchip/xc32/v1.43/bin/bin/../../lib/gcc/pic32mx/4.8.3/../../../../pic32mx/lib/libe.a(_orderdf2.o)
 .debug_str     0x00001e55        0x0 /opt/microchip/xc32/v1.43/bin/bin/../../lib/gcc/pic32mx/4.8.3/../../../../pic32mx/lib/libe.a(_fixdfdi.o)
 .debug_str     0x00001e55        0x0 /opt/microchip/xc32/v1.43/bin/bin/../../lib/gcc/pic32mx/4.8.3/libgcc.a(_umoddi3.o)
 .debug_str     0x00001e55        0x0 /opt/microchip/xc32/v1.43/bin/bin/../../lib/gcc/pic32mx/4.8.3/libgcc.a(floatunsidf.o)
 .debug_str     0x00001e55        0x0 /opt/microchip/xc32/v1.43/bin/bin/../../lib/gcc/pic32mx/4.8.3/../../../../pic32mx/lib/libpic32.a(sbrk.o)
 .debug_str     0x00001e55        0x0 /opt/microchip/xc32/v1.43/bin/bin/../../lib/gcc/pic32mx/4.8.3/../../../../pic32mx/lib/libpic32.a(write.o)
 .debug_str     0x00001e55        0x0 /opt/microchip/xc32/v1.43/bin/bin/../../lib/gcc/pic32mx/4.8.3/../../../../pic32mx/lib/libpic32.a(_mon_putc.o)
 .debug_str     0x00001e55        0x0 /opt/microchip/xc32/v1.43/bin/bin/../../lib/gcc/pic32mx/4.8.3/../../../../pic32mx/lib/libpic32.a(xc32_uart.o)

.debug_loc      0x00000000    0x7e794
 *(.debug_loc)
 .debug_loc     0x00000000       0x49 build/DM30004-2/production/_ext/2025569787/sys_clk_static.o
 .debug_loc     0x00000049      0xecf build/DM30004-2/production/_ext/540202005/sys_ports_static.o
 .debug_loc     0x00000f18       0x21 build/DM30004-2/production/_ext/1280997252/system_init.o
 .debug_loc     0x00000f39       0x56 build/DM30004-2/production/_ext/1280997252/system_interrupt.o
 .debug_loc     0x00000f8f       0x78 build/DM30004-2/production/_ext/1360937237/app.o
 .debug_loc     0x00001007      0x267 build/DM30004-2/production/_ext/1360937237/stream_echo.o
 .debug_loc     0x0000126e      0x11b build/DM30004-2/production/_ext/632331575/bsp_sys_init.o
 .debug_loc     0x00001389      0x799 build/DM30004-2/production/_ext/134845378/adler32.o
 .debug_loc     0x00001b22      0x1a2 build/DM30004-2/production/_ext/134845378/compress.o
 .debug_loc     0x00001cc4      0x875 build/DM30004-2/production/_ext/134845378/crc32.o
 .debug_loc     0x00002539     0x169e build/DM30004-2/production/_ext/134845378/deflate.o
 .debug_loc     0x00003bd7      0xf2e build/DM30004-2/production/_ext/134845378/infback.o
 .debug_loc     0x00004b05      0x705 build/DM30004-2/production/_ext/134845378/inffast.o
 .debug_loc     0x0000520a     0x15ca build/DM30004-2/production/_ext/134845378/inflate.o
 .debug_loc     0x000067d4      0x739 build/DM30004-2/production/_ext/134845378/inftrees.o
 .debug_loc     0x00006f0d     0x1513 build/DM30004-2/production/_ext/134845378/trees.o
 .debug_loc     0x00008420       0xdb build/DM30004-2/production/_ext/134845378/uncompr.o
 .debug_loc     0x000084fb       0xc6 build/DM30004-2/production/_ext/134845378/zutil.o
 .debug_loc     0x000085c1      0x1b5 build/DM30004-2/production/_ext/458569783/arc4.o
 .debug_loc     0x00008776      0xf41 build/DM30004-2/production/_ext/458569783/pwdbased.o
 .debug_loc     0x000096b7     0x58aa build/DM30004-2/production/_ext/458569783/asn.o
 .debug_loc     0x0000ef61     0x4542 build/DM30004-2/production/_ext/458569783/des3.o
 .debug_loc     0x000134a3     0x24bf build/DM30004-2/production/_ext/458569783/rsa.o
 .debug_loc     0x00015962      0xf5b build/DM30004-2/production/_ext/458569783/aes.o
 .debug_loc     0x000168bd     0x20a0 build/DM30004-2/production/_ext/458569783/md5.o
 .debug_loc     0x0001895d    0x2f790 build/DM30004-2/production/_ext/458569783/sha.o
 .debug_loc     0x000480ed      0xc0c build/DM30004-2/production/_ext/458569783/sha256.o
 .debug_loc     0x00048cf9      0x559 build/DM30004-2/production/_ext/458569783/hmac.o
 .debug_loc     0x00049252      0x53f build/DM30004-2/production/_ext/458569783/hash.o
 .debug_loc     0x00049791     0x1231 build/DM30004-2/production/_ext/458569783/random.o
 .debug_loc     0x0004a9c2     0x14db build/DM30004-2/production/_ext/458569783/crypto.o
 .debug_loc     0x0004be9d     0x1042 build/DM30004-2/production/_ext/458569783/coding.o
 .debug_loc     0x0004cedf       0x7c build/DM30004-2/production/_ext/458569783/error.o
 .debug_loc     0x0004cf5b     0x595f build/DM30004-2/production/_ext/458569783/integer.o
 .debug_loc     0x000528ba      0x173 build/DM30004-2/production/_ext/458569783/memory.o
 .debug_loc     0x00052a2d     0x21e8 build/DM30004-2/production/_ext/854379441/drv_ethmac.o
 .debug_loc     0x00054c15     0x25d3 build/DM30004-2/production/_ext/854379441/drv_ethmac_lib.o
 .debug_loc     0x000571e8     0x31cf build/DM30004-2/production/_ext/2030533247/drv_ethphy.o
 .debug_loc     0x0005a3b7      0x268 build/DM30004-2/production/_ext/2030533247/drv_extphy_smsc8740.o
 .debug_loc     0x0005a61f     0x2f80 build/DM30004-2/production/_ext/2027566358/drv_tmr.o
 .debug_loc     0x0005d59f       0xf0 build/DM30004-2/production/_ext/1322803601/sys_devcon.o
 .debug_loc     0x0005d68f       0xda build/DM30004-2/production/_ext/1322803601/sys_devcon_pic32mx.o
 .debug_loc     0x0005d769       0x8d build/DM30004-2/production/_ext/1204230505/sys_int_pic32.o
 .debug_loc     0x0005d7f6       0xe8 build/DM30004-2/production/_ext/1310142747/sys_random.o
 .debug_loc     0x0005d8de      0xf11 build/DM30004-2/production/_ext/62100799/sys_tmr.o
 .debug_loc     0x0005e7ef      0x2ff build/DM30004-2/production/_ext/804969968/helpers.o
 .debug_loc     0x0005eaee     0x1158 build/DM30004-2/production/_ext/1899562614/ipv4.o
 .debug_loc     0x0005fc46     0x30c9 build/DM30004-2/production/_ext/1899562614/udp.o
 .debug_loc     0x00062d0f      0x15b build/DM30004-2/production/_ext/1899562614/tcpip_heap_alloc.o
 .debug_loc     0x00062e6a      0xa78 build/DM30004-2/production/_ext/1899562614/tcpip_heap_internal.o
 .debug_loc     0x000638e2     0x1ea5 build/DM30004-2/production/_ext/1899562614/arp.o
 .debug_loc     0x00065787     0x20de build/DM30004-2/production/_ext/1899562614/dhcp.o
 .debug_loc     0x00067865     0x2114 build/DM30004-2/production/_ext/1899562614/dns.o
 .debug_loc     0x00069979      0x137 build/DM30004-2/production/_ext/1899562614/hash_fnv.o
 .debug_loc     0x00069ab0      0x2b1 build/DM30004-2/production/_ext/1899562614/oahash.o
 .debug_loc     0x00069d61     0x31da build/DM30004-2/production/_ext/1899562614/tcpip_helpers.o
 .debug_loc     0x0006cf3b     0x30cc build/DM30004-2/production/_ext/1899562614/tcpip_manager.o
 .debug_loc     0x00070007      0x27a build/DM30004-2/production/_ext/1899562614/tcpip_notify.o
 .debug_loc     0x00070281      0x830 build/DM30004-2/production/_ext/1899562614/tcpip_packet.o
 .debug_loc     0x00070ab1       0xbb build/DM30004-2/production/_ext/1442095083/unabto_aes128_sha256.o
 .debug_loc     0x00070b6c      0x2f4 build/DM30004-2/production/_ext/1442095083/unabto_app_adapter.o
 .debug_loc     0x00070e60     0x1010 build/DM30004-2/production/_ext/1442095083/unabto_attach.o
 .debug_loc     0x00071e70      0x396 build/DM30004-2/production/_ext/1442095083/unabto_buffers.o
 .debug_loc     0x00072206      0x1eb build/DM30004-2/production/_ext/1442095083/unabto_common_main.o
 .debug_loc     0x000723f1     0x186a build/DM30004-2/production/_ext/1442095083/unabto_connection.o
 .debug_loc     0x00073c5b      0xe98 build/DM30004-2/production/_ext/1442095083/unabto_crypto.o
 .debug_loc     0x00074af3       0x60 build/DM30004-2/production/_ext/1442095083/unabto_extended_rendezvous.o
 .debug_loc     0x00074b53      0x4ec build/DM30004-2/production/_ext/1442095083/unabto_message.o
 .debug_loc     0x0007503f       0x7e build/DM30004-2/production/_ext/1442095083/unabto_next_event.o
 .debug_loc     0x000750bd      0xd66 build/DM30004-2/production/_ext/1442095083/unabto_packet.o
 .debug_loc     0x00075e23     0x152e build/DM30004-2/production/_ext/1442095083/unabto_packet_util.o
 .debug_loc     0x00077351      0x396 build/DM30004-2/production/_ext/1442095083/unabto_prf.o
 .debug_loc     0x000776e7      0x4d1 build/DM30004-2/production/_ext/1442095083/unabto_query_rw.o
 .debug_loc     0x00077bb8      0x565 build/DM30004-2/production/_ext/1442095083/unabto_stream.o
 .debug_loc     0x0007811d      0x431 build/DM30004-2/production/_ext/1442095083/unabto_stream_environment.o
 .debug_loc     0x0007854e      0xd6d build/DM30004-2/production/_ext/1442095083/unabto_stream_event.o
 .debug_loc     0x000792bb     0x2c3f build/DM30004-2/production/_ext/1442095083/unabto_stream_window.o
 .debug_loc     0x0007befa      0x398 build/DM30004-2/production/_ext/2107900007/unabto_harmony_crypto.o
 .debug_loc     0x0007c292       0x90 build/DM30004-2/production/_ext/2107900007/unabto_harmony_dns.o
 .debug_loc     0x0007c322      0x24c build/DM30004-2/production/_ext/2107900007/unabto_harmony_network.o
 .debug_loc     0x0007c56e       0x42 build/DM30004-2/production/_ext/2107900007/unabto_harmony_random.o
 .debug_loc     0x0007c5b0       0xa4 build/DM30004-2/production/_ext/2107900007/unabto_harmony_time.o
 .debug_loc     0x0007c654       0xb3 build/DM30004-2/production/_ext/2107900007/unabto_udp_debug.o
 .debug_loc     0x0007c707      0x9ee /opt/microchip/xc32/v1.43/bin/bin/../../lib/gcc/pic32mx/4.8.3/libgcc.a(_divdi3.o)
 .debug_loc     0x0007d0f5      0xa6a /opt/microchip/xc32/v1.43/bin/bin/../../lib/gcc/pic32mx/4.8.3/libgcc.a(_udivdi3.o)
 .debug_loc     0x0007db5f       0x74 /opt/microchip/xc32/v1.43/bin/bin/../../lib/gcc/pic32mx/4.8.3/libgcc.a(floatunsisf.o)
 .debug_loc     0x0007dbd3       0x2c /opt/microchip/xc32/v1.43/bin/bin/../../lib/gcc/pic32mx/4.8.3/../../../../pic32mx/lib/libpic32.a(default-bootstrap-exception-handler.o)
 .debug_loc     0x0007dbff       0x20 /opt/microchip/xc32/v1.43/bin/bin/../../lib/gcc/pic32mx/4.8.3/../../../../pic32mx/lib/libe.a(_fixunsdfdi.o)
 .debug_loc     0x0007dc1f      0xa3d /opt/microchip/xc32/v1.43/bin/bin/../../lib/gcc/pic32mx/4.8.3/libgcc.a(_umoddi3.o)
 .debug_loc     0x0007e65c       0x80 /opt/microchip/xc32/v1.43/bin/bin/../../lib/gcc/pic32mx/4.8.3/libgcc.a(floatunsidf.o)
 .debug_loc     0x0007e6dc       0x60 /opt/microchip/xc32/v1.43/bin/bin/../../lib/gcc/pic32mx/4.8.3/../../../../pic32mx/lib/libpic32.a(sbrk.o)
 .debug_loc     0x0007e73c       0x38 /opt/microchip/xc32/v1.43/bin/bin/../../lib/gcc/pic32mx/4.8.3/../../../../pic32mx/lib/libpic32.a(write.o)
 .debug_loc     0x0007e774       0x20 /opt/microchip/xc32/v1.43/bin/bin/../../lib/gcc/pic32mx/4.8.3/../../../../pic32mx/lib/libpic32.a(_mon_putc.o)

.debug_macinfo
 *(.debug_macinfo)

.debug_weaknames
 *(.debug_weaknames)

.debug_funcnames
 *(.debug_funcnames)

.debug_typenames
 *(.debug_typenames)

.debug_varnames
 *(.debug_varnames)

.debug_pubtypes
 *(.debug_pubtypes)

.debug_ranges   0x00000000     0x5f10
 *(.debug_ranges)
 .debug_ranges  0x00000000       0x40 build/DM30004-2/production/_ext/2025569787/sys_clk_static.o
 .debug_ranges  0x00000040       0xf8 build/DM30004-2/production/_ext/540202005/sys_ports_static.o
 .debug_ranges  0x00000138       0x18 build/DM30004-2/production/_ext/1280997252/system_init.o
 .debug_ranges  0x00000150       0x20 build/DM30004-2/production/_ext/1280997252/system_interrupt.o
 .debug_ranges  0x00000170       0x10 build/DM30004-2/production/_ext/1280997252/system_exceptions.o
 .debug_ranges  0x00000180       0x10 build/DM30004-2/production/_ext/1280997252/system_tasks.o
 .debug_ranges  0x00000190       0x20 build/DM30004-2/production/_ext/1360937237/app.o
 .debug_ranges  0x000001b0       0x10 build/DM30004-2/production/_ext/1360937237/main.o
 .debug_ranges  0x000001c0       0x80 build/DM30004-2/production/_ext/1360937237/stream_echo.o
 .debug_ranges  0x00000240       0x50 build/DM30004-2/production/_ext/632331575/bsp_sys_init.o
 .debug_ranges  0x00000290       0x28 build/DM30004-2/production/_ext/134845378/adler32.o
 .debug_ranges  0x000002b8       0x20 build/DM30004-2/production/_ext/134845378/compress.o
 .debug_ranges  0x000002d8       0x40 build/DM30004-2/production/_ext/134845378/crc32.o
 .debug_ranges  0x00000318      0x260 build/DM30004-2/production/_ext/134845378/deflate.o
 .debug_ranges  0x00000578       0x20 build/DM30004-2/production/_ext/134845378/infback.o
 .debug_ranges  0x00000598       0x10 build/DM30004-2/production/_ext/134845378/inffast.o
 .debug_ranges  0x000005a8       0x90 build/DM30004-2/production/_ext/134845378/inflate.o
 .debug_ranges  0x00000638       0x10 build/DM30004-2/production/_ext/134845378/inftrees.o
 .debug_ranges  0x00000648      0x170 build/DM30004-2/production/_ext/134845378/trees.o
 .debug_ranges  0x000007b8       0x10 build/DM30004-2/production/_ext/134845378/uncompr.o
 .debug_ranges  0x000007c8       0x30 build/DM30004-2/production/_ext/134845378/zutil.o
 .debug_ranges  0x000007f8       0x18 build/DM30004-2/production/_ext/458569783/arc4.o
 .debug_ranges  0x00000810       0xe8 build/DM30004-2/production/_ext/458569783/pwdbased.o
 .debug_ranges  0x000008f8      0x820 build/DM30004-2/production/_ext/458569783/asn.o
 .debug_ranges  0x00001118      0x150 build/DM30004-2/production/_ext/458569783/des3.o
 .debug_ranges  0x00001268      0x150 build/DM30004-2/production/_ext/458569783/rsa.o
 .debug_ranges  0x000013b8       0xd8 build/DM30004-2/production/_ext/458569783/aes.o
 .debug_ranges  0x00001490       0x30 build/DM30004-2/production/_ext/458569783/md5.o
 .debug_ranges  0x000014c0       0xa0 build/DM30004-2/production/_ext/458569783/sha.o
 .debug_ranges  0x00001560       0xb8 build/DM30004-2/production/_ext/458569783/sha256.o
 .debug_ranges  0x00001618       0x48 build/DM30004-2/production/_ext/458569783/hmac.o
 .debug_ranges  0x00001660       0x60 build/DM30004-2/production/_ext/458569783/hash.o
 .debug_ranges  0x000016c0      0x128 build/DM30004-2/production/_ext/458569783/random.o
 .debug_ranges  0x000017e8      0x128 build/DM30004-2/production/_ext/458569783/crypto.o
 .debug_ranges  0x00001910       0xb0 build/DM30004-2/production/_ext/458569783/coding.o
 .debug_ranges  0x000019c0       0x18 build/DM30004-2/production/_ext/458569783/error.o
 .debug_ranges  0x000019d8      0x308 build/DM30004-2/production/_ext/458569783/integer.o
 .debug_ranges  0x00001ce0       0x20 build/DM30004-2/production/_ext/458569783/logging.o
 .debug_ranges  0x00001d00       0x28 build/DM30004-2/production/_ext/458569783/memory.o
 .debug_ranges  0x00001d28       0x30 build/DM30004-2/production/_ext/458569783/port.o
 .debug_ranges  0x00001d58      0x1f0 build/DM30004-2/production/_ext/854379441/drv_ethmac.o
 .debug_ranges  0x00001f48      0x488 build/DM30004-2/production/_ext/854379441/drv_ethmac_lib.o
 .debug_ranges  0x000023d0      0x330 build/DM30004-2/production/_ext/2030533247/drv_ethphy.o
 .debug_ranges  0x00002700       0x20 build/DM30004-2/production/_ext/2030533247/drv_extphy_smsc8740.o
 .debug_ranges  0x00002720      0x620 build/DM30004-2/production/_ext/2027566358/drv_tmr.o
 .debug_ranges  0x00002d40       0x68 build/DM30004-2/production/_ext/1322803601/sys_devcon.o
 .debug_ranges  0x00002da8       0x10 build/DM30004-2/production/_ext/1322803601/sys_devcon_pic32mx.o
 .debug_ranges  0x00002db8       0x50 build/DM30004-2/production/_ext/1204230505/sys_int_pic32.o
 .debug_ranges  0x00002e08       0x58 build/DM30004-2/production/_ext/1310142747/sys_random.o
 .debug_ranges  0x00002e60      0x148 build/DM30004-2/production/_ext/62100799/sys_tmr.o
 .debug_ranges  0x00002fa8       0x30 build/DM30004-2/production/_ext/804969968/helpers.o
 .debug_ranges  0x00002fd8      0x188 build/DM30004-2/production/_ext/1899562614/ipv4.o
 .debug_ranges  0x00003160      0x508 build/DM30004-2/production/_ext/1899562614/udp.o
 .debug_ranges  0x00003668       0x38 build/DM30004-2/production/_ext/1899562614/tcpip_heap_alloc.o
 .debug_ranges  0x000036a0       0x98 build/DM30004-2/production/_ext/1899562614/tcpip_heap_internal.o
 .debug_ranges  0x00003738      0x178 build/DM30004-2/production/_ext/1899562614/arp.o
 .debug_ranges  0x000038b0      0x380 build/DM30004-2/production/_ext/1899562614/dhcp.o
 .debug_ranges  0x00003c30      0x250 build/DM30004-2/production/_ext/1899562614/dns.o
 .debug_ranges  0x00003e80       0x18 build/DM30004-2/production/_ext/1899562614/hash_fnv.o
 .debug_ranges  0x00003e98       0x58 build/DM30004-2/production/_ext/1899562614/oahash.o
 .debug_ranges  0x00003ef0      0x2f8 build/DM30004-2/production/_ext/1899562614/tcpip_helpers.o
 .debug_ranges  0x000041e8      0x618 build/DM30004-2/production/_ext/1899562614/tcpip_manager.o
 .debug_ranges  0x00004800       0x30 build/DM30004-2/production/_ext/1899562614/tcpip_notify.o
 .debug_ranges  0x00004830       0x68 build/DM30004-2/production/_ext/1899562614/tcpip_packet.o
 .debug_ranges  0x00004898       0x10 build/DM30004-2/production/_ext/1442095083/unabto_aes128_sha256.o
 .debug_ranges  0x000048a8       0x60 build/DM30004-2/production/_ext/1442095083/unabto_app_adapter.o
 .debug_ranges  0x00004908      0x320 build/DM30004-2/production/_ext/1442095083/unabto_attach.o
 .debug_ranges  0x00004c28       0xa8 build/DM30004-2/production/_ext/1442095083/unabto_buffers.o
 .debug_ranges  0x00004cd0       0x80 build/DM30004-2/production/_ext/1442095083/unabto_common_main.o
 .debug_ranges  0x00004d50      0x2b0 build/DM30004-2/production/_ext/1442095083/unabto_connection.o
 .debug_ranges  0x00005000       0x30 build/DM30004-2/production/_ext/1442095083/unabto_context.o
 .debug_ranges  0x00005030       0xb8 build/DM30004-2/production/_ext/1442095083/unabto_crypto.o
 .debug_ranges  0x000050e8       0x18 build/DM30004-2/production/_ext/1442095083/unabto_extended_rendezvous.o
 .debug_ranges  0x00005100       0xe0 build/DM30004-2/production/_ext/1442095083/unabto_message.o
 .debug_ranges  0x000051e0       0x18 build/DM30004-2/production/_ext/1442095083/unabto_next_event.o
 .debug_ranges  0x000051f8       0xb0 build/DM30004-2/production/_ext/1442095083/unabto_packet.o
 .debug_ranges  0x000052a8       0xb0 build/DM30004-2/production/_ext/1442095083/unabto_packet_util.o
 .debug_ranges  0x00005358       0x18 build/DM30004-2/production/_ext/1442095083/unabto_prf.o
 .debug_ranges  0x00005370       0xd0 build/DM30004-2/production/_ext/1442095083/unabto_query_rw.o
 .debug_ranges  0x00005440       0x90 build/DM30004-2/production/_ext/1442095083/unabto_stream.o
 .debug_ranges  0x000054d0       0x20 build/DM30004-2/production/_ext/1442095083/unabto_stream_environment.o
 .debug_ranges  0x000054f0      0x100 build/DM30004-2/production/_ext/1442095083/unabto_stream_event.o
 .debug_ranges  0x000055f0      0x3b0 build/DM30004-2/production/_ext/1442095083/unabto_stream_window.o
 .debug_ranges  0x000059a0       0x38 build/DM30004-2/production/_ext/2107900007/unabto_harmony_crypto.o
 .debug_ranges  0x000059d8       0x18 build/DM30004-2/production/_ext/2107900007/unabto_harmony_dns.o
 .debug_ranges  0x000059f0       0x30 build/DM30004-2/production/_ext/2107900007/unabto_harmony_network.o
 .debug_ranges  0x00005a20       0x10 build/DM30004-2/production/_ext/2107900007/unabto_harmony_random.o
 .debug_ranges  0x00005a30       0x30 build/DM30004-2/production/_ext/2107900007/unabto_harmony_time.o
 .debug_ranges  0x00005a60       0x18 build/DM30004-2/production/_ext/2107900007/unabto_udp_debug.o
 .debug_ranges  0x00005a78       0x78 /opt/microchip/xc32/v1.43/bin/bin/../../lib/gcc/pic32mx/4.8.3/libgcc.a(_divdi3.o)
 .debug_ranges  0x00005af0       0x98 /opt/microchip/xc32/v1.43/bin/bin/../../lib/gcc/pic32mx/4.8.3/libgcc.a(_udivdi3.o)
 .debug_ranges  0x00005b88       0x10 /opt/microchip/xc32/v1.43/bin/bin/../../lib/gcc/pic32mx/4.8.3/../../../../pic32mx/lib/libpic32.a(default-bootstrap-exception-handler.o)
 .debug_ranges  0x00005b98       0x10 /opt/microchip/xc32/v1.43/bin/bin/../../lib/gcc/pic32mx/4.8.3/../../../../pic32mx/lib/libpic32.a(default-on-reset.o)
 .debug_ranges  0x00005ba8       0x10 /opt/microchip/xc32/v1.43/bin/bin/../../lib/gcc/pic32mx/4.8.3/../../../../pic32mx/lib/libpic32.a(default-on-bootstrap.o)
 .debug_ranges  0x00005bb8       0x10 /opt/microchip/xc32/v1.43/bin/bin/../../lib/gcc/pic32mx/4.8.3/../../../../pic32mx/lib/libpic32.a(defaultinterrupt.o)
 .debug_ranges  0x00005bc8       0x10 /opt/microchip/xc32/v1.43/bin/bin/../../lib/gcc/pic32mx/4.8.3/../../../../pic32mx/lib/libc.a(calloc.o)
 .debug_ranges  0x00005bd8       0x30 /opt/microchip/xc32/v1.43/bin/bin/../../lib/gcc/pic32mx/4.8.3/../../../../pic32mx/lib/libc.a(ctime.o)
 .debug_ranges  0x00005c08       0x90 /opt/microchip/xc32/v1.43/bin/bin/../../lib/gcc/pic32mx/4.8.3/../../../../pic32mx/lib/libc.a(ctypef.o)
 .debug_ranges  0x00005c98       0x20 /opt/microchip/xc32/v1.43/bin/bin/../../lib/gcc/pic32mx/4.8.3/../../../../pic32mx/lib/libc.a(malloc.o)
 .debug_ranges  0x00005cb8       0x10 /opt/microchip/xc32/v1.43/bin/bin/../../lib/gcc/pic32mx/4.8.3/../../../../pic32mx/lib/libc.a(memmove.o)
 .debug_ranges  0x00005cc8       0x18 /opt/microchip/xc32/v1.43/bin/bin/../../lib/gcc/pic32mx/4.8.3/../../../../pic32mx/lib/libc.a(rand.o)
 .debug_ranges  0x00005ce0       0x10 /opt/microchip/xc32/v1.43/bin/bin/../../lib/gcc/pic32mx/4.8.3/../../../../pic32mx/lib/libc.a(strncmp.o)
 .debug_ranges  0x00005cf0       0x10 /opt/microchip/xc32/v1.43/bin/bin/../../lib/gcc/pic32mx/4.8.3/../../../../pic32mx/lib/libc.a(strncpy.o)
 .debug_ranges  0x00005d00       0x18 /opt/microchip/xc32/v1.43/bin/bin/../../lib/gcc/pic32mx/4.8.3/../../../../pic32mx/lib/libc.a(strtol.o)
 .debug_ranges  0x00005d18       0x10 /opt/microchip/xc32/v1.43/bin/bin/../../lib/gcc/pic32mx/4.8.3/../../../../pic32mx/lib/libc.a(time.o)
 .debug_ranges  0x00005d28       0x10 /opt/microchip/xc32/v1.43/bin/bin/../../lib/gcc/pic32mx/4.8.3/../../../../pic32mx/lib/libc.a(exit.o)
 .debug_ranges  0x00005d38       0x10 /opt/microchip/xc32/v1.43/bin/bin/../../lib/gcc/pic32mx/4.8.3/../../../../pic32mx/lib/libc.a(stdclean_simple.o)
 .debug_ranges  0x00005d48       0x10 /opt/microchip/xc32/v1.43/bin/bin/../../lib/gcc/pic32mx/4.8.3/../../../../pic32mx/lib/libc.a(sprintf_cdnopsuxX.eo)
 .debug_ranges  0x00005d58       0x10 /opt/microchip/xc32/v1.43/bin/bin/../../lib/gcc/pic32mx/4.8.3/../../../../pic32mx/lib/libc.a(vsnprintf.o)
 .debug_ranges  0x00005d68       0x10 /opt/microchip/xc32/v1.43/bin/bin/../../lib/gcc/pic32mx/4.8.3/../../../../pic32mx/lib/libc.a(doprnt_cdnopsuxX.eo)
 .debug_ranges  0x00005d78       0x20 /opt/microchip/xc32/v1.43/bin/bin/../../lib/gcc/pic32mx/4.8.3/../../../../pic32mx/lib/libc.a(doprnt.o)
 .debug_ranges  0x00005d98       0x10 /opt/microchip/xc32/v1.43/bin/bin/../../lib/gcc/pic32mx/4.8.3/../../../../pic32mx/lib/libc.a(_fputc_simple.o)
 .debug_ranges  0x00005da8       0x10 /opt/microchip/xc32/v1.43/bin/bin/../../lib/gcc/pic32mx/4.8.3/../../../../pic32mx/lib/libc.a(_flsbuf_simple.o)
 .debug_ranges  0x00005db8       0x10 /opt/microchip/xc32/v1.43/bin/bin/../../lib/gcc/pic32mx/4.8.3/../../../../pic32mx/lib/libe.a(_fixunsdfdi.o)
 .debug_ranges  0x00005dc8       0x10 /opt/microchip/xc32/v1.43/bin/bin/../../lib/gcc/pic32mx/4.8.3/../../../../pic32mx/lib/libe.a(_orderdf2.o)
 .debug_ranges  0x00005dd8       0x10 /opt/microchip/xc32/v1.43/bin/bin/../../lib/gcc/pic32mx/4.8.3/../../../../pic32mx/lib/libe.a(_fixdfdi.o)
 .debug_ranges  0x00005de8       0xd8 /opt/microchip/xc32/v1.43/bin/bin/../../lib/gcc/pic32mx/4.8.3/libgcc.a(_umoddi3.o)
 .debug_ranges  0x00005ec0       0x30 /opt/microchip/xc32/v1.43/bin/bin/../../lib/gcc/pic32mx/4.8.3/../../../../pic32mx/lib/libpic32.a(sbrk.o)
 .debug_ranges  0x00005ef0       0x10 /opt/microchip/xc32/v1.43/bin/bin/../../lib/gcc/pic32mx/4.8.3/../../../../pic32mx/lib/libpic32.a(write.o)
 .debug_ranges  0x00005f00       0x10 /opt/microchip/xc32/v1.43/bin/bin/../../lib/gcc/pic32mx/4.8.3/../../../../pic32mx/lib/libpic32.a(_mon_putc.o)

.gnu.attributes
                0x00000000       0x10
 *(.gnu.attributes)
 .gnu.attributes
                0x00000000       0x10 build/DM30004-2/production/_ext/2025569787/sys_clk_static.o
 .gnu.attributes
                0x00000010       0x10 build/DM30004-2/production/_ext/540202005/sys_ports_static.o
 .gnu.attributes
                0x00000020       0x10 build/DM30004-2/production/_ext/1280997252/system_init.o
 .gnu.attributes
                0x00000030       0x10 build/DM30004-2/production/_ext/1280997252/system_interrupt.o
 .gnu.attributes
                0x00000040       0x10 build/DM30004-2/production/_ext/1280997252/system_exceptions.o
 .gnu.attributes
                0x00000050       0x10 build/DM30004-2/production/_ext/1280997252/system_tasks.o
 .gnu.attributes
                0x00000060       0x10 build/DM30004-2/production/_ext/1360937237/app.o
 .gnu.attributes
                0x00000070       0x10 build/DM30004-2/production/_ext/1360937237/main.o
 .gnu.attributes
                0x00000080       0x10 build/DM30004-2/production/_ext/1360937237/stream_echo.o
 .gnu.attributes
                0x00000090       0x10 build/DM30004-2/production/_ext/632331575/bsp_sys_init.o
 .gnu.attributes
                0x000000a0       0x10 build/DM30004-2/production/_ext/134845378/adler32.o
 .gnu.attributes
                0x000000b0       0x10 build/DM30004-2/production/_ext/134845378/compress.o
 .gnu.attributes
                0x000000c0       0x10 build/DM30004-2/production/_ext/134845378/crc32.o
 .gnu.attributes
                0x000000d0       0x10 build/DM30004-2/production/_ext/134845378/deflate.o
 .gnu.attributes
                0x000000e0       0x10 build/DM30004-2/production/_ext/134845378/infback.o
 .gnu.attributes
                0x000000f0       0x10 build/DM30004-2/production/_ext/134845378/inffast.o
 .gnu.attributes
                0x00000100       0x10 build/DM30004-2/production/_ext/134845378/inflate.o
 .gnu.attributes
                0x00000110       0x10 build/DM30004-2/production/_ext/134845378/inftrees.o
 .gnu.attributes
                0x00000120       0x10 build/DM30004-2/production/_ext/134845378/trees.o
 .gnu.attributes
                0x00000130       0x10 build/DM30004-2/production/_ext/134845378/uncompr.o
 .gnu.attributes
                0x00000140       0x10 build/DM30004-2/production/_ext/134845378/zutil.o
 .gnu.attributes
                0x00000150       0x10 build/DM30004-2/production/_ext/458569783/ecc.o
 .gnu.attributes
                0x00000160       0x10 build/DM30004-2/production/_ext/458569783/arc4.o
 .gnu.attributes
                0x00000170       0x10 build/DM30004-2/production/_ext/458569783/pwdbased.o
 .gnu.attributes
                0x00000180       0x10 build/DM30004-2/production/_ext/458569783/tfm.o
 .gnu.attributes
                0x00000190       0x10 build/DM30004-2/production/_ext/458569783/asn.o
 .gnu.attributes
                0x000001a0       0x10 build/DM30004-2/production/_ext/458569783/des3.o
 .gnu.attributes
                0x000001b0       0x10 build/DM30004-2/production/_ext/458569783/rsa.o
 .gnu.attributes
                0x000001c0       0x10 build/DM30004-2/production/_ext/458569783/aes.o
 .gnu.attributes
                0x000001d0       0x10 build/DM30004-2/production/_ext/458569783/md5.o
 .gnu.attributes
                0x000001e0       0x10 build/DM30004-2/production/_ext/458569783/sha.o
 .gnu.attributes
                0x000001f0       0x10 build/DM30004-2/production/_ext/458569783/sha256.o
 .gnu.attributes
                0x00000200       0x10 build/DM30004-2/production/_ext/458569783/sha512.o
 .gnu.attributes
                0x00000210       0x10 build/DM30004-2/production/_ext/458569783/hmac.o
 .gnu.attributes
                0x00000220       0x10 build/DM30004-2/production/_ext/458569783/hash.o
 .gnu.attributes
                0x00000230       0x10 build/DM30004-2/production/_ext/458569783/compress.o
 .gnu.attributes
                0x00000240       0x10 build/DM30004-2/production/_ext/458569783/random.o
 .gnu.attributes
                0x00000250       0x10 build/DM30004-2/production/_ext/458569783/crypto.o
 .gnu.attributes
                0x00000260       0x10 build/DM30004-2/production/_ext/458569783/coding.o
 .gnu.attributes
                0x00000270       0x10 build/DM30004-2/production/_ext/458569783/error.o
 .gnu.attributes
                0x00000280       0x10 build/DM30004-2/production/_ext/458569783/integer.o
 .gnu.attributes
                0x00000290       0x10 build/DM30004-2/production/_ext/458569783/logging.o
 .gnu.attributes
                0x000002a0       0x10 build/DM30004-2/production/_ext/458569783/memory.o
 .gnu.attributes
                0x000002b0       0x10 build/DM30004-2/production/_ext/458569783/misc.o
 .gnu.attributes
                0x000002c0       0x10 build/DM30004-2/production/_ext/458569783/port.o
 .gnu.attributes
                0x000002d0       0x10 build/DM30004-2/production/_ext/854379441/drv_ethmac.o
 .gnu.attributes
                0x000002e0       0x10 build/DM30004-2/production/_ext/854379441/drv_ethmac_lib.o
 .gnu.attributes
                0x000002f0       0x10 build/DM30004-2/production/_ext/2030533247/drv_ethphy.o
 .gnu.attributes
                0x00000300       0x10 build/DM30004-2/production/_ext/2030533247/drv_extphy_smsc8740.o
 .gnu.attributes
                0x00000310       0x10 build/DM30004-2/production/_ext/2027566358/drv_tmr.o
 .gnu.attributes
                0x00000320       0x10 build/DM30004-2/production/_ext/1322803601/sys_devcon.o
 .gnu.attributes
                0x00000330       0x10 build/DM30004-2/production/_ext/1322803601/sys_devcon_pic32mx.o
 .gnu.attributes
                0x00000340       0x10 build/DM30004-2/production/_ext/1204230505/sys_int_pic32.o
 .gnu.attributes
                0x00000350       0x10 build/DM30004-2/production/_ext/1310142747/sys_random.o
 .gnu.attributes
                0x00000360       0x10 build/DM30004-2/production/_ext/62100799/sys_tmr.o
 .gnu.attributes
                0x00000370       0x10 build/DM30004-2/production/_ext/804969968/helpers.o
 .gnu.attributes
                0x00000380       0x10 build/DM30004-2/production/_ext/1899562614/ipv4.o
 .gnu.attributes
                0x00000390       0x10 build/DM30004-2/production/_ext/1899562614/udp.o
 .gnu.attributes
                0x000003a0       0x10 build/DM30004-2/production/_ext/1899562614/tcpip_heap_alloc.o
 .gnu.attributes
                0x000003b0       0x10 build/DM30004-2/production/_ext/1899562614/tcpip_heap_internal.o
 .gnu.attributes
                0x000003c0       0x10 build/DM30004-2/production/_ext/1899562614/arp.o
 .gnu.attributes
                0x000003d0       0x10 build/DM30004-2/production/_ext/1899562614/dhcp.o
 .gnu.attributes
                0x000003e0       0x10 build/DM30004-2/production/_ext/1899562614/dns.o
 .gnu.attributes
                0x000003f0       0x10 build/DM30004-2/production/_ext/1899562614/hash_fnv.o
 .gnu.attributes
                0x00000400       0x10 build/DM30004-2/production/_ext/1899562614/oahash.o
 .gnu.attributes
                0x00000410       0x10 build/DM30004-2/production/_ext/1899562614/tcpip_helpers.o
 .gnu.attributes
                0x00000420       0x10 build/DM30004-2/production/_ext/1899562614/tcpip_manager.o
 .gnu.attributes
                0x00000430       0x10 build/DM30004-2/production/_ext/1899562614/tcpip_notify.o
 .gnu.attributes
                0x00000440       0x10 build/DM30004-2/production/_ext/1899562614/tcpip_packet.o
 .gnu.attributes
                0x00000450       0x10 build/DM30004-2/production/_ext/1442095083/unabto_aes128_sha256.o
 .gnu.attributes
                0x00000460       0x10 build/DM30004-2/production/_ext/1442095083/unabto_app_adapter.o
 .gnu.attributes
                0x00000470       0x10 build/DM30004-2/production/_ext/1442095083/unabto_attach.o
 .gnu.attributes
                0x00000480       0x10 build/DM30004-2/production/_ext/1442095083/unabto_buffers.o
 .gnu.attributes
                0x00000490       0x10 build/DM30004-2/production/_ext/1442095083/unabto_common_main.o
 .gnu.attributes
                0x000004a0       0x10 build/DM30004-2/production/_ext/1442095083/unabto_connection.o
 .gnu.attributes
                0x000004b0       0x10 build/DM30004-2/production/_ext/1442095083/unabto_context.o
 .gnu.attributes
                0x000004c0       0x10 build/DM30004-2/production/_ext/1442095083/unabto_crypto.o
 .gnu.attributes
                0x000004d0       0x10 build/DM30004-2/production/_ext/1442095083/unabto_debug_packet.o
 .gnu.attributes
                0x000004e0       0x10 build/DM30004-2/production/_ext/1442095083/unabto_extended_rendezvous.o
 .gnu.attributes
                0x000004f0       0x10 build/DM30004-2/production/_ext/1442095083/unabto_memory.o
 .gnu.attributes
                0x00000500       0x10 build/DM30004-2/production/_ext/1442095083/unabto_message.o
 .gnu.attributes
                0x00000510       0x10 build/DM30004-2/production/_ext/1442095083/unabto_next_event.o
 .gnu.attributes
                0x00000520       0x10 build/DM30004-2/production/_ext/1442095083/unabto_packet.o
 .gnu.attributes
                0x00000530       0x10 build/DM30004-2/production/_ext/1442095083/unabto_packet_util.o
 .gnu.attributes
                0x00000540       0x10 build/DM30004-2/production/_ext/1442095083/unabto_prf.o
 .gnu.attributes
                0x00000550       0x10 build/DM30004-2/production/_ext/1442095083/unabto_query_rw.o
 .gnu.attributes
                0x00000560       0x10 build/DM30004-2/production/_ext/1442095083/unabto_stream.o
 .gnu.attributes
                0x00000570       0x10 build/DM30004-2/production/_ext/1442095083/unabto_stream_environment.o
 .gnu.attributes
                0x00000580       0x10 build/DM30004-2/production/_ext/1442095083/unabto_stream_event.o
 .gnu.attributes
                0x00000590       0x10 build/DM30004-2/production/_ext/1442095083/unabto_stream_window.o
 .gnu.attributes
                0x000005a0       0x10 build/DM30004-2/production/_ext/1442095083/unabto_tcp_fallback.o
 .gnu.attributes
                0x000005b0       0x10 build/DM30004-2/production/_ext/2107900007/unabto_harmony_crypto.o
 .gnu.attributes
                0x000005c0       0x10 build/DM30004-2/production/_ext/2107900007/unabto_harmony_dns.o
 .gnu.attributes
                0x000005d0       0x10 build/DM30004-2/production/_ext/2107900007/unabto_harmony_network.o
 .gnu.attributes
                0x000005e0       0x10 build/DM30004-2/production/_ext/2107900007/unabto_harmony_random.o
 .gnu.attributes
                0x000005f0       0x10 build/DM30004-2/production/_ext/2107900007/unabto_harmony_time.o
 .gnu.attributes
                0x00000600       0x10 build/DM30004-2/production/_ext/2107900007/unabto_udp_debug.o
 .gnu.attributes
                0x00000610       0x10 ../../../../../microchip/harmony/v1_11/bin/framework/peripheral/PIC32MX795F512L_peripherals.a(plib_eth_lib.o)
 .gnu.attributes
                0x00000620       0x10 /opt/microchip/xc32/v1.43/bin/bin/../../lib/gcc/pic32mx/4.8.3/libgcc.a(_divdi3.o)
 .gnu.attributes
                0x00000630       0x10 /opt/microchip/xc32/v1.43/bin/bin/../../lib/gcc/pic32mx/4.8.3/libgcc.a(_udivdi3.o)
 .gnu.attributes
                0x00000640       0x10 /opt/microchip/xc32/v1.43/bin/bin/../../lib/gcc/pic32mx/4.8.3/libgcc.a(floatunsisf.o)
 .gnu.attributes
                0x00000650       0x10 /opt/microchip/xc32/v1.43/bin/bin/../../lib/gcc/pic32mx/4.8.3/../../../../pic32mx/lib/libpic32.a(default-bootstrap-exception-handler.o)
 .gnu.attributes
                0x00000660       0x10 /opt/microchip/xc32/v1.43/bin/bin/../../lib/gcc/pic32mx/4.8.3/../../../../pic32mx/lib/libpic32.a(default-on-reset.o)
 .gnu.attributes
                0x00000670       0x10 /opt/microchip/xc32/v1.43/bin/bin/../../lib/gcc/pic32mx/4.8.3/../../../../pic32mx/lib/libpic32.a(default-on-bootstrap.o)
 .gnu.attributes
                0x00000680       0x10 /opt/microchip/xc32/v1.43/bin/bin/../../lib/gcc/pic32mx/4.8.3/../../../../pic32mx/lib/libpic32.a(defaultinterrupt.o)
 .gnu.attributes
                0x00000690       0x10 /opt/microchip/xc32/v1.43/bin/bin/../../lib/gcc/pic32mx/4.8.3/../../../../pic32mx/lib/libc.a(calloc.o)
 .gnu.attributes
                0x000006a0       0x10 /opt/microchip/xc32/v1.43/bin/bin/../../lib/gcc/pic32mx/4.8.3/../../../../pic32mx/lib/libc.a(ctime.o)
 .gnu.attributes
                0x000006b0       0x10 /opt/microchip/xc32/v1.43/bin/bin/../../lib/gcc/pic32mx/4.8.3/../../../../pic32mx/lib/libc.a(ctype.o)
 .gnu.attributes
                0x000006c0       0x10 /opt/microchip/xc32/v1.43/bin/bin/../../lib/gcc/pic32mx/4.8.3/../../../../pic32mx/lib/libc.a(ctypef.o)
 .gnu.attributes
                0x000006d0       0x10 /opt/microchip/xc32/v1.43/bin/bin/../../lib/gcc/pic32mx/4.8.3/../../../../pic32mx/lib/libc.a(malloc.o)
 .gnu.attributes
                0x000006e0       0x10 /opt/microchip/xc32/v1.43/bin/bin/../../lib/gcc/pic32mx/4.8.3/../../../../pic32mx/lib/libc.a(memmove.o)
 .gnu.attributes
                0x000006f0       0x10 /opt/microchip/xc32/v1.43/bin/bin/../../lib/gcc/pic32mx/4.8.3/../../../../pic32mx/lib/libc.a(rand.o)
 .gnu.attributes
                0x00000700       0x10 /opt/microchip/xc32/v1.43/bin/bin/../../lib/gcc/pic32mx/4.8.3/../../../../pic32mx/lib/libc.a(strncmp.o)
 .gnu.attributes
                0x00000710       0x10 /opt/microchip/xc32/v1.43/bin/bin/../../lib/gcc/pic32mx/4.8.3/../../../../pic32mx/lib/libc.a(strncpy.o)
 .gnu.attributes
                0x00000720       0x10 /opt/microchip/xc32/v1.43/bin/bin/../../lib/gcc/pic32mx/4.8.3/../../../../pic32mx/lib/libc.a(strtol.o)
 .gnu.attributes
                0x00000730       0x10 /opt/microchip/xc32/v1.43/bin/bin/../../lib/gcc/pic32mx/4.8.3/../../../../pic32mx/lib/libc.a(time.o)
 .gnu.attributes
                0x00000740       0x10 /opt/microchip/xc32/v1.43/bin/bin/../../lib/gcc/pic32mx/4.8.3/../../../../pic32mx/lib/libc.a(exit.o)
 .gnu.attributes
                0x00000750       0x10 /opt/microchip/xc32/v1.43/bin/bin/../../lib/gcc/pic32mx/4.8.3/../../../../pic32mx/lib/libc.a(stdclean_simple.o)
 .gnu.attributes
                0x00000760       0x10 /opt/microchip/xc32/v1.43/bin/bin/../../lib/gcc/pic32mx/4.8.3/../../../../pic32mx/lib/libc.a(sprintf_cdnopsuxX.eo)
 .gnu.attributes
                0x00000770       0x10 /opt/microchip/xc32/v1.43/bin/bin/../../lib/gcc/pic32mx/4.8.3/../../../../pic32mx/lib/libc.a(vsnprintf.o)
 .gnu.attributes
                0x00000780       0x10 /opt/microchip/xc32/v1.43/bin/bin/../../lib/gcc/pic32mx/4.8.3/../../../../pic32mx/lib/libc.a(errno.o)
 .gnu.attributes
                0x00000790       0x10 /opt/microchip/xc32/v1.43/bin/bin/../../lib/gcc/pic32mx/4.8.3/../../../../pic32mx/lib/libc.a(doprnt_cdnopsuxX.eo)
 .gnu.attributes
                0x000007a0       0x10 /opt/microchip/xc32/v1.43/bin/bin/../../lib/gcc/pic32mx/4.8.3/../../../../pic32mx/lib/libc.a(doprnt.o)
 .gnu.attributes
                0x000007b0       0x10 /opt/microchip/xc32/v1.43/bin/bin/../../lib/gcc/pic32mx/4.8.3/../../../../pic32mx/lib/libc.a(_fputc_simple.o)
 .gnu.attributes
                0x000007c0       0x10 /opt/microchip/xc32/v1.43/bin/bin/../../lib/gcc/pic32mx/4.8.3/../../../../pic32mx/lib/libc.a(ldpowers.o)
 .gnu.attributes
                0x000007d0       0x10 /opt/microchip/xc32/v1.43/bin/bin/../../lib/gcc/pic32mx/4.8.3/../../../../pic32mx/lib/libc.a(_iob.o)
 .gnu.attributes
                0x000007e0       0x10 /opt/microchip/xc32/v1.43/bin/bin/../../lib/gcc/pic32mx/4.8.3/../../../../pic32mx/lib/libc.a(_flsbuf_simple.o)
 .gnu.attributes
                0x000007f0       0x10 /opt/microchip/xc32/v1.43/bin/bin/../../lib/gcc/pic32mx/4.8.3/../../../../pic32mx/lib/libe.a(_fixunsdfdi.o)
 .gnu.attributes
                0x00000800       0x10 /opt/microchip/xc32/v1.43/bin/bin/../../lib/gcc/pic32mx/4.8.3/../../../../pic32mx/lib/libe.a(_orderdf2.o)
 .gnu.attributes
                0x00000810       0x10 /opt/microchip/xc32/v1.43/bin/bin/../../lib/gcc/pic32mx/4.8.3/../../../../pic32mx/lib/libe.a(_fixdfdi.o)
 .gnu.attributes
                0x00000820       0x10 /opt/microchip/xc32/v1.43/bin/bin/../../lib/gcc/pic32mx/4.8.3/libgcc.a(_umoddi3.o)
 .gnu.attributes
                0x00000830       0x10 /opt/microchip/xc32/v1.43/bin/bin/../../lib/gcc/pic32mx/4.8.3/libgcc.a(floatunsidf.o)
 .gnu.attributes
                0x00000840       0x10 /opt/microchip/xc32/v1.43/bin/bin/../../lib/gcc/pic32mx/4.8.3/../../../../pic32mx/lib/libpic32.a(sbrk.o)
 .gnu.attributes
                0x00000850       0x10 /opt/microchip/xc32/v1.43/bin/bin/../../lib/gcc/pic32mx/4.8.3/../../../../pic32mx/lib/libpic32.a(write.o)
 .gnu.attributes
                0x00000860       0x10 /opt/microchip/xc32/v1.43/bin/bin/../../lib/gcc/pic32mx/4.8.3/../../../../pic32mx/lib/libpic32.a(_mon_putc.o)
 .gnu.attributes
                0x00000870       0x10 /opt/microchip/xc32/v1.43/bin/bin/../../lib/gcc/pic32mx/4.8.3/../../../../pic32mx/lib/libpic32.a(xc32_uart.o)
LOAD /opt/microchip/xc32/v1.43/bin/bin/../../lib/gcc/pic32mx/4.8.3/libgcc.a
START GROUP
LOAD /opt/microchip/xc32/v1.43/bin/bin/../../lib/gcc/pic32mx/4.8.3/../../../../pic32mx/lib/libpic32.a
LOAD /opt/microchip/xc32/v1.43/bin/bin/../../lib/gcc/pic32mx/4.8.3/../../../../pic32mx/lib/libdebug.a
LOAD /opt/microchip/xc32/v1.43/bin/bin/../../lib/gcc/pic32mx/4.8.3/../../../../pic32mx/lib/libpic32.a
LOAD /opt/microchip/xc32/v1.43/bin/bin/../../lib/gcc/pic32mx/4.8.3/../../../../pic32mx/lib/libc.a
LOAD /opt/microchip/xc32/v1.43/bin/bin/../../lib/gcc/pic32mx/4.8.3/../../../../pic32mx/lib/libc.a
LOAD /opt/microchip/xc32/v1.43/bin/bin/../../lib/gcc/pic32mx/4.8.3/../../../../pic32mx/lib/libm.a
LOAD /opt/microchip/xc32/v1.43/bin/bin/../../lib/gcc/pic32mx/4.8.3/../../../../pic32mx/lib/libe.a
LOAD /opt/microchip/xc32/v1.43/bin/bin/../../lib/gcc/pic32mx/4.8.3/../../../../pic32mx/lib/libdsp.a
LOAD /opt/microchip/xc32/v1.43/bin/bin/../../lib/gcc/pic32mx/4.8.3/libgcc.a
LOAD /opt/microchip/xc32/v1.43/bin/bin/../../lib/gcc/pic32mx/4.8.3/../../../../pic32mx/lib/libpic32.a
END GROUP
LOAD /opt/microchip/xc32/v1.43/bin/bin/../../lib/gcc/pic32mx/4.8.3/libgcc.a
OUTPUT(dist/DM30004-2/production/demo.X.production.elf elf32-tradlittlemips)
LOAD stack
LOAD data_init

.reginfo        0x00000000       0x18
 .reginfo       0x00000000       0x18 /opt/microchip/xc32/v1.43/bin/bin/../../lib/gcc/pic32mx/4.8.3/../../../../pic32mx/lib/./proc/32MX795F512L/crt0_mips32r2.o

.stack          0xa0019af8      0x400
 .stack         0xa0019af8      0x400 stack

.bss            0xa000dc88      0xb18
 .bss           0xa000dc88      0x800 build/DM30004-2/production/_ext/2107900007/unabto_harmony_crypto.o
 .bss           0xa000e488      0x318 build/DM30004-2/production/_ext/1899562614/tcpip_manager.o

.data           0xa000e7a0      0x10c
 .data          0xa000e7a0      0x10c build/DM30004-2/production/_ext/854379441/drv_ethmac.o

.bss            0xa000e8ac       0xd4
 .bss           0xa000e8ac       0x90 build/DM30004-2/production/_ext/62100799/sys_tmr.o
 .bss           0xa000e93c       0x44 build/DM30004-2/production/_ext/1899562614/arp.o

.bss            0xa000e980       0x80
 .bss           0xa000e980       0x44 /opt/microchip/xc32/v1.43/bin/bin/../../lib/gcc/pic32mx/4.8.3/../../../../pic32mx/lib/libc.a(_iob.o)
                0xa000e980                _sobuf
                0xa000e9a0                _sibuf
                0xa000e9c0                _outdone
 .bss           0xa000e9c4       0x3c build/DM30004-2/production/_ext/2027566358/drv_tmr.o

.bss            0xa000ea00       0x64
 .bss           0xa000ea00       0x3c build/DM30004-2/production/_ext/1442095083/unabto_packet.o
 .bss           0xa000ea3c       0x28 build/DM30004-2/production/_ext/1899562614/dns.o

.bss            0xa000ea64       0x44
 .bss           0xa000ea64       0x24 /opt/microchip/xc32/v1.43/bin/bin/../../lib/gcc/pic32mx/4.8.3/../../../../pic32mx/lib/libpic32.a(sbrk.o)
                0xa000ea80                _maxbrk
                0xa000ea84                _minbrk
 .bss           0xa000ea88       0x20 build/DM30004-2/production/_ext/1899562614/ipv4.o

.bss            0xa000eaa8       0x20
 .bss           0xa000eaa8       0x20 /opt/microchip/xc32/v1.43/bin/bin/../../lib/gcc/pic32mx/4.8.3/../../../../pic32mx/lib/libc.a(malloc.o)
                0xa000eaa8                __allocx
                0xa000eab0                __alloct
                0xa000eab4                __allocp
                0xa000eab8                __allocs

.data           0xa000eac8       0x1c
 .data          0xa000eac8       0x1c build/DM30004-2/production/_ext/1280997252/system_init.o
                0xa000eac8                tcpipHeapConfig

.bss            0xa000eae4       0x30
 .bss           0xa000eae4       0x18 build/DM30004-2/production/_ext/1310142747/sys_random.o
 .bss           0xa000eafc       0x18 build/DM30004-2/production/_ext/2107900007/unabto_udp_debug.o

.bss            0xa000eb14       0x10
 .bss           0xa000eb14       0x10 build/DM30004-2/production/_ext/1899562614/dhcp.o

.bss            0xa000eb28       0x10
 .bss           0xa000eb28       0x10 /opt/microchip/xc32/v1.43/bin/bin/../../lib/gcc/pic32mx/4.8.3/../../../../pic32mx/lib/libc.a(rand.o)

.bss.errno      0xa000eb24        0x4
 .bss.errno     0xa000eb24        0x4 /opt/microchip/xc32/v1.43/bin/bin/../../lib/gcc/pic32mx/4.8.3/../../../../pic32mx/lib/libc.a(errno.o)
                0xa000eb24                errno

._debug_exception
                0xbfc00480       0x2c
 ._debug_exception
                0xbfc00480       0x2c /opt/microchip/xc32/v1.43/bin/bin/../../lib/gcc/pic32mx/4.8.3/../../../../pic32mx/lib/debug-exception-return.o
                0xbfc00480                __DbgExecReturn

.rodata         0x9d000000     0x2828
 .rodata        0x9d000000     0x2828 build/DM30004-2/production/_ext/458569783/aes.o

.text.vfprintf  0x9d002828     0x1c64
 .text.vfprintf
                0x9d002828     0x1c64 /opt/microchip/xc32/v1.43/bin/bin/../../lib/gcc/pic32mx/4.8.3/../../../../pic32mx/lib/libc.a(doprnt.o)
                0x9d002828                vfprintf

.text.Transform
                0x9d00448c     0x1018
 .text.Transform
                0x9d00448c     0x1018 build/DM30004-2/production/_ext/458569783/sha.o

.text._vfprintf_cdnopsuxX
                0x9d0054a4      0xc8c
 .text._vfprintf_cdnopsuxX
                0x9d0054a4      0xc8c /opt/microchip/xc32/v1.43/bin/bin/../../lib/gcc/pic32mx/4.8.3/../../../../pic32mx/lib/libc.a(doprnt_cdnopsuxX.eo)
                0x9d0054a4                _vfprintf_cdnopuxX
                0x9d0054a4                _vfprintf_cdnopsuxX

.rodata         0x9d006130     0x1684
 .rodata        0x9d006130      0xbd4 build/DM30004-2/production/_ext/1442095083/unabto_stream_window.o
 .rodata        0x9d006d04      0xab0 build/DM30004-2/production/_ext/1442095083/unabto_connection.o

.text.Transform
                0x9d0077b4      0xa88
 .text.Transform
                0x9d0077b4      0xa88 build/DM30004-2/production/_ext/458569783/md5.o

.text.nabto_stream_tcb_event
                0x9d00823c      0x9a8
 .text.nabto_stream_tcb_event
                0x9d00823c      0x9a8 build/DM30004-2/production/_ext/1442095083/unabto_stream_window.o
                0x9d00823c                nabto_stream_tcb_event

.rodata         0x9d008be4      0x944
 .rodata        0x9d008be4      0x944 build/DM30004-2/production/_ext/1442095083/unabto_attach.o

.text.TCPIP_DHCP_Task
                0x9d009528      0x874
 .text.TCPIP_DHCP_Task
                0x9d009528      0x874 build/DM30004-2/production/_ext/1899562614/dhcp.o
                0x9d009528                TCPIP_DHCP_Task

.text.TCPIP_STACK_Task
                0x9d009d9c      0x864
 .text.TCPIP_STACK_Task
                0x9d009d9c      0x864 build/DM30004-2/production/_ext/1899562614/tcpip_manager.o
                0x9d009d9c                TCPIP_STACK_Task

.text.nabto_attach_event
                0x9d00a600      0x7d4
 .text.nabto_attach_event
                0x9d00a600      0x7d4 build/DM30004-2/production/_ext/1442095083/unabto_attach.o
                0x9d00a600                nabto_attach_event

.text.wc_AesSetKeyLocal
                0x9d00add4      0x724
 .text.wc_AesSetKeyLocal
                0x9d00add4      0x724 build/DM30004-2/production/_ext/458569783/aes.o

.text.nabto_stream_tcb_check_xmit
                0x9d00b4f8      0x724
 .text.nabto_stream_tcb_check_xmit
                0x9d00b4f8      0x724 build/DM30004-2/production/_ext/1442095083/unabto_stream_window.o
                0x9d00b4f8                nabto_stream_tcb_check_xmit

.text.nabto_init_connection
                0x9d00bc1c      0x6bc
 .text.nabto_init_connection
                0x9d00bc1c      0x6bc build/DM30004-2/production/_ext/1442095083/unabto_connection.o
                0x9d00bc1c                nabto_init_connection

.text.wc_AesEncrypt
                0x9d00c2d8      0x688
 .text.wc_AesEncrypt
                0x9d00c2d8      0x688 build/DM30004-2/production/_ext/458569783/aes.o

.text.wc_AesDecrypt
                0x9d00c960      0x688
 .text.wc_AesDecrypt
                0x9d00c960      0x688 build/DM30004-2/production/_ext/458569783/aes.o

.text.DRV_ETHMAC_PIC32MACInitialize
                0x9d00cfe8      0x4f4
 .text.DRV_ETHMAC_PIC32MACInitialize
                0x9d00cfe8      0x4f4 build/DM30004-2/production/_ext/854379441/drv_ethmac.o
                0x9d00cfe8                DRV_ETHMAC_PIC32MACInitialize

.text.dp32mul   0x9d00d4dc      0x4b8
 .text.dp32mul  0x9d00d4dc      0x4b8 /opt/microchip/xc32/v1.43/bin/bin/../../lib/gcc/pic32mx/4.8.3/../../../../pic32mx/lib/libm.a(dp32div.o)
                0x9d00d4dc                __divdf3
                0x9d00d4dc                dpdiv

.text           0x9d00d994      0x4b4
 .text          0x9d00d994      0x4b4 /opt/microchip/xc32/v1.43/bin/bin/../../lib/gcc/pic32mx/4.8.3/libgcc.a(_divdi3.o)
                0x9d00d994                __divdi3

.text.Transform
                0x9d00de48      0x470
 .text.Transform
                0x9d00de48      0x470 build/DM30004-2/production/_ext/458569783/sha256.o

.text.TCPIP_ARP_Task
                0x9d00e2b8      0x468
 .text.TCPIP_ARP_Task
                0x9d00e2b8      0x468 build/DM30004-2/production/_ext/1899562614/arp.o
                0x9d00e2b8                TCPIP_ARP_Task

.text           0x9d00e720      0x8bc
 .text          0x9d00e720      0x464 /opt/microchip/xc32/v1.43/bin/bin/../../lib/gcc/pic32mx/4.8.3/libgcc.a(_umoddi3.o)
                0x9d00e720                __umoddi3
 .text          0x9d00eb84      0x458 /opt/microchip/xc32/v1.43/bin/bin/../../lib/gcc/pic32mx/4.8.3/libgcc.a(_udivdi3.o)
                0x9d00eb84                __udivdi3

.rodata         0x9d00efdc      0x454
 .rodata        0x9d00efdc      0x454 build/DM30004-2/production/_ext/1442095083/unabto_packet.o

.text.nabto_stream_event
                0x9d00f430      0x444
 .text.nabto_stream_event
                0x9d00f430      0x444 build/DM30004-2/production/_ext/1442095083/unabto_stream_event.o
                0x9d00f430                nabto_stream_event

.text.dp32subadd
                0x9d00f874      0x430
 .text.dp32subadd
                0x9d00f874      0x430 /opt/microchip/xc32/v1.43/bin/bin/../../lib/gcc/pic32mx/4.8.3/../../../../pic32mx/lib/libm.a(dp32subadd.o)
                0x9d00f874                dpsub
                0x9d00f874                __subdf3
                0x9d00f87c                dpadd
                0x9d00f87c                __adddf3

.text.Hash_DRBG_Generate
                0x9d00fca4      0x42c
 .text.Hash_DRBG_Generate
                0x9d00fca4      0x42c build/DM30004-2/production/_ext/458569783/random.o

.text.nabto_message_local_event
                0x9d0100d0      0x420
 .text.nabto_message_local_event
                0x9d0100d0      0x420 build/DM30004-2/production/_ext/1442095083/unabto_message.o
                0x9d0100d0                nabto_message_local_event

.text.handle_data
                0x9d0104f0      0x41c
 .text.handle_data
                0x9d0104f0      0x41c build/DM30004-2/production/_ext/1442095083/unabto_stream_window.o

.text.handle_naf_packet
                0x9d01090c      0x400
 .text.handle_naf_packet
                0x9d01090c      0x400 build/DM30004-2/production/_ext/1442095083/unabto_packet.o
                0x9d01090c                handle_naf_packet

.text.TCPIP_Helper_StringToIPv6Address
                0x9d010d0c      0x3e8
 .text.TCPIP_Helper_StringToIPv6Address
                0x9d010d0c      0x3e8 build/DM30004-2/production/_ext/1899562614/tcpip_helpers.o
                0x9d010d0c                TCPIP_Helper_StringToIPv6Address

.rodata         0x9d0110f4      0x3d8
 .rodata        0x9d0110f4      0x3d8 build/DM30004-2/production/_ext/458569783/asn.o

.dinit          0x9d0114cc      0x3d0
 .dinit         0x9d0114cc      0x3d0 data_init

.text._DNS_Send_Query
                0x9d01189c      0x3c0
 .text._DNS_Send_Query
                0x9d01189c      0x3c0 build/DM30004-2/production/_ext/1899562614/dns.o

.text.TCPIP_DNS_ClientInitialize
                0x9d011c5c      0x37c
 .text.TCPIP_DNS_ClientInitialize
                0x9d011c5c      0x37c build/DM30004-2/production/_ext/1899562614/dns.o
                0x9d011c5c                TCPIP_DNS_ClientInitialize

.text.TCPIP_ARP_Initialize
                0x9d011fd8      0x36c
 .text.TCPIP_ARP_Initialize
                0x9d011fd8      0x36c build/DM30004-2/production/_ext/1899562614/arp.o
                0x9d011fd8                TCPIP_ARP_Initialize

.text.TCPIP_STACK_Initialize
                0x9d012344      0x348
 .text.TCPIP_STACK_Initialize
                0x9d012344      0x348 build/DM30004-2/production/_ext/1899562614/tcpip_manager.o
                0x9d012344                TCPIP_STACK_Initialize

.text.nabto_connect_event
                0x9d01268c      0x338
 .text.nabto_connect_event
                0x9d01268c      0x338 build/DM30004-2/production/_ext/1442095083/unabto_connection.o
                0x9d01268c                nabto_connect_event

.text.dp32mul   0x9d0129c4      0x32c
 .text.dp32mul  0x9d0129c4      0x32c /opt/microchip/xc32/v1.43/bin/bin/../../lib/gcc/pic32mx/4.8.3/../../../../pic32mx/lib/libm.a(dp32mul.o)
                0x9d0129c4                dpmul
                0x9d0129c4                __muldf3

.text.unabto_stream_insert_stream_stats
                0x9d012cf0      0x30c
 .text.unabto_stream_insert_stream_stats
                0x9d012cf0      0x30c build/DM30004-2/production/_ext/1442095083/unabto_stream_event.o
                0x9d012cf0                unabto_stream_insert_stream_stats

.text.SYS_TMR_Tasks
                0x9d012ffc      0x300
 .text.SYS_TMR_Tasks
                0x9d012ffc      0x300 build/DM30004-2/production/_ext/62100799/sys_tmr.o
                0x9d012ffc                SYS_TMR_Tasks

.text.TCPIP_UDP_Task
                0x9d0132fc      0x2f8
 .text.TCPIP_UDP_Task
                0x9d0132fc      0x2f8 build/DM30004-2/production/_ext/1899562614/udp.o
                0x9d0132fc                TCPIP_UDP_Task

.text.TCPIP_STACK_BringNetUp
                0x9d0135f4      0x2f8
 .text.TCPIP_STACK_BringNetUp
                0x9d0135f4      0x2f8 build/DM30004-2/production/_ext/1899562614/tcpip_manager.o

.text._DHCPSend
                0x9d0138ec      0x2ec
 .text._DHCPSend
                0x9d0138ec      0x2ec build/DM30004-2/production/_ext/1899562614/dhcp.o

.text.mk_invite
                0x9d013bd8      0x2ec
 .text.mk_invite
                0x9d013bd8      0x2ec build/DM30004-2/production/_ext/1442095083/unabto_attach.o

.text.TCPIP_IPV4_PacketTransmit
                0x9d013ec4      0x2dc
 .text.TCPIP_IPV4_PacketTransmit
                0x9d013ec4      0x2dc build/DM30004-2/production/_ext/1899562614/ipv4.o
                0x9d013ec4                TCPIP_IPV4_PacketTransmit

.text._DNS_ProcessPacket
                0x9d0141a0      0x2cc
 .text._DNS_ProcessPacket
                0x9d0141a0      0x2cc build/DM30004-2/production/_ext/1899562614/dns.o

.text.unabto_stream_event
                0x9d01446c      0x2ac
 .text.unabto_stream_event
                0x9d01446c      0x2ac build/DM30004-2/production/_ext/1360937237/stream_echo.o
                0x9d01446c                unabto_stream_event

.text.TCPIP_UDP_Flush
                0x9d014718      0x2a8
 .text.TCPIP_UDP_Flush
                0x9d014718      0x2a8 build/DM30004-2/production/_ext/1899562614/udp.o
                0x9d014718                TCPIP_UDP_Flush

.text.build_and_send_packet
                0x9d0149c0      0x2a8
 .text.build_and_send_packet
                0x9d0149c0      0x2a8 build/DM30004-2/production/_ext/1442095083/unabto_stream_environment.o
                0x9d0149c0                build_and_send_packet

.text.wc_Sha256Final
                0x9d014c68      0x290
 .text.wc_Sha256Final
                0x9d014c68      0x290 build/DM30004-2/production/_ext/458569783/sha256.o
                0x9d014c68                wc_Sha256Final

.text.malloc    0x9d014ef8      0x28c
 .text.malloc   0x9d014ef8      0x28c /opt/microchip/xc32/v1.43/bin/bin/../../lib/gcc/pic32mx/4.8.3/../../../../pic32mx/lib/libc.a(malloc.o)
                0x9d014ef8                malloc

.text.send_rendezvous_socket
                0x9d015184      0x288
 .text.send_rendezvous_socket
                0x9d015184      0x288 build/DM30004-2/production/_ext/1442095083/unabto_connection.o

.text.fpsubadd  0x9d01540c      0x278
 .text.fpsubadd
                0x9d01540c      0x278 /opt/microchip/xc32/v1.43/bin/bin/../../lib/gcc/pic32mx/4.8.3/../../../../pic32mx/lib/libm.a(fp32subadd.o)
                0x9d01540c                fpsub
                0x9d01540c                __subsf3
                0x9d015414                fpadd
                0x9d015414                __addsf3

.rodata         0x9d015684      0x270
 .rodata        0x9d015684      0x270 build/DM30004-2/production/_ext/1442095083/unabto_message.o

.text.connect_event
                0x9d0158f4      0x26c
 .text.connect_event
                0x9d0158f4      0x26c build/DM30004-2/production/_ext/1442095083/unabto_connection.o

.text.nabto_stream_tcb_write
                0x9d015b60      0x260
 .text.nabto_stream_tcb_write
                0x9d015b60      0x260 build/DM30004-2/production/_ext/1442095083/unabto_stream_window.o
                0x9d015b60                nabto_stream_tcb_write

.text           0x9d015dc0      0x25c
 .text          0x9d015dc0      0x25c build/DM30004-2/production/_ext/1899562614/tcpip_helper_c32.o
                0x9d015dc0                TCPIP_Helper_htonl
                0x9d015dcc                TCPIP_Helper_htons
                0x9d015dd8                TCPIP_Helper_htonll
                0x9d015dec                TCPIP_Helper_CalcIPChecksum

.text.handle_ack
                0x9d01601c      0x25c
 .text.handle_ack
                0x9d01601c      0x25c build/DM30004-2/production/_ext/1442095083/unabto_stream_window.o
                0x9d01601c                handle_ack

.text.TCPIP_IPV4_Task
                0x9d016278      0x258
 .text.TCPIP_IPV4_Task
                0x9d016278      0x258 build/DM30004-2/production/_ext/1899562614/ipv4.o
                0x9d016278                TCPIP_IPV4_Task

.text._DHCPReceive
                0x9d0164d0      0x254
 .text._DHCPReceive
                0x9d0164d0      0x254 build/DM30004-2/production/_ext/1899562614/dhcp.o

.text.nabto_message_event
                0x9d016724      0x254
 .text.nabto_message_event
                0x9d016724      0x254 build/DM30004-2/production/_ext/1442095083/unabto_message.o
                0x9d016724                nabto_message_event

.text.nabto_packet_event
                0x9d016978      0x254
 .text.nabto_packet_event
                0x9d016978      0x254 build/DM30004-2/production/_ext/1442095083/unabto_packet.o
                0x9d016978                nabto_packet_event

.text.wc_ShaFinal
                0x9d016bcc      0x24c
 .text.wc_ShaFinal
                0x9d016bcc      0x24c build/DM30004-2/production/_ext/458569783/sha.o
                0x9d016bcc                wc_ShaFinal

.text.Hash_df   0x9d016e18      0x244
 .text.Hash_df  0x9d016e18      0x244 build/DM30004-2/production/_ext/458569783/random.o

.text.DRV_ETHMAC_PIC32MACPacketRx
                0x9d01705c      0x244
 .text.DRV_ETHMAC_PIC32MACPacketRx
                0x9d01705c      0x244 build/DM30004-2/production/_ext/854379441/drv_ethmac.o
                0x9d01705c                DRV_ETHMAC_PIC32MACPacketRx

.text._DHCPOptionHostName
                0x9d0172a0      0x244
 .text._DHCPOptionHostName
                0x9d0172a0      0x244 build/DM30004-2/production/_ext/1899562614/dhcp.o

.text.DRV_ETHMAC_LibRxBuffersAppend
                0x9d0174e4      0x240
 .text.DRV_ETHMAC_LibRxBuffersAppend
                0x9d0174e4      0x240 build/DM30004-2/production/_ext/854379441/drv_ethmac_lib.o
                0x9d0174e4                DRV_ETHMAC_LibRxBuffersAppend

.text.scale     0x9d017724      0x23c
 .text.scale    0x9d017724      0x23c /opt/microchip/xc32/v1.43/bin/bin/../../lib/gcc/pic32mx/4.8.3/../../../../pic32mx/lib/libc.a(doprnt.o)

.rodata         0x9d017960      0x234
 .rodata        0x9d017960      0x234 build/DM30004-2/production/_ext/1442095083/unabto_crypto.o

.text._DRV_TMR_ClockSourceSet
                0x9d017b94      0x230
 .text._DRV_TMR_ClockSourceSet
                0x9d017b94      0x230 build/DM30004-2/production/_ext/2027566358/drv_tmr.o

.text.fp32div   0x9d017dc4      0x230
 .text.fp32div  0x9d017dc4      0x230 /opt/microchip/xc32/v1.43/bin/bin/../../lib/gcc/pic32mx/4.8.3/../../../../pic32mx/lib/libm.a(fp32div.o)
                0x9d017dc4                __divsf3
                0x9d017dc4                fpdiv

.text._UDPOpen  0x9d017ff4      0x224
 .text._UDPOpen
                0x9d017ff4      0x224 build/DM30004-2/production/_ext/1899562614/udp.o

.text.TCPIP_UDP_Bind
                0x9d018218      0x224
 .text.TCPIP_UDP_Bind
                0x9d018218      0x224 build/DM30004-2/production/_ext/1899562614/udp.o
                0x9d018218                TCPIP_UDP_Bind

.text._TCPIP_HEAP_Free
                0x9d01843c      0x210
 .text._TCPIP_HEAP_Free
                0x9d01843c      0x210 build/DM30004-2/production/_ext/1899562614/tcpip_heap_internal.o

.text.unabto_init
                0x9d01864c      0x210
 .text.unabto_init
                0x9d01864c      0x210 build/DM30004-2/production/_ext/1442095083/unabto_common_main.o
                0x9d01864c                unabto_init

.text.wc_HmacSetKey
                0x9d01885c      0x208
 .text.wc_HmacSetKey
                0x9d01885c      0x208 build/DM30004-2/production/_ext/458569783/hmac.o
                0x9d01885c                wc_HmacSetKey

.text.DRV_TMR_Initialize
                0x9d018a64      0x204
 .text.DRV_TMR_Initialize
                0x9d018a64      0x204 build/DM30004-2/production/_ext/2027566358/drv_tmr.o
                0x9d018a64                DRV_TMR_Initialize

.text.handle_as_wait_dns
                0x9d018c68      0x204
 .text.handle_as_wait_dns
                0x9d018c68      0x204 build/DM30004-2/production/_ext/1442095083/unabto_attach.o
                0x9d018c68                handle_as_wait_dns

.text.nabto_stream_read_window
                0x9d018e6c      0x1f8
 .text.nabto_stream_read_window
                0x9d018e6c      0x1f8 build/DM30004-2/production/_ext/1442095083/unabto_stream_window.o
                0x9d018e6c                nabto_stream_read_window

.text._DRV_ETHPHY_SetupPhaseDetect
                0x9d019064      0x1f4
 .text._DRV_ETHPHY_SetupPhaseDetect
                0x9d019064      0x1f4 build/DM30004-2/production/_ext/2030533247/drv_ethphy.o

.text._DRV_PHY_SMITransferDo
                0x9d019258      0x1e8
 .text._DRV_PHY_SMITransferDo
                0x9d019258      0x1e8 build/DM30004-2/production/_ext/2030533247/drv_ethphy.o

.text.DRV_TMR_AlarmRegister
                0x9d019440      0x1e8
 .text.DRV_TMR_AlarmRegister
                0x9d019440      0x1e8 build/DM30004-2/production/_ext/2027566358/drv_tmr.o
                0x9d019440                DRV_TMR_AlarmRegister

.text._LoadNetworkConfig
                0x9d019628      0x1e8
 .text._LoadNetworkConfig
                0x9d019628      0x1e8 build/DM30004-2/production/_ext/1899562614/tcpip_manager.o

.rodata         0x9d019810      0x3d0
 .rodata        0x9d019810      0x1e8 build/DM30004-2/production/_ext/1442095083/unabto_common_main.o
 .rodata        0x9d0199f8      0x1e8 build/DM30004-2/production/_ext/1442095083/unabto_stream_event.o

.text.handle_as_wait_gsp
                0x9d019be0      0x1e4
 .text.handle_as_wait_gsp
                0x9d019be0      0x1e4 build/DM30004-2/production/_ext/1442095083/unabto_attach.o
                0x9d019be0                handle_as_wait_gsp

.text._DNS_IsNameResolved
                0x9d019dc4      0x1dc
 .text._DNS_IsNameResolved
                0x9d019dc4      0x1dc build/DM30004-2/production/_ext/1899562614/dns.o

.text.framework_event
                0x9d019fa0      0x1dc
 .text.framework_event
                0x9d019fa0      0x1dc build/DM30004-2/production/_ext/1442095083/unabto_app_adapter.o
                0x9d019fa0                framework_event

.text.nabto_stream_check_new_data_xmit
                0x9d01a17c      0x1dc
 .text.nabto_stream_check_new_data_xmit
                0x9d01a17c      0x1dc build/DM30004-2/production/_ext/1442095083/unabto_stream_window.o

.text._DNS_RESPONSE_HashEntryUpdate
                0x9d01a358      0x1d8
 .text._DNS_RESPONSE_HashEntryUpdate
                0x9d01a358      0x1d8 build/DM30004-2/production/_ext/1899562614/dns.o

.text.DRV_ETHMAC_PIC32MACPacketTx
                0x9d01a530      0x1d4
 .text.DRV_ETHMAC_PIC32MACPacketTx
                0x9d01a530      0x1d4 build/DM30004-2/production/_ext/854379441/drv_ethmac.o
                0x9d01a530                DRV_ETHMAC_PIC32MACPacketTx

.text.strtoul   0x9d01a704      0x1d4
 .text.strtoul  0x9d01a704      0x1d4 /opt/microchip/xc32/v1.43/bin/bin/../../lib/gcc/pic32mx/4.8.3/../../../../pic32mx/lib/libc.a(strtol.o)
                0x9d01a704                strtoul

.text.handle_as_idle
                0x9d01a8d8      0x1d0
 .text.handle_as_idle
                0x9d01a8d8      0x1d0 build/DM30004-2/production/_ext/1442095083/unabto_attach.o
                0x9d01a8d8                handle_as_idle

.text.TCPIP_Helper_StringToIPAddress
                0x9d01aaa8      0x1cc
 .text.TCPIP_Helper_StringToIPAddress
                0x9d01aaa8      0x1cc build/DM30004-2/production/_ext/1899562614/tcpip_helpers.o
                0x9d01aaa8                TCPIP_Helper_StringToIPAddress

.text.fround    0x9d01ac74      0x1cc
 .text.fround   0x9d01ac74      0x1cc /opt/microchip/xc32/v1.43/bin/bin/../../lib/gcc/pic32mx/4.8.3/../../../../pic32mx/lib/libc.a(doprnt.o)

.text.TCPIP_ARP_EntryRemoveNet
                0x9d01ae40      0x1c8
 .text.TCPIP_ARP_EntryRemoveNet
                0x9d01ae40      0x1c8 build/DM30004-2/production/_ext/1899562614/arp.o
                0x9d01ae40                TCPIP_ARP_EntryRemoveNet

.text.unabto_encrypt
                0x9d01b008      0x1c0
 .text.unabto_encrypt
                0x9d01b008      0x1c0 build/DM30004-2/production/_ext/1442095083/unabto_crypto.o
                0x9d01b008                unabto_encrypt

.text._EthAckPacket
                0x9d01b1c8      0x1bc
 .text._EthAckPacket
                0x9d01b1c8      0x1bc build/DM30004-2/production/_ext/854379441/drv_ethmac_lib.o

.text.handle_ok_invite_event
                0x9d01b384      0x1bc
 .text.handle_ok_invite_event
                0x9d01b384      0x1bc build/DM30004-2/production/_ext/1442095083/unabto_attach.o
                0x9d01b384                handle_ok_invite_event

.text.fp32mul   0x9d01b540      0x1bc
 .text.fp32mul  0x9d01b540      0x1bc /opt/microchip/xc32/v1.43/bin/bin/../../lib/gcc/pic32mx/4.8.3/../../../../pic32mx/lib/libm.a(fp32mul.o)
                0x9d01b540                fpmul
                0x9d01b540                __mulsf3

.text.TCPIP_DNS_ClientTask
                0x9d01b6fc      0x1b4
 .text.TCPIP_DNS_ClientTask
                0x9d01b6fc      0x1b4 build/DM30004-2/production/_ext/1899562614/dns.o
                0x9d01b6fc                TCPIP_DNS_ClientTask

.text.nabto_stream_state_transition
                0x9d01b8b0      0x1b4
 .text.nabto_stream_state_transition
                0x9d01b8b0      0x1b4 build/DM30004-2/production/_ext/1442095083/unabto_stream_window.o

.text.unabto_stream_update_congestion_control_receive_stats
                0x9d01ba64      0x1b4
 .text.unabto_stream_update_congestion_control_receive_stats
                0x9d01ba64      0x1b4 build/DM30004-2/production/_ext/1442095083/unabto_stream_window.o
                0x9d01ba64                unabto_stream_update_congestion_control_receive_stats

.text.unabto_hmac_sha256_buffers
                0x9d01bc18      0x1b4
 .text.unabto_hmac_sha256_buffers
                0x9d01bc18      0x1b4 build/DM30004-2/production/_ext/2107900007/unabto_harmony_crypto.o
                0x9d01bc18                unabto_hmac_sha256_buffers

.text.wc_RNG_GenerateBlock
                0x9d01bdcc      0x1b0
 .text.wc_RNG_GenerateBlock
                0x9d01bdcc      0x1b0 build/DM30004-2/production/_ext/458569783/random.o
                0x9d01bdcc                wc_RNG_GenerateBlock

.text._DNS_Resolve
                0x9d01bf7c      0x1b0
 .text._DNS_Resolve
                0x9d01bf7c      0x1b0 build/DM30004-2/production/_ext/1899562614/dns.o

.text.TCPIP_UDP_ArrayGet
                0x9d01c12c      0x1ac
 .text.TCPIP_UDP_ArrayGet
                0x9d01c12c      0x1ac build/DM30004-2/production/_ext/1899562614/udp.o
                0x9d01c12c                TCPIP_UDP_ArrayGet

.text.TCPIP_UDP_OptionsSet
                0x9d01c2d8      0x1ac
 .text.TCPIP_UDP_OptionsSet
                0x9d01c2d8      0x1ac build/DM30004-2/production/_ext/1899562614/udp.o
                0x9d01c2d8                TCPIP_UDP_OptionsSet

.text.handle_as_wait_bs
                0x9d01c484      0x1ac
 .text.handle_as_wait_bs
                0x9d01c484      0x1ac build/DM30004-2/production/_ext/1442095083/unabto_attach.o
                0x9d01c484                handle_as_wait_bs

.text._DRV_ETHMAC_AddRxBuffers
                0x9d01c630      0x1a8
 .text._DRV_ETHMAC_AddRxBuffers
                0x9d01c630      0x1a8 build/DM30004-2/production/_ext/854379441/drv_ethmac.o

.text.handle_framing_ctrl_packet
                0x9d01c7d8      0x1a8
 .text.handle_framing_ctrl_packet
                0x9d01c7d8      0x1a8 build/DM30004-2/production/_ext/1442095083/unabto_packet.o
                0x9d01c7d8                handle_framing_ctrl_packet

.text.nabto_rd_header
                0x9d01c980      0x1a8
 .text.nabto_rd_header
                0x9d01c980      0x1a8 build/DM30004-2/production/_ext/1442095083/unabto_packet_util.o
                0x9d01c980                nabto_rd_header

.text.DRV_TMR_CounterFrequencyGet
                0x9d01cb28      0x1a4
 .text.DRV_TMR_CounterFrequencyGet
                0x9d01cb28      0x1a4 build/DM30004-2/production/_ext/2027566358/drv_tmr.o
                0x9d01cb28                DRV_TMR_CounterFrequencyGet

.text.unabto_stream_init_buffers
                0x9d01cccc      0x1a0
 .text.unabto_stream_init_buffers
                0x9d01cccc      0x1a0 build/DM30004-2/production/_ext/1442095083/unabto_stream_environment.o
                0x9d01cccc                unabto_stream_init_buffers

.text.strtol    0x9d01ce6c      0x19c
 .text.strtol   0x9d01ce6c      0x19c /opt/microchip/xc32/v1.43/bin/bin/../../lib/gcc/pic32mx/4.8.3/../../../../pic32mx/lib/libc.a(strtol.o)
                0x9d01ce6c                strtol

.text.DRV_EXTPHY_MDIXConfigure
                0x9d01d008      0x198
 .text.DRV_EXTPHY_MDIXConfigure
                0x9d01d008      0x198 build/DM30004-2/production/_ext/2030533247/drv_extphy_smsc8740.o

.text._ARPProbeAddress
                0x9d01d1a0      0x198
 .text._ARPProbeAddress
                0x9d01d1a0      0x198 build/DM30004-2/production/_ext/1899562614/arp.o

.rodata         0x9d01d338      0x198
 .rodata        0x9d01d338      0x198 build/DM30004-2/production/_ext/1442095083/unabto_app_adapter.o

.text.DRV_ETHMAC_LibRxGetPacket
                0x9d01d4d0      0x194
 .text.DRV_ETHMAC_LibRxGetPacket
                0x9d01d4d0      0x194 build/DM30004-2/production/_ext/854379441/drv_ethmac_lib.o
                0x9d01d4d0                DRV_ETHMAC_LibRxGetPacket

.text._sbrk_init
                0x9d01d664      0x194
 .text._sbrk_init
                0x9d01d664      0x194 /opt/microchip/xc32/v1.43/bin/bin/../../lib/gcc/pic32mx/4.8.3/../../../../pic32mx/lib/libpic32.a(sbrk.o)
                0x9d01d664                _sbrk_init

.text.TCPIP_DHCP_Initialize
                0x9d01d7f8      0x18c
 .text.TCPIP_DHCP_Initialize
                0x9d01d7f8      0x18c build/DM30004-2/production/_ext/1899562614/dhcp.o
                0x9d01d7f8                TCPIP_DHCP_Initialize

.text.DRV_ETHMAC_LibRxAcknowledgeBuffer
                0x9d01d984      0x188
 .text.DRV_ETHMAC_LibRxAcknowledgeBuffer
                0x9d01d984      0x188 build/DM30004-2/production/_ext/854379441/drv_ethmac_lib.o
                0x9d01d984                DRV_ETHMAC_LibRxAcknowledgeBuffer

.text.DRV_ETHMAC_LibInit
                0x9d01db0c      0x184
 .text.DRV_ETHMAC_LibInit
                0x9d01db0c      0x184 build/DM30004-2/production/_ext/854379441/drv_ethmac_lib.o
                0x9d01db0c                DRV_ETHMAC_LibInit

.text.DRV_ETHMAC_LibMACOpen
                0x9d01dc90      0x184
 .text.DRV_ETHMAC_LibMACOpen
                0x9d01dc90      0x184 build/DM30004-2/production/_ext/854379441/drv_ethmac_lib.o
                0x9d01dc90                DRV_ETHMAC_LibMACOpen

.text.TCPIP_UDP_Deinitialize
                0x9d01de14      0x184
 .text.TCPIP_UDP_Deinitialize
                0x9d01de14      0x184 build/DM30004-2/production/_ext/1899562614/udp.o
                0x9d01de14                TCPIP_UDP_Deinitialize

.rodata         0x9d01df98      0x180
 .rodata        0x9d01df98      0x180 build/DM30004-2/production/_ext/458569783/random.o
                0x9d01df98                outputB
                0x9d01e018                entropyB
                0x9d01e048                outputA
                0x9d01e0c8                reseedEntropyA
                0x9d01e0e8                entropyA

.text.wc_AesCbcDecrypt
                0x9d01e118      0x17c
 .text.wc_AesCbcDecrypt
                0x9d01e118      0x17c build/DM30004-2/production/_ext/458569783/aes.o
                0x9d01e118                wc_AesCbcDecrypt

.text._DRV_ETHPHY_NegResultPhase_ANAD
                0x9d01e294      0x17c
 .text._DRV_ETHPHY_NegResultPhase_ANAD
                0x9d01e294      0x17c build/DM30004-2/production/_ext/2030533247/drv_ethphy.o

.text.DRV_ETHMAC_PIC32MACEventMaskSet
                0x9d01e410      0x178
 .text.DRV_ETHMAC_PIC32MACEventMaskSet
                0x9d01e410      0x178 build/DM30004-2/production/_ext/854379441/drv_ethmac.o
                0x9d01e410                DRV_ETHMAC_PIC32MACEventMaskSet

.text._DRV_TMR_ClockPrescaleSet
                0x9d01e588      0x178
 .text._DRV_TMR_ClockPrescaleSet
                0x9d01e588      0x178 build/DM30004-2/production/_ext/2027566358/drv_tmr.o

.text._SYS_TMR_ClientCreate
                0x9d01e700      0x178
 .text._SYS_TMR_ClientCreate
                0x9d01e700      0x178 build/DM30004-2/production/_ext/62100799/sys_tmr.o

.text.DRV_EXTPHY_MIIConfigure
                0x9d01e878      0x174
 .text.DRV_EXTPHY_MIIConfigure
                0x9d01e878      0x174 build/DM30004-2/production/_ext/2030533247/drv_extphy_smsc8740.o

.rodata         0x9d01e9ec      0x170
 .rodata        0x9d01e9ec      0x170 build/DM30004-2/production/_ext/1280997252/system_init.o
                0x9d01e9ec                TCPIP_STACK_MODULE_CONFIG_TBL
                0x9d01ea7c                TCPIP_HOSTS_CONFIGURATION
                0x9d01eab4                tcpipDNSClientInitData
                0x9d01eacc                tcpipMACPIC32INTInitData
                0x9d01eaf4                tcpipDHCPInitData
                0x9d01eb04                tcpipUDPInitData
                0x9d01eb0c                tcpipARPInitData
                0x9d01eb34                sysTmrInitData
                0x9d01eb3c                sysDevconInit
                0x9d01eb40                drvTmr0InitData

.text._TCPIP_HEAP_Malloc
                0x9d01eb5c      0x170
 .text._TCPIP_HEAP_Malloc
                0x9d01eb5c      0x170 build/DM30004-2/production/_ext/1899562614/tcpip_heap_internal.o

.text.unabto_payload_read_ipx
                0x9d01eccc      0x170
 .text.unabto_payload_read_ipx
                0x9d01eccc      0x170 build/DM30004-2/production/_ext/1442095083/unabto_packet_util.o
                0x9d01eccc                unabto_payload_read_ipx

.text.wc_InitRng
                0x9d01ee3c      0x16c
 .text.wc_InitRng
                0x9d01ee3c      0x16c build/DM30004-2/production/_ext/458569783/random.o
                0x9d01ee3c                wc_InitRng

.text.wc_Md5Final
                0x9d01efa8      0x168
 .text.wc_Md5Final
                0x9d01efa8      0x168 build/DM30004-2/production/_ext/458569783/md5.o
                0x9d01efa8                wc_Md5Final

.text._EthAppendBusyList
                0x9d01f110      0x168
 .text._EthAppendBusyList
                0x9d01f110      0x168 build/DM30004-2/production/_ext/854379441/drv_ethmac_lib.o

.text           0x9d01f278      0x2d0
 .text          0x9d01f278      0x168 /opt/microchip/xc32/v1.43/bin/bin/../../lib/gcc/pic32mx/4.8.3/../../../../pic32mx/lib/libpic32.a(memcpy.o)
                0x9d01f278                memcpy
 .text          0x9d01f3e0      0x168 /opt/microchip/xc32/v1.43/bin/bin/../../lib/gcc/pic32mx/4.8.3/../../../../pic32mx/lib/libpic32.a(strlen.o)
                0x9d01f3e0                strlen

.text.wc_HmacFinal
                0x9d01f548      0x164
 .text.wc_HmacFinal
                0x9d01f548      0x164 build/DM30004-2/production/_ext/458569783/hmac.o
                0x9d01f548                wc_HmacFinal

.text.TCPIP_HEAP_CreateInternal
                0x9d01f6ac      0x164
 .text.TCPIP_HEAP_CreateInternal
                0x9d01f6ac      0x164 build/DM30004-2/production/_ext/1899562614/tcpip_heap_internal.o
                0x9d01f6ac                TCPIP_HEAP_CreateInternal

.text.TCPIP_IPV4_SelectSourceInterface
                0x9d01f810      0x160
 .text.TCPIP_IPV4_SelectSourceInterface
                0x9d01f810      0x160 build/DM30004-2/production/_ext/1899562614/ipv4.o
                0x9d01f810                TCPIP_IPV4_SelectSourceInterface

.rodata         0x9d01f970      0x160
 .rodata        0x9d01f970      0x160 /opt/microchip/xc32/v1.43/bin/bin/../../lib/gcc/pic32mx/4.8.3/../../../../pic32mx/lib/libc.a(ldpowers.o)
                0x9d01f970                _npowers_
                0x9d01fa20                _powers_

.text.APP_Tasks
                0x9d01fad0      0x15c
 .text.APP_Tasks
                0x9d01fad0      0x15c build/DM30004-2/production/_ext/1360937237/app.o
                0x9d01fad0                APP_Tasks

.text._DRV_ETHPHY_SetupPhaseReset
                0x9d01fc2c      0x15c
 .text._DRV_ETHPHY_SetupPhaseReset
                0x9d01fc2c      0x15c build/DM30004-2/production/_ext/2030533247/drv_ethphy.o

.text._ARPSendIfPkt
                0x9d01fd88      0x15c
 .text._ARPSendIfPkt
                0x9d01fd88      0x15c build/DM30004-2/production/_ext/1899562614/arp.o

.text._DHCPProcessReceiveData
                0x9d01fee4      0x15c
 .text._DHCPProcessReceiveData
                0x9d01fee4      0x15c build/DM30004-2/production/_ext/1899562614/dhcp.o

.text._MACDeinit
                0x9d020040      0x158
 .text._MACDeinit
                0x9d020040      0x158 build/DM30004-2/production/_ext/854379441/drv_ethmac.o

.text.DRV_ETHMAC_LibTxSendPacket
                0x9d020198      0x158
 .text.DRV_ETHMAC_LibTxSendPacket
                0x9d020198      0x158 build/DM30004-2/production/_ext/854379441/drv_ethmac_lib.o
                0x9d020198                DRV_ETHMAC_LibTxSendPacket

.text.handle_as_wait_dns_fallback_udp_bs
                0x9d0202f0      0x158
 .text.handle_as_wait_dns_fallback_udp_bs
                0x9d0202f0      0x158 build/DM30004-2/production/_ext/1442095083/unabto_attach.o
                0x9d0202f0                handle_as_wait_dns_fallback_udp_bs

.text.nabto_stream_encode_window
                0x9d020448      0x158
 .text.nabto_stream_encode_window
                0x9d020448      0x158 build/DM30004-2/production/_ext/1442095083/unabto_stream_window.o
                0x9d020448                nabto_stream_encode_window

.text.handle_as_wait_dns_fallback_bs
                0x9d0205a0      0x154
 .text.handle_as_wait_dns_fallback_bs
                0x9d0205a0      0x154 build/DM30004-2/production/_ext/1442095083/unabto_attach.o
                0x9d0205a0                handle_as_wait_dns_fallback_bs

.text.insert_connection_stats_payload
                0x9d0206f4      0x150
 .text.insert_connection_stats_payload
                0x9d0206f4      0x150 build/DM30004-2/production/_ext/1442095083/unabto_connection.o
                0x9d0206f4                insert_connection_stats_payload

.text.TCPIP_UDP_OpenServerSkt
                0x9d020844      0x14c
 .text.TCPIP_UDP_OpenServerSkt
                0x9d020844      0x14c build/DM30004-2/production/_ext/1899562614/udp.o
                0x9d020844                TCPIP_UDP_OpenServerSkt

.text.nabto_get_new_connection
                0x9d020990      0x148
 .text.nabto_get_new_connection
                0x9d020990      0x148 build/DM30004-2/production/_ext/1442095083/unabto_connection.o
                0x9d020990                nabto_get_new_connection

.text.unabto_stream_create_sack_pairs
                0x9d020ad8      0x148
 .text.unabto_stream_create_sack_pairs
                0x9d020ad8      0x148 build/DM30004-2/production/_ext/1442095083/unabto_stream_window.o
                0x9d020ad8                unabto_stream_create_sack_pairs

.text.send_data_packet
                0x9d020c20      0x148
 .text.send_data_packet
                0x9d020c20      0x148 build/DM30004-2/production/_ext/1442095083/unabto_stream_window.o

.text.unabto_stream_congestion_control_timeout
                0x9d020d68      0x148
 .text.unabto_stream_congestion_control_timeout
                0x9d020d68      0x148 build/DM30004-2/production/_ext/1442095083/unabto_stream_window.o
                0x9d020d68                unabto_stream_congestion_control_timeout

.text.TCPIP_UDP_OptionsGet
                0x9d020eb0      0x144
 .text.TCPIP_UDP_OptionsGet
                0x9d020eb0      0x144 build/DM30004-2/production/_ext/1899562614/udp.o
                0x9d020eb0                TCPIP_UDP_OptionsGet

.text.unabto_stream_congestion_control_handle_ack
                0x9d020ff4      0x144
 .text.unabto_stream_congestion_control_handle_ack
                0x9d020ff4      0x144 build/DM30004-2/production/_ext/1442095083/unabto_stream_window.o
                0x9d020ff4                unabto_stream_congestion_control_handle_ack

.text.fputc     0x9d021138      0x144
 .text.fputc    0x9d021138      0x144 /opt/microchip/xc32/v1.43/bin/bin/../../lib/gcc/pic32mx/4.8.3/../../../../pic32mx/lib/libc.a(_fputc_simple.o)
                0x9d021138                fputc

.text._DRV_ETHPHY_SetupPhaseIdle
                0x9d02127c      0x13c
 .text._DRV_ETHPHY_SetupPhaseIdle
                0x9d02127c      0x13c build/DM30004-2/production/_ext/2030533247/drv_ethphy.o

.text.update_ack_after_packet
                0x9d0213b8      0x13c
 .text.update_ack_after_packet
                0x9d0213b8      0x13c build/DM30004-2/production/_ext/1442095083/unabto_stream_window.o
                0x9d0213b8                update_ack_after_packet

.text.wc_Sha256Update
                0x9d0214f4      0x138
 .text.wc_Sha256Update
                0x9d0214f4      0x138 build/DM30004-2/production/_ext/458569783/sha256.o
                0x9d0214f4                wc_Sha256Update

.text.nabto_invite_event
                0x9d02162c      0x138
 .text.nabto_invite_event
                0x9d02162c      0x138 build/DM30004-2/production/_ext/1442095083/unabto_attach.o
                0x9d02162c                nabto_invite_event

.text.IntHandlerDrvTmrInstance0
                0x9d021764      0x134
 .text.IntHandlerDrvTmrInstance0
                0x9d021764      0x134 build/DM30004-2/production/_ext/1280997252/system_interrupt.o
                0x9d021764                IntHandlerDrvTmrInstance0

.text.DRV_ETHMAC_PIC32MACTasks
                0x9d021898      0x134
 .text.DRV_ETHMAC_PIC32MACTasks
                0x9d021898      0x134 build/DM30004-2/production/_ext/854379441/drv_ethmac.o
                0x9d021898                DRV_ETHMAC_PIC32MACTasks

.text.DRV_TMR_CounterValueGet
                0x9d0219cc      0x134
 .text.DRV_TMR_CounterValueGet
                0x9d0219cc      0x134 build/DM30004-2/production/_ext/2027566358/drv_tmr.o
                0x9d0219cc                DRV_TMR_CounterValueGet

.text.TCPIP_Helper_StringToMACAddress
                0x9d021b00      0x134
 .text.TCPIP_Helper_StringToMACAddress
                0x9d021b00      0x134 build/DM30004-2/production/_ext/1899562614/tcpip_helpers.o
                0x9d021b00                TCPIP_Helper_StringToMACAddress

.text._IntHandler_ETHMAC
                0x9d021c34      0x130
 .text._IntHandler_ETHMAC
                0x9d021c34      0x130 build/DM30004-2/production/_ext/1280997252/system_interrupt.o
                0x9d021c34                _IntHandler_ETHMAC

.text.wc_AesCbcEncrypt
                0x9d021d64      0x130
 .text.wc_AesCbcEncrypt
                0x9d021d64      0x130 build/DM30004-2/production/_ext/458569783/aes.o
                0x9d021d64                wc_AesCbcEncrypt

.rodata         0x9d021e94      0x130
 .rodata        0x9d021e94      0x130 build/DM30004-2/production/_ext/2030533247/drv_ethphy.o
                0x9d021eb0                DRV_ETHPHY_OBJECT_BASE_Default

.text._ARPDeleteResources
                0x9d021fc4      0x130
 .text._ARPDeleteResources
                0x9d021fc4      0x130 build/DM30004-2/production/_ext/1899562614/arp.o

.text.nabto_stream_tcb_ack
                0x9d0220f4      0x130
 .text.nabto_stream_tcb_ack
                0x9d0220f4      0x130 build/DM30004-2/production/_ext/1442095083/unabto_stream_window.o
                0x9d0220f4                nabto_stream_tcb_ack

.text.wc_ShaUpdate
                0x9d022224      0x12c
 .text.wc_ShaUpdate
                0x9d022224      0x12c build/DM30004-2/production/_ext/458569783/sha.o
                0x9d022224                wc_ShaUpdate

.text.DRV_ETHMAC_LibDescriptorsPoolAdd
                0x9d022350      0x12c
 .text.DRV_ETHMAC_LibDescriptorsPoolAdd
                0x9d022350      0x12c build/DM30004-2/production/_ext/854379441/drv_ethmac_lib.o
                0x9d022350                DRV_ETHMAC_LibDescriptorsPoolAdd

.text.prfhelper
                0x9d02247c      0x12c
 .text.prfhelper
                0x9d02247c      0x12c build/DM30004-2/production/_ext/1442095083/unabto_prf.o

.text._flsbuf   0x9d0225a8      0x12c
 .text._flsbuf  0x9d0225a8      0x12c /opt/microchip/xc32/v1.43/bin/bin/../../lib/gcc/pic32mx/4.8.3/../../../../pic32mx/lib/libc.a(_flsbuf_simple.o)
                0x9d0225a8                _flsbuf

.text.dpcmp     0x9d0226d4      0x12c
 .text.dpcmp    0x9d0226d4      0x12c /opt/microchip/xc32/v1.43/bin/bin/../../lib/gcc/pic32mx/4.8.3/../../../../pic32mx/lib/libm.a(dpcmp.o)
                0x9d0226d4                __gtdf2
                0x9d0226d4                __ltdf2
                0x9d0226d4                __gedf2
                0x9d0226d4                dpcmp
                0x9d0226d4                __ledf2
                0x9d0226d4                __nedf2
                0x9d0226d4                __eqdf2

.rodata         0x9d022800      0x128
 .rodata        0x9d022800      0x128 build/DM30004-2/production/_ext/1280997252/system_exceptions.o

.text.Hash_DRBG_Reseed
                0x9d022928      0x128
 .text.Hash_DRBG_Reseed
                0x9d022928      0x128 build/DM30004-2/production/_ext/458569783/random.o

.text.DRV_ETHMAC_Tasks_ISR
                0x9d022a50      0x128
 .text.DRV_ETHMAC_Tasks_ISR
                0x9d022a50      0x128 build/DM30004-2/production/_ext/854379441/drv_ethmac.o
                0x9d022a50                DRV_ETHMAC_Tasks_ISR

.text.TCPIP_IPV4_ArpHandler
                0x9d022b78      0x128
 .text.TCPIP_IPV4_ArpHandler
                0x9d022b78      0x128 build/DM30004-2/production/_ext/1899562614/ipv4.o

.text.unabto_time_event_stream
                0x9d022ca0      0x128
 .text.unabto_time_event_stream
                0x9d022ca0      0x128 build/DM30004-2/production/_ext/1442095083/unabto_stream_event.o
                0x9d022ca0                unabto_time_event_stream

.text._OAHashFindBkt
                0x9d022dc8      0x124
 .text._OAHashFindBkt
                0x9d022dc8      0x124 build/DM30004-2/production/_ext/1899562614/oahash.o

.text.send_connection_statistics
                0x9d022eec      0x120
 .text.send_connection_statistics
                0x9d022eec      0x120 build/DM30004-2/production/_ext/1442095083/unabto_connection.o
                0x9d022eec                send_connection_statistics

.text           0x9d02300c      0x120
 .text          0x9d02300c      0x120 /opt/microchip/xc32/v1.43/bin/bin/../../lib/gcc/pic32mx/4.8.3/../../../../pic32mx/lib/libpic32.a(strcmp.o)
                0x9d02300c                strcmp

.text.DRV_ETHMAC_PIC32MACRxFilterHashTableEntrySet
                0x9d02312c      0x11c
 .text.DRV_ETHMAC_PIC32MACRxFilterHashTableEntrySet
                0x9d02312c      0x11c build/DM30004-2/production/_ext/854379441/drv_ethmac.o
                0x9d02312c                DRV_ETHMAC_PIC32MACRxFilterHashTableEntrySet

.text.TCPIP_UDP_Initialize
                0x9d023248      0x11c
 .text.TCPIP_UDP_Initialize
                0x9d023248      0x11c build/DM30004-2/production/_ext/1899562614/udp.o
                0x9d023248                TCPIP_UDP_Initialize

.text.TCPIP_ARP_IsResolved
                0x9d023364      0x11c
 .text.TCPIP_ARP_IsResolved
                0x9d023364      0x11c build/DM30004-2/production/_ext/1899562614/arp.o
                0x9d023364                TCPIP_ARP_IsResolved

.text.unabto_stream_send_stats
                0x9d023480      0x11c
 .text.unabto_stream_send_stats
                0x9d023480      0x11c build/DM30004-2/production/_ext/1442095083/unabto_stream_event.o
                0x9d023480                unabto_stream_send_stats

.text._DRV_ETHPHY_SetupPhaseNegotiate_SubPhase3
                0x9d02359c      0x118
 .text._DRV_ETHPHY_SetupPhaseNegotiate_SubPhase3
                0x9d02359c      0x118 build/DM30004-2/production/_ext/2030533247/drv_ethphy.o

.text._DRV_TMR_Resume
                0x9d0236b4      0x118
 .text._DRV_TMR_Resume
                0x9d0236b4      0x118 build/DM30004-2/production/_ext/2027566358/drv_tmr.o

.text._DHCPSetLeaseTimeParams
                0x9d0237cc      0x118
 .text._DHCPSetLeaseTimeParams
                0x9d0237cc      0x118 build/DM30004-2/production/_ext/1899562614/dhcp.o

.text.nabto_alive_event
                0x9d0238e4      0x118
 .text.nabto_alive_event
                0x9d0238e4      0x118 build/DM30004-2/production/_ext/1442095083/unabto_attach.o
                0x9d0238e4                nabto_alive_event

.text.handle_stream_packet
                0x9d0239fc      0x118
 .text.handle_stream_packet
                0x9d0239fc      0x118 build/DM30004-2/production/_ext/1442095083/unabto_stream_event.o

.text.nabto_stream_tcb_close
                0x9d023b14      0x118
 .text.nabto_stream_tcb_close
                0x9d023b14      0x118 build/DM30004-2/production/_ext/1442095083/unabto_stream_window.o
                0x9d023b14                nabto_stream_tcb_close

.text.DRV_ETHMAC_PIC32MACStatisticsGet
                0x9d023c2c      0x114
 .text.DRV_ETHMAC_PIC32MACStatisticsGet
                0x9d023c2c      0x114 build/DM30004-2/production/_ext/854379441/drv_ethmac.o
                0x9d023c2c                DRV_ETHMAC_PIC32MACStatisticsGet

.text.TCPIP_Helper_PacketChecksum
                0x9d023d40      0x114
 .text.TCPIP_Helper_PacketChecksum
                0x9d023d40      0x114 build/DM30004-2/production/_ext/1899562614/tcpip_helpers.o
                0x9d023d40                TCPIP_Helper_PacketChecksum

.text.unabto_verify_integrity
                0x9d023e54      0x114
 .text.unabto_verify_integrity
                0x9d023e54      0x114 build/DM30004-2/production/_ext/1442095083/unabto_crypto.o
                0x9d023e54                unabto_verify_integrity

.text.DRV_ETHMAC_LibClose
                0x9d023f68      0x110
 .text.DRV_ETHMAC_LibClose
                0x9d023f68      0x110 build/DM30004-2/production/_ext/854379441/drv_ethmac_lib.o
                0x9d023f68                DRV_ETHMAC_LibClose

.text.TCPIP_STACK_KillStack
                0x9d024078      0x110
 .text.TCPIP_STACK_KillStack
                0x9d024078      0x110 build/DM30004-2/production/_ext/1899562614/tcpip_manager.o

.text.wc_RNG_HealthTest
                0x9d024188      0x10c
 .text.wc_RNG_HealthTest
                0x9d024188      0x10c build/DM30004-2/production/_ext/458569783/random.o
                0x9d024188                wc_RNG_HealthTest

.text._MacRxPacketAck
                0x9d024294      0x10c
 .text._MacRxPacketAck
                0x9d024294      0x10c build/DM30004-2/production/_ext/854379441/drv_ethmac.o

.text._UDPv4AllocateSktTxBuffer
                0x9d0243a0      0x108
 .text._UDPv4AllocateSktTxBuffer
                0x9d0243a0      0x108 build/DM30004-2/production/_ext/1899562614/udp.o

.text.unabto_insert_integrity
                0x9d0244a8      0x108
 .text.unabto_insert_integrity
                0x9d0244a8      0x108 build/DM30004-2/production/_ext/1442095083/unabto_crypto.o
                0x9d0244a8                unabto_insert_integrity

.text.prfplus_sha256
                0x9d0245b0      0x108
 .text.prfplus_sha256
                0x9d0245b0      0x108 build/DM30004-2/production/_ext/1442095083/unabto_prf.o
                0x9d0245b0                prfplus_sha256

.text._DNS_ValidateIf
                0x9d0246b8      0x104
 .text._DNS_ValidateIf
                0x9d0246b8      0x104 build/DM30004-2/production/_ext/1899562614/dns.o

.text.unabto_crypto_reinit_c
                0x9d0247bc      0x104
 .text.unabto_crypto_reinit_c
                0x9d0247bc      0x104 build/DM30004-2/production/_ext/1442095083/unabto_crypto.o
                0x9d0247bc                unabto_crypto_reinit_c

.text.build_and_send_rst_packet
                0x9d0248c0      0x104
 .text.build_and_send_rst_packet
                0x9d0248c0      0x104 build/DM30004-2/production/_ext/1442095083/unabto_stream_event.o
                0x9d0248c0                build_and_send_rst_packet

.rodata         0x9d0249c4      0x104
 .rodata        0x9d0249c4      0x104 /opt/microchip/xc32/v1.43/bin/bin/../../lib/gcc/pic32mx/4.8.3/../../../../pic32mx/lib/libc.a(ctype.o)
                0x9d0249c4                _ctype

.text.SYS_Initialize
                0x9d024ac8      0x100
 .text.SYS_Initialize
                0x9d024ac8      0x100 build/DM30004-2/production/_ext/1280997252/system_init.o
                0x9d024ac8                SYS_Initialize

.rodata         0x9d024be0      0x200
 .rodata        0x9d024be0      0x100 build/DM30004-2/production/_ext/458569783/sha256.o
 .rodata        0x9d024ce0      0x100 build/DM30004-2/production/_ext/854379441/drv_ethmac.o
                0x9d024d88                DRV_ETHMAC_PIC32MACObject

.text.unabto_decrypt
                0x9d024de0      0x100
 .text.unabto_decrypt
                0x9d024de0      0x100 build/DM30004-2/production/_ext/1442095083/unabto_crypto.o
                0x9d024de0                unabto_decrypt

.text.unabto_stream_get_stats
                0x9d024ee0      0x100
 .text.unabto_stream_get_stats
                0x9d024ee0      0x100 build/DM30004-2/production/_ext/1442095083/unabto_stream.o
                0x9d024ee0                unabto_stream_get_stats

.text.unabto_crypto_reinit_d
                0x9d024fe0       0xfc
 .text.unabto_crypto_reinit_d
                0x9d024fe0       0xfc build/DM30004-2/production/_ext/1442095083/unabto_crypto.o
                0x9d024fe0                unabto_crypto_reinit_d

.text.encrypt_packet
                0x9d0250dc       0xfc
 .text.encrypt_packet
                0x9d0250dc       0xfc build/DM30004-2/production/_ext/1442095083/unabto_packet.o
                0x9d0250dc                encrypt_packet

.text.nabto_stream_tcb_read
                0x9d0251d8       0xfc
 .text.nabto_stream_tcb_read
                0x9d0251d8       0xfc build/DM30004-2/production/_ext/1442095083/unabto_stream_window.o
                0x9d0251d8                nabto_stream_tcb_read

.text._DRV_TMR_Suspend
                0x9d0252d4       0xf8
 .text._DRV_TMR_Suspend
                0x9d0252d4       0xf8 build/DM30004-2/production/_ext/2027566358/drv_tmr.o

.text._UDPv4TxAckFnc
                0x9d0253cc       0xf8
 .text._UDPv4TxAckFnc
                0x9d0253cc       0xf8 build/DM30004-2/production/_ext/1899562614/udp.o

.text._DHCPClose
                0x9d0254c4       0xf8
 .text._DHCPClose
                0x9d0254c4       0xf8 build/DM30004-2/production/_ext/1899562614/dhcp.o

.text.send_basestation_attach_failure
                0x9d0255bc       0xf8
 .text.send_basestation_attach_failure
                0x9d0255bc       0xf8 build/DM30004-2/production/_ext/1442095083/unabto_attach.o
                0x9d0255bc                send_basestation_attach_failure

.text.nabto_limit_stream_config
                0x9d0256b4       0xf8
 .text.nabto_limit_stream_config
                0x9d0256b4       0xf8 build/DM30004-2/production/_ext/1442095083/unabto_stream_window.o
                0x9d0256b4                nabto_limit_stream_config

.text._DRV_ETHPHY_NegCompletePhaseAN_Restart
                0x9d0257ac       0xf4
 .text._DRV_ETHPHY_NegCompletePhaseAN_Restart
                0x9d0257ac       0xf4 build/DM30004-2/production/_ext/2030533247/drv_ethphy.o

.text.TCPIP_DHCP_ConnectionHandler
                0x9d0258a0       0xf4
 .text.TCPIP_DHCP_ConnectionHandler
                0x9d0258a0       0xf4 build/DM30004-2/production/_ext/1899562614/dhcp.o
                0x9d0258a0                TCPIP_DHCP_ConnectionHandler

.text.handle_as_attached
                0x9d025994       0xf4
 .text.handle_as_attached
                0x9d025994       0xf4 build/DM30004-2/production/_ext/1442095083/unabto_attach.o
                0x9d025994                handle_as_attached

.text._DRV_ETHPHY_ResetPhaseRead
                0x9d025a88       0xf0
 .text._DRV_ETHPHY_ResetPhaseRead
                0x9d025a88       0xf0 build/DM30004-2/production/_ext/2030533247/drv_ethphy.o

.text.mk_gsp_alive_rsp
                0x9d025b78       0xf0
 .text.mk_gsp_alive_rsp
                0x9d025b78       0xf0 build/DM30004-2/production/_ext/1442095083/unabto_attach.o

.text.rendezvous_time_event
                0x9d025c68       0xf0
 .text.rendezvous_time_event
                0x9d025c68       0xf0 build/DM30004-2/production/_ext/1442095083/unabto_connection.o
                0x9d025c68                rendezvous_time_event

.text.stateNameW
                0x9d025d58       0xf0
 .text.stateNameW
                0x9d025d58       0xf0 build/DM30004-2/production/_ext/1442095083/unabto_stream_window.o

.text._DRV_ETHPHY_SetupPhaseNegotiate_SubPhase0
                0x9d025e48       0xec
 .text._DRV_ETHPHY_SetupPhaseNegotiate_SubPhase0
                0x9d025e48       0xec build/DM30004-2/production/_ext/2030533247/drv_ethphy.o

.text.SYS_TMR_SystemCountGet
                0x9d025f34       0xec
 .text.SYS_TMR_SystemCountGet
                0x9d025f34       0xec build/DM30004-2/production/_ext/62100799/sys_tmr.o
                0x9d025f34                SYS_TMR_SystemCountGet

.text._TCPIP_StackSyncFunction
                0x9d026020       0xec
 .text._TCPIP_StackSyncFunction
                0x9d026020       0xec build/DM30004-2/production/_ext/1899562614/tcpip_manager.o

.text.DRV_ETHMAC_PIC32MACProcess
                0x9d02610c       0xe8
 .text.DRV_ETHMAC_PIC32MACProcess
                0x9d02610c       0xe8 build/DM30004-2/production/_ext/854379441/drv_ethmac.o
                0x9d02610c                DRV_ETHMAC_PIC32MACProcess

.text._SYS_TMR_ClientParamSet
                0x9d0261f4       0xe8
 .text._SYS_TMR_ClientParamSet
                0x9d0261f4       0xe8 build/DM30004-2/production/_ext/62100799/sys_tmr.o

.text.TCPIP_IPV4_DeInitialize
                0x9d0262dc       0xe8
 .text.TCPIP_IPV4_DeInitialize
                0x9d0262dc       0xe8 build/DM30004-2/production/_ext/1899562614/ipv4.o
                0x9d0262dc                TCPIP_IPV4_DeInitialize

.text._DHCPPacketFilter
                0x9d0263c4       0xe8
 .text._DHCPPacketFilter
                0x9d0263c4       0xe8 build/DM30004-2/production/_ext/1899562614/dhcp.o

.text.mk_gsp_connect_rsp
                0x9d0264ac       0xe8
 .text.mk_gsp_connect_rsp
                0x9d0264ac       0xe8 build/DM30004-2/production/_ext/1442095083/unabto_connection.o

.text.unabto_crypto_verify_and_decrypt
                0x9d026594       0xe8
 .text.unabto_crypto_verify_and_decrypt
                0x9d026594       0xe8 build/DM30004-2/production/_ext/1442095083/unabto_crypto.o
                0x9d026594                unabto_crypto_verify_and_decrypt

.text.__fixdfdi
                0x9d02667c       0xe8
 .text.__fixdfdi
                0x9d02667c       0xe8 /opt/microchip/xc32/v1.43/bin/bin/../../lib/gcc/pic32mx/4.8.3/../../../../pic32mx/lib/libe.a(_fixdfdi.o)
                0x9d02667c                __fixdfdi

.text._DHCPOpenSocket
                0x9d026764       0xe4
 .text._DHCPOpenSocket
                0x9d026764       0xe4 build/DM30004-2/production/_ext/1899562614/dhcp.o

.text.nabto_attach_time_event
                0x9d026848       0xe4
 .text.nabto_attach_time_event
                0x9d026848       0xe4 build/DM30004-2/production/_ext/1442095083/unabto_attach.o
                0x9d026848                nabto_attach_time_event

.text.insert_ipx_payload
                0x9d02692c       0xe4
 .text.insert_ipx_payload
                0x9d02692c       0xe4 build/DM30004-2/production/_ext/1442095083/unabto_packet_util.o
                0x9d02692c                insert_ipx_payload

.text.unabto_udp_debug
                0x9d026a10       0xe4
 .text.unabto_udp_debug
                0x9d026a10       0xe4 build/DM30004-2/production/_ext/2107900007/unabto_udp_debug.o
                0x9d026a10                unabto_udp_debug

.text.DRV_ETHPHY_Setup
                0x9d026af4       0xe0
 .text.DRV_ETHPHY_Setup
                0x9d026af4       0xe0 build/DM30004-2/production/_ext/2030533247/drv_ethphy.o
                0x9d026af4                DRV_ETHPHY_Setup

.text._DHCPEnable
                0x9d026bd4       0xe0
 .text._DHCPEnable
                0x9d026bd4       0xe0 build/DM30004-2/production/_ext/1899562614/dhcp.o

.text.TCPIP_OAHASH_EntryLookup
                0x9d026cb4       0xe0
 .text.TCPIP_OAHASH_EntryLookup
                0x9d026cb4       0xe0 build/DM30004-2/production/_ext/1899562614/oahash.o
                0x9d026cb4                TCPIP_OAHASH_EntryLookup

.text.TCPIP_STACK_BringNetDown
                0x9d026d94       0xe0
 .text.TCPIP_STACK_BringNetDown
                0x9d026d94       0xe0 build/DM30004-2/production/_ext/1899562614/tcpip_manager.o

.text.nabto_message_remote_poll
                0x9d026e74       0xe0
 .text.nabto_message_remote_poll
                0x9d026e74       0xe0 build/DM30004-2/production/_ext/1442095083/unabto_message.o
                0x9d026e74                nabto_message_remote_poll

.text.DRV_ETHPHY_SMIClockSet
                0x9d026f54       0xdc
 .text.DRV_ETHPHY_SMIClockSet
                0x9d026f54       0xdc build/DM30004-2/production/_ext/2030533247/drv_ethphy.o
                0x9d026f54                DRV_ETHPHY_SMIClockSet

.text.nabto_connection_end_connecting
                0x9d027030       0xdc
 .text.nabto_connection_end_connecting
                0x9d027030       0xdc build/DM30004-2/production/_ext/1442095083/unabto_connection.o
                0x9d027030                nabto_connection_end_connecting

.text.unabto_stream_stats_observe
                0x9d02710c       0xdc
 .text.unabto_stream_stats_observe
                0x9d02710c       0xdc build/DM30004-2/production/_ext/1442095083/unabto_stream_window.o
                0x9d02710c                unabto_stream_stats_observe

.text.general_exception
                0x9d0271e8       0xdc
 .text.general_exception
                0x9d0271e8       0xdc /opt/microchip/xc32/v1.43/bin/bin/../../lib/gcc/pic32mx/4.8.3/../../../../pic32mx/lib/libpic32.a(general-exception.o)
                0x9d0271e8                _general_exception_context

.text.TCPIP_IPV4_PacketFormatTx
                0x9d0272c4       0xd8
 .text.TCPIP_IPV4_PacketFormatTx
                0x9d0272c4       0xd8 build/DM30004-2/production/_ext/1899562614/ipv4.o
                0x9d0272c4                TCPIP_IPV4_PacketFormatTx

.text._ARPUpdateEntry
                0x9d02739c       0xd8
 .text._ARPUpdateEntry
                0x9d02739c       0xd8 build/DM30004-2/production/_ext/1899562614/arp.o

.text._TCPIP_PKT_PacketAlloc
                0x9d027474       0xd8
 .text._TCPIP_PKT_PacketAlloc
                0x9d027474       0xd8 build/DM30004-2/production/_ext/1899562614/tcpip_packet.o
                0x9d027474                _TCPIP_PKT_PacketAlloc

.text.result_s  0x9d02754c       0xd8
 .text.result_s
                0x9d02754c       0xd8 build/DM30004-2/production/_ext/1442095083/unabto_app_adapter.o

.text.Hash_DRBG_Instantiate
                0x9d027624       0xd4
 .text.Hash_DRBG_Instantiate
                0x9d027624       0xd4 build/DM30004-2/production/_ext/458569783/random.o

.text._DRV_ETHPHY_NegResultPhase_BMSTAT
                0x9d0276f8       0xd4
 .text._DRV_ETHPHY_NegResultPhase_BMSTAT
                0x9d0276f8       0xd4 build/DM30004-2/production/_ext/2030533247/drv_ethphy.o

.text._mon_putc
                0x9d0277cc       0xd4
 .text._mon_putc
                0x9d0277cc       0xd4 /opt/microchip/xc32/v1.43/bin/bin/../../lib/gcc/pic32mx/4.8.3/../../../../pic32mx/lib/libpic32.a(_mon_putc.o)
                0x9d0277cc                _mon_putc

.text.wc_Md5Update
                0x9d0278a0       0xd0
 .text.wc_Md5Update
                0x9d0278a0       0xd0 build/DM30004-2/production/_ext/458569783/md5.o
                0x9d0278a0                wc_Md5Update

.text._MacTxPendingPackets
                0x9d027970       0xd0
 .text._MacTxPendingPackets
                0x9d027970       0xd0 build/DM30004-2/production/_ext/854379441/drv_ethmac.o

.text.SYS_DEVCON_PerformanceConfig
                0x9d027a40       0xd0
 .text.SYS_DEVCON_PerformanceConfig
                0x9d027a40       0xd0 build/DM30004-2/production/_ext/1322803601/sys_devcon_pic32mx.o
                0x9d027a40                SYS_DEVCON_PerformanceConfig

.text.nabto_stream_connection_released
                0x9d027b10       0xd0
 .text.nabto_stream_connection_released
                0x9d027b10       0xd0 build/DM30004-2/production/_ext/1442095083/unabto_stream_event.o
                0x9d027b10                nabto_stream_connection_released

.rodata         0x9d027be0       0xd0
 .rodata        0x9d027be0       0xd0 /opt/microchip/xc32/v1.43/bin/bin/../../lib/gcc/pic32mx/4.8.3/../../../../pic32mx/lib/libc.a(doprnt_cdnopsuxX.eo)

.text.wc_GenerateSeed
                0x9d027cb0       0xcc
 .text.wc_GenerateSeed
                0x9d027cb0       0xcc build/DM30004-2/production/_ext/458569783/random.o
                0x9d027cb0                wc_GenerateSeed

.text._DRV_ETHMAC_LinkStateNegResult
                0x9d027d7c       0xcc
 .text._DRV_ETHMAC_LinkStateNegResult
                0x9d027d7c       0xcc build/DM30004-2/production/_ext/854379441/drv_ethmac.o

.text.DRV_TMR_Tasks
                0x9d027e48       0xcc
 .text.DRV_TMR_Tasks
                0x9d027e48       0xcc build/DM30004-2/production/_ext/2027566358/drv_tmr.o
                0x9d027e48                DRV_TMR_Tasks

.text.SYS_TMR_Initialize
                0x9d027f14       0xcc
 .text.SYS_TMR_Initialize
                0x9d027f14       0xcc build/DM30004-2/production/_ext/62100799/sys_tmr.o
                0x9d027f14                SYS_TMR_Initialize

.text.TCPIP_ARP_EntryRemove
                0x9d027fe0       0xcc
 .text.TCPIP_ARP_EntryRemove
                0x9d027fe0       0xcc build/DM30004-2/production/_ext/1899562614/arp.o
                0x9d027fe0                TCPIP_ARP_EntryRemove

.text.send_connection_ended_statistics
                0x9d0280ac       0xcc
 .text.send_connection_ended_statistics
                0x9d0280ac       0xcc build/DM30004-2/production/_ext/1442095083/unabto_connection.o
                0x9d0280ac                send_connection_ended_statistics

.text.nabto_stream_connection_closed
                0x9d028178       0xcc
 .text.nabto_stream_connection_closed
                0x9d028178       0xcc build/DM30004-2/production/_ext/1442095083/unabto_stream_event.o
                0x9d028178                nabto_stream_connection_closed

.text._UDPsetPacketInfo
                0x9d028244       0xc8
 .text._UDPsetPacketInfo
                0x9d028244       0xc8 build/DM30004-2/production/_ext/1899562614/udp.o

.text.TCPIP_OAHASH_EntryLookupOrInsert
                0x9d02830c       0xc8
 .text.TCPIP_OAHASH_EntryLookupOrInsert
                0x9d02830c       0xc8 build/DM30004-2/production/_ext/1899562614/oahash.o
                0x9d02830c                TCPIP_OAHASH_EntryLookupOrInsert

.text.insert_connect_stats_payload
                0x9d0283d4       0xc8
 .text.insert_connect_stats_payload
                0x9d0283d4       0xc8 build/DM30004-2/production/_ext/1442095083/unabto_connection.o
                0x9d0283d4                insert_connect_stats_payload

.text.nabto_time_event_connection
                0x9d02849c       0xc8
 .text.nabto_time_event_connection
                0x9d02849c       0xc8 build/DM30004-2/production/_ext/1442095083/unabto_connection.o
                0x9d02849c                nabto_time_event_connection

.text._sbrk     0x9d028564       0xc8
 .text._sbrk    0x9d028564       0xc8 /opt/microchip/xc32/v1.43/bin/bin/../../lib/gcc/pic32mx/4.8.3/../../../../pic32mx/lib/libpic32.a(sbrk.o)
                0x9d028564                _sbrk

.text.TCPIP_UDP_SocketInfoGet
                0x9d02862c       0xc4
 .text.TCPIP_UDP_SocketInfoGet
                0x9d02862c       0xc4 build/DM30004-2/production/_ext/1899562614/udp.o
                0x9d02862c                TCPIP_UDP_SocketInfoGet

.text._DHCPOptionWriteSrvIdent
                0x9d0286f0       0xc4
 .text._DHCPOptionWriteSrvIdent
                0x9d0286f0       0xc4 build/DM30004-2/production/_ext/1899562614/dhcp.o

.text._TCPIPStackModuleRxPurge
                0x9d0287b4       0xc4
 .text._TCPIPStackModuleRxPurge
                0x9d0287b4       0xc4 build/DM30004-2/production/_ext/1899562614/tcpip_manager.o
                0x9d0287b4                _TCPIPStackModuleRxPurge

.text.nabtoStampDiff2ms
                0x9d028878       0xc4
 .text.nabtoStampDiff2ms
                0x9d028878       0xc4 build/DM30004-2/production/_ext/2107900007/unabto_harmony_time.o
                0x9d028878                nabtoStampDiff2ms

.text._DHCPOptionProcessDns
                0x9d02893c       0xc0
 .text._DHCPOptionProcessDns
                0x9d02893c       0xc0 build/DM30004-2/production/_ext/1899562614/dhcp.o

.text.unabto_read_socket
                0x9d0289fc       0xc0
 .text.unabto_read_socket
                0x9d0289fc       0xc0 build/DM30004-2/production/_ext/1442095083/unabto_common_main.o
                0x9d0289fc                unabto_read_socket

.text.nabto_context_reinit_crypto
                0x9d028abc       0xc0
 .text.nabto_context_reinit_crypto
                0x9d028abc       0xc0 build/DM30004-2/production/_ext/1442095083/unabto_context.o
                0x9d028abc                nabto_context_reinit_crypto

.text.insert_header
                0x9d028b7c       0xc0
 .text.insert_header
                0x9d028b7c       0xc0 build/DM30004-2/production/_ext/1442095083/unabto_packet_util.o
                0x9d028b7c                insert_header

.text.insert_sp_id_payload
                0x9d028c3c       0xc0
 .text.insert_sp_id_payload
                0x9d028c3c       0xc0 build/DM30004-2/production/_ext/1442095083/unabto_packet_util.o
                0x9d028c3c                insert_sp_id_payload

.text.TCPIP_UDP_ArrayPut
                0x9d028cfc       0xbc
 .text.TCPIP_UDP_ArrayPut
                0x9d028cfc       0xbc build/DM30004-2/production/_ext/1899562614/udp.o
                0x9d028cfc                TCPIP_UDP_ArrayPut

.text._DHCPOptionWriteIPRequest
                0x9d028db8       0xbc
 .text._DHCPOptionWriteIPRequest
                0x9d028db8       0xbc build/DM30004-2/production/_ext/1899562614/dhcp.o

.text._EthTxSchedList
                0x9d028e74       0xb8
 .text._EthTxSchedList
                0x9d028e74       0xb8 build/DM30004-2/production/_ext/854379441/drv_ethmac_lib.o

.text.TCPIP_DNS_OAHASH_DeleteEntry
                0x9d028f2c       0xb8
 .text.TCPIP_DNS_OAHASH_DeleteEntry
                0x9d028f2c       0xb8 build/DM30004-2/production/_ext/1899562614/dns.o

.text.TCPIP_PKT_DataSegmentGet
                0x9d028fe4       0xb8
 .text.TCPIP_PKT_DataSegmentGet
                0x9d028fe4       0xb8 build/DM30004-2/production/_ext/1899562614/tcpip_packet.o
                0x9d028fe4                TCPIP_PKT_DataSegmentGet

.text.nabto_crypto_reset_a
                0x9d02909c       0xb8
 .text.nabto_crypto_reset_a
                0x9d02909c       0xb8 build/DM30004-2/production/_ext/1442095083/unabto_crypto.o

.text.wc_HmacUpdate
                0x9d029154       0xb4
 .text.wc_HmacUpdate
                0x9d029154       0xb4 build/DM30004-2/production/_ext/458569783/hmac.o
                0x9d029154                wc_HmacUpdate

.text.DRV_ETHMAC_PIC32MACEventAcknowledge
                0x9d029208       0xb4
 .text.DRV_ETHMAC_PIC32MACEventAcknowledge
                0x9d029208       0xb4 build/DM30004-2/production/_ext/854379441/drv_ethmac.o
                0x9d029208                DRV_ETHMAC_PIC32MACEventAcknowledge

.text._EthTxSchedBuffer
                0x9d0292bc       0xb4
 .text._EthTxSchedBuffer
                0x9d0292bc       0xb4 build/DM30004-2/production/_ext/854379441/drv_ethmac_lib.o

.text.TCPIP_UDP_BcastIPV4AddressSet
                0x9d029370       0xb4
 .text.TCPIP_UDP_BcastIPV4AddressSet
                0x9d029370       0xb4 build/DM30004-2/production/_ext/1899562614/udp.o
                0x9d029370                TCPIP_UDP_BcastIPV4AddressSet

.text._ARPNotifyClients
                0x9d029424       0xb4
 .text._ARPNotifyClients
                0x9d029424       0xb4 build/DM30004-2/production/_ext/1899562614/arp.o

.text._DNS_DeleteHash
                0x9d0294d8       0xb4
 .text._DNS_DeleteHash
                0x9d0294d8       0xb4 build/DM30004-2/production/_ext/1899562614/dns.o

.text.insert_rendezvous_stats_payload
                0x9d02958c       0xb4
 .text.insert_rendezvous_stats_payload
                0x9d02958c       0xb4 build/DM30004-2/production/_ext/1442095083/unabto_connection.o
                0x9d02958c                insert_rendezvous_stats_payload

.text.send_ack  0x9d029640       0xb4
 .text.send_ack
                0x9d029640       0xb4 build/DM30004-2/production/_ext/1442095083/unabto_packet.o

.text.update_triple_ack
                0x9d0296f4       0xb4
 .text.update_triple_ack
                0x9d0296f4       0xb4 build/DM30004-2/production/_ext/1442095083/unabto_stream_window.o
                0x9d0296f4                update_triple_ack

.text._DRV_ETHPHY_ResetPhaseWrite
                0x9d0297a8       0xb0
 .text._DRV_ETHPHY_ResetPhaseWrite
                0x9d0297a8       0xb0 build/DM30004-2/production/_ext/2030533247/drv_ethphy.o

.text._DNS_AddSelectionIf
                0x9d029858       0xb0
 .text._DNS_AddSelectionIf
                0x9d029858       0xb0 build/DM30004-2/production/_ext/1899562614/dns.o

.text.stName    0x9d029908       0xb0
 .text.stName   0x9d029908       0xb0 build/DM30004-2/production/_ext/1442095083/unabto_attach.o
                0x9d029908                stName

.text.insert_piggy_payload
                0x9d0299b8       0xb0
 .text.insert_piggy_payload
                0x9d0299b8       0xb0 build/DM30004-2/production/_ext/1442095083/unabto_packet_util.o
                0x9d0299b8                insert_piggy_payload

.text._DRV_ETHMAC_LinkStateWaitLinkUp
                0x9d029a68       0xac
 .text._DRV_ETHMAC_LinkStateWaitLinkUp
                0x9d029a68       0xac build/DM30004-2/production/_ext/854379441/drv_ethmac.o

.text._DRV_ETHPHY_NegCompletePhaseRead2
                0x9d029b14       0xac
 .text._DRV_ETHPHY_NegCompletePhaseRead2
                0x9d029b14       0xac build/DM30004-2/production/_ext/2030533247/drv_ethphy.o

.text._DNS_Enable
                0x9d029bc0       0xac
 .text._DNS_Enable
                0x9d029bc0       0xac build/DM30004-2/production/_ext/1899562614/dns.o

.text._TCPIPStackInsertRxPacket
                0x9d029c6c       0xac
 .text._TCPIPStackInsertRxPacket
                0x9d029c6c       0xac build/DM30004-2/production/_ext/1899562614/tcpip_manager.o
                0x9d029c6c                _TCPIPStackInsertRxPacket

.text.send_syn_or_syn_ack
                0x9d029d18       0xac
 .text.send_syn_or_syn_ack
                0x9d029d18       0xac build/DM30004-2/production/_ext/1442095083/unabto_stream_window.o

.text.fptodp    0x9d029dc4       0xac
 .text.fptodp   0x9d029dc4       0xac /opt/microchip/xc32/v1.43/bin/bin/../../lib/gcc/pic32mx/4.8.3/../../../../pic32mx/lib/libm.a(fptodp.o)
                0x9d029dc4                __extendsfdf2
                0x9d029dc4                fptodp

.text.DRV_ETHMAC_PIC32MACRegisterStatisticsGet
                0x9d029e70       0xa8
 .text.DRV_ETHMAC_PIC32MACRegisterStatisticsGet
                0x9d029e70       0xa8 build/DM30004-2/production/_ext/854379441/drv_ethmac.o
                0x9d029e70                DRV_ETHMAC_PIC32MACRegisterStatisticsGet

.text.DRV_ETHPHY_VendorSMIWriteStart
                0x9d029f18       0xa8
 .text.DRV_ETHPHY_VendorSMIWriteStart
                0x9d029f18       0xa8 build/DM30004-2/production/_ext/2030533247/drv_ethphy.o
                0x9d029f18                DRV_ETHPHY_VendorSMIWriteStart

.text.DRV_ETHPHY_VendorSMIReadStart
                0x9d029fc0       0xa8
 .text.DRV_ETHPHY_VendorSMIReadStart
                0x9d029fc0       0xa8 build/DM30004-2/production/_ext/2030533247/drv_ethphy.o
                0x9d029fc0                DRV_ETHPHY_VendorSMIReadStart

.text._SYS_TMR_ClientCheckSrvLock
                0x9d02a068       0xa8
 .text._SYS_TMR_ClientCheckSrvLock
                0x9d02a068       0xa8 build/DM30004-2/production/_ext/62100799/sys_tmr.o

.text.TCPIP_PKT_PacketMACFormat
                0x9d02a110       0xa8
 .text.TCPIP_PKT_PacketMACFormat
                0x9d02a110       0xa8 build/DM30004-2/production/_ext/1899562614/tcpip_packet.o
                0x9d02a110                TCPIP_PKT_PacketMACFormat

.text.insert_version_payload
                0x9d02a1b8       0xa8
 .text.insert_version_payload
                0x9d02a1b8       0xa8 build/DM30004-2/production/_ext/1442095083/unabto_packet_util.o
                0x9d02a1b8                insert_version_payload

.text.PLIB_ETH_MACSetAddress
                0x9d02a260       0xa8
 .text.PLIB_ETH_MACSetAddress
                0x9d02a260       0xa8 ../../../../../microchip/harmony/v1_11/bin/framework/peripheral/PIC32MX795F512L_peripherals.a(plib_eth_lib.o)
                0x9d02a260                PLIB_ETH_MACSetAddress

.text           0x9d02a308       0xa8
 .text          0x9d02a308       0xa8 /opt/microchip/xc32/v1.43/bin/bin/../../lib/gcc/pic32mx/4.8.3/../../../../pic32mx/lib/libpic32.a(memset.o)
                0x9d02a308                memset

.text.libm      0x9d02a3b0       0xa8
 .text.libm     0x9d02a3b0       0xa8 /opt/microchip/xc32/v1.43/bin/bin/../../lib/gcc/pic32mx/4.8.3/../../../../pic32mx/lib/libm.a(dpfrexp.o)
                0x9d02a3b0                frexp
                0x9d02a3b0                dpfrexp
                0x9d02a3b0                frexpl

.text.DRV_ETHPHY_SMIWrite
                0x9d02a458       0xa4
 .text.DRV_ETHPHY_SMIWrite
                0x9d02a458       0xa4 build/DM30004-2/production/_ext/2030533247/drv_ethphy.o
                0x9d02a458                DRV_ETHPHY_SMIWrite

.text._DRV_ETHPHY_SetupPhaseNegotiate_SubPhase6
                0x9d02a4fc       0xa4
 .text._DRV_ETHPHY_SetupPhaseNegotiate_SubPhase6
                0x9d02a4fc       0xa4 build/DM30004-2/production/_ext/2030533247/drv_ethphy.o

.text.TCPIP_IPV4_Initialize
                0x9d02a5a0       0xa4
 .text.TCPIP_IPV4_Initialize
                0x9d02a5a0       0xa4 build/DM30004-2/production/_ext/1899562614/ipv4.o
                0x9d02a5a0                TCPIP_IPV4_Initialize

.text._TCPIP_HEAP_MaxSize
                0x9d02a644       0xa4
 .text._TCPIP_HEAP_MaxSize
                0x9d02a644       0xa4 build/DM30004-2/production/_ext/1899562614/tcpip_heap_internal.o

.text.nabto_stream_tcb_on_connection_closed
                0x9d02a6e8       0xa4
 .text.nabto_stream_tcb_on_connection_closed
                0x9d02a6e8       0xa4 build/DM30004-2/production/_ext/1442095083/unabto_stream_window.o
                0x9d02a6e8                nabto_stream_tcb_on_connection_closed

.text.nabto_read
                0x9d02a78c       0xa4
 .text.nabto_read
                0x9d02a78c       0xa4 build/DM30004-2/production/_ext/2107900007/unabto_harmony_network.o
                0x9d02a78c                nabto_read

.text._DRV_ETHPHY_LinkStatPhaseRead
                0x9d02a830       0xa0
 .text._DRV_ETHPHY_LinkStatPhaseRead
                0x9d02a830       0xa0 build/DM30004-2/production/_ext/2030533247/drv_ethphy.o

.text.TCPIP_UDP_PutIsReady
                0x9d02a8d0       0xa0
 .text.TCPIP_UDP_PutIsReady
                0x9d02a8d0       0xa0 build/DM30004-2/production/_ext/1899562614/udp.o
                0x9d02a8d0                TCPIP_UDP_PutIsReady

.text.TCPIP_Helper_SingleListNodeRemove
                0x9d02a970       0xa0
 .text.TCPIP_Helper_SingleListNodeRemove
                0x9d02a970       0xa0 build/DM30004-2/production/_ext/1899562614/tcpip_helpers.o
                0x9d02a970                TCPIP_Helper_SingleListNodeRemove

.text._TCPIP_PKT_PacketFree
                0x9d02aa10       0xa0
 .text._TCPIP_PKT_PacketFree
                0x9d02aa10       0xa0 build/DM30004-2/production/_ext/1899562614/tcpip_packet.o
                0x9d02aa10                _TCPIP_PKT_PacketFree

.text.verification_check
                0x9d02aab0       0xa0
 .text.verification_check
                0x9d02aab0       0xa0 build/DM30004-2/production/_ext/1442095083/unabto_attach.o
                0x9d02aab0                verification_check

.text.insert_payload
                0x9d02ab50       0xa0
 .text.insert_payload
                0x9d02ab50       0xa0 build/DM30004-2/production/_ext/1442095083/unabto_packet_util.o
                0x9d02ab50                insert_payload

.text._DRV_ETHMAC_LinkStateGetLink
                0x9d02abf0       0x9c
 .text._DRV_ETHMAC_LinkStateGetLink
                0x9d02abf0       0x9c build/DM30004-2/production/_ext/854379441/drv_ethmac.o

.text.TCPIP_ARP_Probe
                0x9d02ac8c       0x9c
 .text.TCPIP_ARP_Probe
                0x9d02ac8c       0x9c build/DM30004-2/production/_ext/1899562614/arp.o
                0x9d02ac8c                TCPIP_ARP_Probe

.text.add_typed_string
                0x9d02ad28       0x9c
 .text.add_typed_string
                0x9d02ad28       0x9c build/DM30004-2/production/_ext/1442095083/unabto_message.o

.text.fpcmp     0x9d02adc4       0x9c
 .text.fpcmp    0x9d02adc4       0x9c /opt/microchip/xc32/v1.43/bin/bin/../../lib/gcc/pic32mx/4.8.3/../../../../pic32mx/lib/libm.a(fpcmp.o)
                0x9d02adc4                __ltsf2
                0x9d02adc4                __eqsf2
                0x9d02adc4                __lesf2
                0x9d02adc4                __gtsf2
                0x9d02adc4                __nesf2
                0x9d02adc4                fpcmp
                0x9d02adc4                __gesf2

.text.write     0x9d02ae60       0x9c
 .text.write    0x9d02ae60       0x9c /opt/microchip/xc32/v1.43/bin/bin/../../lib/gcc/pic32mx/4.8.3/../../../../pic32mx/lib/libpic32.a(write.o)
                0x9d02ae60                write

.text.DRV_ETHMAC_LibDescriptorsPoolCleanUp
                0x9d02aefc       0x98
 .text.DRV_ETHMAC_LibDescriptorsPoolCleanUp
                0x9d02aefc       0x98 build/DM30004-2/production/_ext/854379441/drv_ethmac_lib.o
                0x9d02aefc                DRV_ETHMAC_LibDescriptorsPoolCleanUp

.text.TCPIP_Helper_FormatNetBIOSName
                0x9d02af94       0x98
 .text.TCPIP_Helper_FormatNetBIOSName
                0x9d02af94       0x98 build/DM30004-2/production/_ext/1899562614/tcpip_helpers.o
                0x9d02af94                TCPIP_Helper_FormatNetBIOSName

.text.nabto_release_connection
                0x9d02b02c       0x98
 .text.nabto_release_connection
                0x9d02b02c       0x98 build/DM30004-2/production/_ext/1442095083/unabto_connection.o
                0x9d02b02c                nabto_release_connection

.text.unabto_read_payload
                0x9d02b0c4       0x98
 .text.unabto_read_payload
                0x9d02b0c4       0x98 build/DM30004-2/production/_ext/1442095083/unabto_packet_util.o
                0x9d02b0c4                unabto_read_payload

.text.aes128_cbc_decrypt
                0x9d02b15c       0x98
 .text.aes128_cbc_decrypt
                0x9d02b15c       0x98 build/DM30004-2/production/_ext/2107900007/unabto_harmony_crypto.o
                0x9d02b15c                aes128_cbc_decrypt

.text.nabto_write
                0x9d02b1f4       0x98
 .text.nabto_write
                0x9d02b1f4       0x98 build/DM30004-2/production/_ext/2107900007/unabto_harmony_network.o
                0x9d02b1f4                nabto_write

.text           0x9d02b28c       0x98
 .text          0x9d02b28c       0x98 /opt/microchip/xc32/v1.43/bin/bin/../../lib/gcc/pic32mx/4.8.3/../../../../pic32mx/lib/libpic32.a(memcmp.o)
                0x9d02b28c                memcmp

.text._UDPSetNewRxPacket
                0x9d02b324       0x94
 .text._UDPSetNewRxPacket
                0x9d02b324       0x94 build/DM30004-2/production/_ext/1899562614/udp.o

.text.TCPIP_UDP_DestinationIPAddressSet
                0x9d02b3b8       0x94
 .text.TCPIP_UDP_DestinationIPAddressSet
                0x9d02b3b8       0x94 build/DM30004-2/production/_ext/1899562614/udp.o
                0x9d02b3b8                TCPIP_UDP_DestinationIPAddressSet

.text.nabto_change_context_state
                0x9d02b44c       0x94
 .text.nabto_change_context_state
                0x9d02b44c       0x94 build/DM30004-2/production/_ext/1442095083/unabto_attach.o
                0x9d02b44c                nabto_change_context_state

.text.unabto_stream_init_data_structure
                0x9d02b4e0       0x94
 .text.unabto_stream_init_data_structure
                0x9d02b4e0       0x94 build/DM30004-2/production/_ext/1442095083/unabto_stream.o
                0x9d02b4e0                unabto_stream_init_data_structure

.rodata         0x9d02b574       0x94
 .rodata        0x9d02b574       0x94 build/DM30004-2/production/_ext/2107900007/unabto_harmony_crypto.o

.text.aes128_cbc_encrypt
                0x9d02b608       0x94
 .text.aes128_cbc_encrypt
                0x9d02b608       0x94 build/DM30004-2/production/_ext/2107900007/unabto_harmony_crypto.o
                0x9d02b608                aes128_cbc_encrypt

.text._DRV_ETHMAC_LinkStateNegComplete
                0x9d02b69c       0x90
 .text._DRV_ETHMAC_LinkStateNegComplete
                0x9d02b69c       0x90 build/DM30004-2/production/_ext/854379441/drv_ethmac.o

.text.DRV_ETHPHY_SMIScanDataGet
                0x9d02b72c       0x90
 .text.DRV_ETHPHY_SMIScanDataGet
                0x9d02b72c       0x90 build/DM30004-2/production/_ext/2030533247/drv_ethphy.o
                0x9d02b72c                DRV_ETHPHY_SMIScanDataGet

.text._DRV_ETHPHY_NegCompletePhaseAN_Complete
                0x9d02b7bc       0x90
 .text._DRV_ETHPHY_NegCompletePhaseAN_Complete
                0x9d02b7bc       0x90 build/DM30004-2/production/_ext/2030533247/drv_ethphy.o

.text.TCPIP_ARP_EntryGet
                0x9d02b84c       0x90
 .text.TCPIP_ARP_EntryGet
                0x9d02b84c       0x90 build/DM30004-2/production/_ext/1899562614/arp.o
                0x9d02b84c                TCPIP_ARP_EntryGet

.text.TCPIP_Helper_ProtectedSingleListRemoveAll
                0x9d02b8dc       0x90
 .text.TCPIP_Helper_ProtectedSingleListRemoveAll
                0x9d02b8dc       0x90 build/DM30004-2/production/_ext/1899562614/tcpip_helpers.o
                0x9d02b8dc                TCPIP_Helper_ProtectedSingleListRemoveAll

.text._TCPIPStackIpAddFromAnyNet
                0x9d02b96c       0x90
 .text._TCPIPStackIpAddFromAnyNet
                0x9d02b96c       0x90 build/DM30004-2/production/_ext/1899562614/tcpip_manager.o
                0x9d02b96c                _TCPIPStackIpAddFromAnyNet

.text.unabto_stream_write
                0x9d02b9fc       0x90
 .text.unabto_stream_write
                0x9d02b9fc       0x90 build/DM30004-2/production/_ext/1442095083/unabto_stream.o
                0x9d02b9fc                unabto_stream_write

.text.unabto_stream_mark_all_xmit_buffers_as_timed_out
                0x9d02ba8c       0x90
 .text.unabto_stream_mark_all_xmit_buffers_as_timed_out
                0x9d02ba8c       0x90 build/DM30004-2/production/_ext/1442095083/unabto_stream_window.o
                0x9d02ba8c                unabto_stream_mark_all_xmit_buffers_as_timed_out

.text.wc_AesSetIV
                0x9d02bb1c       0x8c
 .text.wc_AesSetIV
                0x9d02bb1c       0x8c build/DM30004-2/production/_ext/458569783/aes.o
                0x9d02bb1c                wc_AesSetIV

.text.HmacKeyInnerHash
                0x9d02bba8       0x8c
 .text.HmacKeyInnerHash
                0x9d02bba8       0x8c build/DM30004-2/production/_ext/458569783/hmac.o

.text.array_add
                0x9d02bc34       0x8c
 .text.array_add
                0x9d02bc34       0x8c build/DM30004-2/production/_ext/458569783/random.o

.text.TCPIP_UDP_TxOffsetSet
                0x9d02bcc0       0x8c
 .text.TCPIP_UDP_TxOffsetSet
                0x9d02bcc0       0x8c build/DM30004-2/production/_ext/1899562614/udp.o
                0x9d02bcc0                TCPIP_UDP_TxOffsetSet

.text._DHCPNotifyClients
                0x9d02bd4c       0x8c
 .text._DHCPNotifyClients
                0x9d02bd4c       0x8c build/DM30004-2/production/_ext/1899562614/dhcp.o

.text._DNSDiscardName
                0x9d02bdd8       0x8c
 .text._DNSDiscardName
                0x9d02bdd8       0x8c build/DM30004-2/production/_ext/1899562614/dns.o

.text.TCPIP_Helper_ProtectedSingleListHeadRemove
                0x9d02be64       0x8c
 .text.TCPIP_Helper_ProtectedSingleListHeadRemove
                0x9d02be64       0x8c build/DM30004-2/production/_ext/1899562614/tcpip_helpers.o
                0x9d02be64                TCPIP_Helper_ProtectedSingleListHeadRemove

.text.TCPIP_Helper_ProtectedSingleListNodeRemove
                0x9d02bef0       0x8c
 .text.TCPIP_Helper_ProtectedSingleListNodeRemove
                0x9d02bef0       0x8c build/DM30004-2/production/_ext/1899562614/tcpip_helpers.o
                0x9d02bef0                TCPIP_Helper_ProtectedSingleListNodeRemove

.text.truncated_hmac_sha256_verify_integrity
                0x9d02bf7c       0x8c
 .text.truncated_hmac_sha256_verify_integrity
                0x9d02bf7c       0x8c build/DM30004-2/production/_ext/1442095083/unabto_aes128_sha256.o
                0x9d02bf7c                truncated_hmac_sha256_verify_integrity

.text.unabto_extended_rendezvous_next_port
                0x9d02c008       0x8c
 .text.unabto_extended_rendezvous_next_port
                0x9d02c008       0x8c build/DM30004-2/production/_ext/1442095083/unabto_extended_rendezvous.o
                0x9d02c008                unabto_extended_rendezvous_next_port

.text.insert_notify_payload
                0x9d02c094       0x8c
 .text.insert_notify_payload
                0x9d02c094       0x8c build/DM30004-2/production/_ext/1442095083/unabto_packet_util.o
                0x9d02c094                insert_notify_payload

.text.nabto_stream_tcb_on_connection_released
                0x9d02c120       0x8c
 .text.nabto_stream_tcb_on_connection_released
                0x9d02c120       0x8c build/DM30004-2/production/_ext/1442095083/unabto_stream_window.o
                0x9d02c120                nabto_stream_tcb_on_connection_released

.text.rand      0x9d02c1ac       0x8c
 .text.rand     0x9d02c1ac       0x8c /opt/microchip/xc32/v1.43/bin/bin/../../lib/gcc/pic32mx/4.8.3/../../../../pic32mx/lib/libc.a(rand.o)
                0x9d02c1ac                rand

.text.dptoul    0x9d02c238       0x8c
 .text.dptoul   0x9d02c238       0x8c /opt/microchip/xc32/v1.43/bin/bin/../../lib/gcc/pic32mx/4.8.3/../../../../pic32mx/lib/libm.a(dptoul.o)
                0x9d02c238                __fixunsdfsi
                0x9d02c238                dptoul

.text.__orderdf2
                0x9d02c2c4       0x8c
 .text.__orderdf2
                0x9d02c2c4       0x8c /opt/microchip/xc32/v1.43/bin/bin/../../lib/gcc/pic32mx/4.8.3/../../../../pic32mx/lib/libe.a(_orderdf2.o)
                0x9d02c2c4                __orderdf2

.text.SYS_RANDOM_Initialize
                0x9d02c350       0x88
 .text.SYS_RANDOM_Initialize
                0x9d02c350       0x88 build/DM30004-2/production/_ext/1310142747/sys_random.o
                0x9d02c350                SYS_RANDOM_Initialize

.text.hexatob   0x9d02c3d8       0x88
 .text.hexatob  0x9d02c3d8       0x88 build/DM30004-2/production/_ext/804969968/helpers.o
                0x9d02c3d8                hexatob

.text._TCPIPStackModuleSignalRequest
                0x9d02c460       0x88
 .text._TCPIPStackModuleSignalRequest
                0x9d02c460       0x88 build/DM30004-2/production/_ext/1899562614/tcpip_manager.o
                0x9d02c460                _TCPIPStackModuleSignalRequest

.text.nabto_release_connection_req
                0x9d02c4e8       0x88
 .text.nabto_release_connection_req
                0x9d02c4e8       0x88 build/DM30004-2/production/_ext/1442095083/unabto_connection.o
                0x9d02c4e8                nabto_release_connection_req

.text.DRV_ETHPHY_VendorSMIReadResultGet
                0x9d02c570       0x84
 .text.DRV_ETHPHY_VendorSMIReadResultGet
                0x9d02c570       0x84 build/DM30004-2/production/_ext/2030533247/drv_ethphy.o
                0x9d02c570                DRV_ETHPHY_VendorSMIReadResultGet

.text._DRV_TMR_ModuleObj
                0x9d02c5f4       0x84
 .text._DRV_TMR_ModuleObj
                0x9d02c5f4       0x84 build/DM30004-2/production/_ext/2027566358/drv_tmr.o

.text.TCPIP_UDP_SourceIPAddressSet
                0x9d02c678       0x84
 .text.TCPIP_UDP_SourceIPAddressSet
                0x9d02c678       0x84 build/DM30004-2/production/_ext/1899562614/udp.o
                0x9d02c678                TCPIP_UDP_SourceIPAddressSet

.text.DRV_ETHPHY_SMIScanStart
                0x9d02c6fc       0x80
 .text.DRV_ETHPHY_SMIScanStart
                0x9d02c6fc       0x80 build/DM30004-2/production/_ext/2030533247/drv_ethphy.o
                0x9d02c6fc                DRV_ETHPHY_SMIScanStart

.text._DRV_ETHPHY_SetupPhaseNegotiate_SubPhase1
                0x9d02c77c       0x80
 .text._DRV_ETHPHY_SetupPhaseNegotiate_SubPhase1
                0x9d02c77c       0x80 build/DM30004-2/production/_ext/2030533247/drv_ethphy.o

.text.TCPIP_DNS_OAHASH_KeyCopy
                0x9d02c7fc       0x80
 .text.TCPIP_DNS_OAHASH_KeyCopy
                0x9d02c7fc       0x80 build/DM30004-2/production/_ext/1899562614/dns.o

.text.unabto_query_read_uint32
                0x9d02c87c       0x80
 .text.unabto_query_read_uint32
                0x9d02c87c       0x80 build/DM30004-2/production/_ext/1442095083/unabto_query_rw.o
                0x9d02c87c                unabto_query_read_uint32

.text.nabto_init_stream_tcb_state
                0x9d02c8fc       0x80
 .text.nabto_init_stream_tcb_state
                0x9d02c8fc       0x80 build/DM30004-2/production/_ext/1442095083/unabto_stream_window.o
                0x9d02c8fc                nabto_init_stream_tcb_state

.text.unabto_stream_congestion_control_adjust_ssthresh_after_triple_ack
                0x9d02c97c       0x80
 .text.unabto_stream_congestion_control_adjust_ssthresh_after_triple_ack
                0x9d02c97c       0x80 build/DM30004-2/production/_ext/1442095083/unabto_stream_window.o
                0x9d02c97c                unabto_stream_congestion_control_adjust_ssthresh_after_triple_ack

.text.unabto_udp_debug_init
                0x9d02c9fc       0x80
 .text.unabto_udp_debug_init
                0x9d02c9fc       0x80 build/DM30004-2/production/_ext/2107900007/unabto_udp_debug.o
                0x9d02c9fc                unabto_udp_debug_init

.rodata         0x9d02ca80       0x80
 .rodata        0x9d02ca80       0x80 /opt/microchip/xc32/v1.43/bin/bin/../../lib/gcc/pic32mx/4.8.3/../../../../pic32mx/lib/libc.a(doprnt.o)

.text.__fixunsdfdi
                0x9d02cb00       0x80
 .text.__fixunsdfdi
                0x9d02cb00       0x80 /opt/microchip/xc32/v1.43/bin/bin/../../lib/gcc/pic32mx/4.8.3/../../../../pic32mx/lib/libe.a(_fixunsdfdi.o)
                0x9d02cb00                __fixunsdfdi

.text.SYS_PORTS_Initialize
                0x9d02cb80       0x7c
 .text.SYS_PORTS_Initialize
                0x9d02cb80       0x7c build/DM30004-2/production/_ext/540202005/sys_ports_static.o
                0x9d02cb80                SYS_PORTS_Initialize

.text.DRV_ETHPHY_SMIRead
                0x9d02cbfc       0x7c
 .text.DRV_ETHPHY_SMIRead
                0x9d02cbfc       0x7c build/DM30004-2/production/_ext/2030533247/drv_ethphy.o
                0x9d02cbfc                DRV_ETHPHY_SMIRead

.text.DRV_ETHPHY_SMIScanStop
                0x9d02cc78       0x7c
 .text.DRV_ETHPHY_SMIScanStop
                0x9d02cc78       0x7c build/DM30004-2/production/_ext/2030533247/drv_ethphy.o
                0x9d02cc78                DRV_ETHPHY_SMIScanStop

.text._DRV_ETHPHY_SetupPhaseNegotiate_SubPhase5
                0x9d02ccf4       0x7c
 .text._DRV_ETHPHY_SetupPhaseNegotiate_SubPhase5
                0x9d02ccf4       0x7c build/DM30004-2/production/_ext/2030533247/drv_ethphy.o

.text._UDPAllocateEphemeralPort
                0x9d02cd70       0x7c
 .text._UDPAllocateEphemeralPort
                0x9d02cd70       0x7c build/DM30004-2/production/_ext/1899562614/udp.o

.text.TCPIP_UDP_Close
                0x9d02cdec       0x7c
 .text.TCPIP_UDP_Close
                0x9d02cdec       0x7c build/DM30004-2/production/_ext/1899562614/udp.o
                0x9d02cdec                TCPIP_UDP_Close

.text.TCPIP_ARP_Deinitialize
                0x9d02ce68       0x7c
 .text.TCPIP_ARP_Deinitialize
                0x9d02ce68       0x7c build/DM30004-2/production/_ext/1899562614/arp.o
                0x9d02ce68                TCPIP_ARP_Deinitialize

.text.TCPIP_ARP_HandlerRegister
                0x9d02cee4       0x7c
 .text.TCPIP_ARP_HandlerRegister
                0x9d02cee4       0x7c build/DM30004-2/production/_ext/1899562614/arp.o
                0x9d02cee4                TCPIP_ARP_HandlerRegister

.text.TCPIP_Helper_ProtectedSingleListTailAdd
                0x9d02cf60       0x7c
 .text.TCPIP_Helper_ProtectedSingleListTailAdd
                0x9d02cf60       0x7c build/DM30004-2/production/_ext/1899562614/tcpip_helpers.o
                0x9d02cf60                TCPIP_Helper_ProtectedSingleListTailAdd

.rodata         0x9d02cfdc       0x7c
 .rodata        0x9d02cfdc       0x7c build/DM30004-2/production/_ext/1899562614/tcpip_manager.o

.text.unabto_init_default_values
                0x9d02d058       0x7c
 .text.unabto_init_default_values
                0x9d02d058       0x7c build/DM30004-2/production/_ext/1442095083/unabto_common_main.o
                0x9d02d058                unabto_init_default_values

.text.nabto_crypto_create_key_material
                0x9d02d0d4       0x7c
 .text.nabto_crypto_create_key_material
                0x9d02d0d4       0x7c build/DM30004-2/production/_ext/1442095083/unabto_crypto.o
                0x9d02d0d4                nabto_crypto_create_key_material

.text.fptoul    0x9d02d150       0x7c
 .text.fptoul   0x9d02d150       0x7c /opt/microchip/xc32/v1.43/bin/bin/../../lib/gcc/pic32mx/4.8.3/../../../../pic32mx/lib/libm.a(fptoul.o)
                0x9d02d150                __fixunssfsi
                0x9d02d150                fptoul
                0x9d02d150                fptoui

.rodata         0x9d02d1cc       0x78
 .rodata        0x9d02d1cc       0x78 build/DM30004-2/production/_ext/1360937237/app.o

.text.DRV_ETHMAC_PIC32MACConfigGet
                0x9d02d244       0x78
 .text.DRV_ETHMAC_PIC32MACConfigGet
                0x9d02d244       0x78 build/DM30004-2/production/_ext/854379441/drv_ethmac.o
                0x9d02d244                DRV_ETHMAC_PIC32MACConfigGet

.text._DRV_ETHPHY_NegRestartPhaseRead
                0x9d02d2bc       0x78
 .text._DRV_ETHPHY_NegRestartPhaseRead
                0x9d02d2bc       0x78 build/DM30004-2/production/_ext/2030533247/drv_ethphy.o

.text._DRV_ETHPHY_SetupPhaseNegotiate_SubPhase2
                0x9d02d334       0x78
 .text._DRV_ETHPHY_SetupPhaseNegotiate_SubPhase2
                0x9d02d334       0x78 build/DM30004-2/production/_ext/2030533247/drv_ethphy.o

.text._DNS_CleanCacheEntry
                0x9d02d3ac       0x78
 .text._DNS_CleanCacheEntry
                0x9d02d3ac       0x78 build/DM30004-2/production/_ext/1899562614/dns.o

.text.TCPIP_Helper_ProtectedSingleListDeinitialize
                0x9d02d424       0x78
 .text.TCPIP_Helper_ProtectedSingleListDeinitialize
                0x9d02d424       0x78 build/DM30004-2/production/_ext/1899562614/tcpip_helpers.o
                0x9d02d424                TCPIP_Helper_ProtectedSingleListDeinitialize

.text._TCPIP_MacEventCB
                0x9d02d49c       0x78
 .text._TCPIP_MacEventCB
                0x9d02d49c       0x78 build/DM30004-2/production/_ext/1899562614/tcpip_manager.o

.text.TCPIP_PKT_Initialize
                0x9d02d514       0x78
 .text.TCPIP_PKT_Initialize
                0x9d02d514       0x78 build/DM30004-2/production/_ext/1899562614/tcpip_packet.o
                0x9d02d514                TCPIP_PKT_Initialize

.text.nabto_find_connection
                0x9d02d58c       0x78
 .text.nabto_find_connection
                0x9d02d58c       0x78 build/DM30004-2/production/_ext/1442095083/unabto_connection.o
                0x9d02d58c                nabto_find_connection

.text.litodp    0x9d02d604       0x78
 .text.litodp   0x9d02d604       0x78 /opt/microchip/xc32/v1.43/bin/bin/../../lib/gcc/pic32mx/4.8.3/../../../../pic32mx/lib/libm.a(litodp.o)
                0x9d02d604                litodp
                0x9d02d604                __floatsidf

.text.wc_InitSha256
                0x9d02d67c       0x74
 .text.wc_InitSha256
                0x9d02d67c       0x74 build/DM30004-2/production/_ext/458569783/sha256.o
                0x9d02d67c                wc_InitSha256

.text._DRV_ETHPHY_NegCompletePhaseRead1
                0x9d02d6f0       0x74
 .text._DRV_ETHPHY_NegCompletePhaseRead1
                0x9d02d6f0       0x74 build/DM30004-2/production/_ext/2030533247/drv_ethphy.o

.text.DRV_ETHPHY_Open
                0x9d02d764       0x74
 .text.DRV_ETHPHY_Open
                0x9d02d764       0x74 build/DM30004-2/production/_ext/2030533247/drv_ethphy.o
                0x9d02d764                DRV_ETHPHY_Open

.text._DHCPOptionProcessRouter
                0x9d02d7d8       0x74
 .text._DHCPOptionProcessRouter
                0x9d02d7d8       0x74 build/DM30004-2/production/_ext/1899562614/dhcp.o

.text._DHCPOptionProcessSubNet
                0x9d02d84c       0x74
 .text._DHCPOptionProcessSubNet
                0x9d02d84c       0x74 build/DM30004-2/production/_ext/1899562614/dhcp.o

.text.TCPIP_Helper_StringToPowerMode
                0x9d02d8c0       0x74
 .text.TCPIP_Helper_StringToPowerMode
                0x9d02d8c0       0x74 build/DM30004-2/production/_ext/1899562614/tcpip_helpers.o
                0x9d02d8c0                TCPIP_Helper_StringToPowerMode

.text._TCPIPStackAnyNetLinked
                0x9d02d934       0x74
 .text._TCPIPStackAnyNetLinked
                0x9d02d934       0x74 build/DM30004-2/production/_ext/1899562614/tcpip_manager.o
                0x9d02d934                _TCPIPStackAnyNetLinked

.text._TCPIPStackSignalHandlerRegister
                0x9d02d9a8       0x74
 .text._TCPIPStackSignalHandlerRegister
                0x9d02d9a8       0x74 build/DM30004-2/production/_ext/1899562614/tcpip_manager.o
                0x9d02d9a8                _TCPIPStackSignalHandlerRegister

.text.insert_attach_stats_payload
                0x9d02da1c       0x74
 .text.insert_attach_stats_payload
                0x9d02da1c       0x74 build/DM30004-2/production/_ext/1442095083/unabto_attach.o
                0x9d02da1c                insert_attach_stats_payload

.text.nabto_connection_event
                0x9d02da90       0x74
 .text.nabto_connection_event
                0x9d02da90       0x74 build/DM30004-2/production/_ext/1442095083/unabto_connection.o
                0x9d02da90                nabto_connection_event

.text.get_connection_type
                0x9d02db04       0x74
 .text.get_connection_type
                0x9d02db04       0x74 build/DM30004-2/production/_ext/1442095083/unabto_connection.o
                0x9d02db04                get_connection_type

.text.unabto_packet_set_handler
                0x9d02db78       0x74
 .text.unabto_packet_set_handler
                0x9d02db78       0x74 build/DM30004-2/production/_ext/1442095083/unabto_packet.o
                0x9d02db78                unabto_packet_set_handler

.text.insert_stats_payload
                0x9d02dbec       0x74
 .text.insert_stats_payload
                0x9d02dbec       0x74 build/DM30004-2/production/_ext/1442095083/unabto_packet_util.o
                0x9d02dbec                insert_stats_payload

.text.congestion_control_accept_more_data
                0x9d02dc60       0x74
 .text.congestion_control_accept_more_data
                0x9d02dc60       0x74 build/DM30004-2/production/_ext/1442095083/unabto_stream_window.o

.text.nabto_limit_stream_config_syn_ack
                0x9d02dcd4       0x74
 .text.nabto_limit_stream_config_syn_ack
                0x9d02dcd4       0x74 build/DM30004-2/production/_ext/1442095083/unabto_stream_window.o
                0x9d02dcd4                nabto_limit_stream_config_syn_ack

.text.strncpy   0x9d02dd48       0x74
 .text.strncpy  0x9d02dd48       0x74 /opt/microchip/xc32/v1.43/bin/bin/../../lib/gcc/pic32mx/4.8.3/../../../../pic32mx/lib/libc.a(strncpy.o)
                0x9d02dd48                strncpy

.text._EnetPoolFreeDcptList
                0x9d02ddbc       0x70
 .text._EnetPoolFreeDcptList
                0x9d02ddbc       0x70 build/DM30004-2/production/_ext/854379441/drv_ethmac_lib.o

.text._DRV_ETHPHY_LinkStatPhaseRefresh
                0x9d02de2c       0x70
 .text._DRV_ETHPHY_LinkStatPhaseRefresh
                0x9d02de2c       0x70 build/DM30004-2/production/_ext/2030533247/drv_ethphy.o

.text._UDPFreeTxResources
                0x9d02de9c       0x70
 .text._UDPFreeTxResources
                0x9d02de9c       0x70 build/DM30004-2/production/_ext/1899562614/udp.o

.text._UDPClose
                0x9d02df0c       0x70
 .text._UDPClose
                0x9d02df0c       0x70 build/DM30004-2/production/_ext/1899562614/udp.o

.text._TCPIP_HEAP_Delete
                0x9d02df7c       0x70
 .text._TCPIP_HEAP_Delete
                0x9d02df7c       0x70 build/DM30004-2/production/_ext/1899562614/tcpip_heap_internal.o

.text._ARPSetEntry
                0x9d02dfec       0x70
 .text._ARPSetEntry
                0x9d02dfec       0x70 build/DM30004-2/production/_ext/1899562614/arp.o

.text._ARPRemoveEntry
                0x9d02e05c       0x70
 .text._ARPRemoveEntry
                0x9d02e05c       0x70 build/DM30004-2/production/_ext/1899562614/arp.o

.rodata         0x9d02e0cc       0x70
 .rodata        0x9d02e0cc       0x70 build/DM30004-2/production/_ext/1899562614/dhcp.o

.text.unabto_init_context
                0x9d02e13c       0x70
 .text.unabto_init_context
                0x9d02e13c       0x70 build/DM30004-2/production/_ext/1442095083/unabto_common_main.o
                0x9d02e13c                unabto_init_context

.text.insert_capabilities
                0x9d02e1ac       0x70
 .text.insert_capabilities
                0x9d02e1ac       0x70 build/DM30004-2/production/_ext/1442095083/unabto_packet_util.o
                0x9d02e1ac                insert_capabilities

.text.PLIB_ETH_MACGetAddress
                0x9d02e21c       0x70
 .text.PLIB_ETH_MACGetAddress
                0x9d02e21c       0x70 ../../../../../microchip/harmony/v1_11/bin/framework/peripheral/PIC32MX795F512L_peripherals.a(plib_eth_lib.o)
                0x9d02e21c                PLIB_ETH_MACGetAddress

.text._MacRxFreeCallback
                0x9d02e28c       0x6c
 .text._MacRxFreeCallback
                0x9d02e28c       0x6c build/DM30004-2/production/_ext/854379441/drv_ethmac.o

.text.TCPIP_UDP_OpenClientSkt
                0x9d02e2f8       0x6c
 .text.TCPIP_UDP_OpenClientSkt
                0x9d02e2f8       0x6c build/DM30004-2/production/_ext/1899562614/udp.o
                0x9d02e2f8                TCPIP_UDP_OpenClientSkt

.text.TCPIP_UDP_SocketNetSet
                0x9d02e364       0x6c
 .text.TCPIP_UDP_SocketNetSet
                0x9d02e364       0x6c build/DM30004-2/production/_ext/1899562614/udp.o
                0x9d02e364                TCPIP_UDP_SocketNetSet

.text._DHCPCleanup
                0x9d02e3d0       0x6c
 .text._DHCPCleanup
                0x9d02e3d0       0x6c build/DM30004-2/production/_ext/1899562614/dhcp.o

.text._DNSGetData
                0x9d02e43c       0x6c
 .text._DNSGetData
                0x9d02e43c       0x6c build/DM30004-2/production/_ext/1899562614/dns.o

.text._TCPIP_PKT_SocketAlloc
                0x9d02e4a8       0x6c
 .text._TCPIP_PKT_SocketAlloc
                0x9d02e4a8       0x6c build/DM30004-2/production/_ext/1899562614/tcpip_packet.o
                0x9d02e4a8                _TCPIP_PKT_SocketAlloc

.text.send_rendezvous_to_all
                0x9d02e514       0x6c
 .text.send_rendezvous_to_all
                0x9d02e514       0x6c build/DM30004-2/production/_ext/1442095083/unabto_connection.o

.text.nabto_init_socket
                0x9d02e580       0x6c
 .text.nabto_init_socket
                0x9d02e580       0x6c build/DM30004-2/production/_ext/2107900007/unabto_harmony_network.o
                0x9d02e580                nabto_init_socket

.text.unabto_stream_accept
                0x9d02e5ec       0x68
 .text.unabto_stream_accept
                0x9d02e5ec       0x68 build/DM30004-2/production/_ext/1360937237/stream_echo.o
                0x9d02e5ec                unabto_stream_accept

.text.DRV_ETHMAC_PIC32MACParametersGet
                0x9d02e654       0x68
 .text.DRV_ETHMAC_PIC32MACParametersGet
                0x9d02e654       0x68 build/DM30004-2/production/_ext/854379441/drv_ethmac.o
                0x9d02e654                DRV_ETHMAC_PIC32MACParametersGet

.text.TCPIP_ARP_HashEntryDelete
                0x9d02e6bc       0x68
 .text.TCPIP_ARP_HashEntryDelete
                0x9d02e6bc       0x68 build/DM30004-2/production/_ext/1899562614/arp.o
                0x9d02e6bc                TCPIP_ARP_HashEntryDelete

.text._DHCPSetTimeout
                0x9d02e724       0x68
 .text._DHCPSetTimeout
                0x9d02e724       0x68 build/DM30004-2/production/_ext/1899562614/dhcp.o

.text.TCPIP_DNS_RemoveEntry
                0x9d02e78c       0x68
 .text.TCPIP_DNS_RemoveEntry
                0x9d02e78c       0x68 build/DM30004-2/production/_ext/1899562614/dns.o
                0x9d02e78c                TCPIP_DNS_RemoveEntry

.text.TCPIP_STACK_IsBcastAddress
                0x9d02e7f4       0x68
 .text.TCPIP_STACK_IsBcastAddress
                0x9d02e7f4       0x68 build/DM30004-2/production/_ext/1899562614/tcpip_manager.o
                0x9d02e7f4                TCPIP_STACK_IsBcastAddress

.text._TCPIPStackModuleRxInsert
                0x9d02e85c       0x68
 .text._TCPIPStackModuleRxInsert
                0x9d02e85c       0x68 build/DM30004-2/production/_ext/1899562614/tcpip_manager.o
                0x9d02e85c                _TCPIPStackModuleRxInsert

.text.unabto_query_write_uint32
                0x9d02e8c4       0x68
 .text.unabto_query_write_uint32
                0x9d02e8c4       0x68 build/DM30004-2/production/_ext/1442095083/unabto_query_rw.o
                0x9d02e8c4                unabto_query_write_uint32

.text.unabto_stream_congestion_control_init
                0x9d02e92c       0x68
 .text.unabto_stream_congestion_control_init
                0x9d02e92c       0x68 build/DM30004-2/production/_ext/1442095083/unabto_stream_window.o
                0x9d02e92c                unabto_stream_congestion_control_init

.text._sprintf_cdnopsuxX
                0x9d02e994       0x68
 .text._sprintf_cdnopsuxX
                0x9d02e994       0x68 /opt/microchip/xc32/v1.43/bin/bin/../../lib/gcc/pic32mx/4.8.3/../../../../pic32mx/lib/libc.a(sprintf_cdnopsuxX.eo)
                0x9d02e994                _sprintf_cdnopsuxX
                0x9d02e994                _sprintf_cdnopuxX

.rodata         0x9d02e9fc       0x64
 .rodata        0x9d02e9fc       0x64 build/DM30004-2/production/_ext/1360937237/stream_echo.o

.text.DRV_ETHPHY_SMIScanStatusGet
                0x9d02ea60       0x64
 .text.DRV_ETHPHY_SMIScanStatusGet
                0x9d02ea60       0x64 build/DM30004-2/production/_ext/2030533247/drv_ethphy.o
                0x9d02ea60                DRV_ETHPHY_SMIScanStatusGet

.text.DRV_TMR_Start
                0x9d02eac4       0x64
 .text.DRV_TMR_Start
                0x9d02eac4       0x64 build/DM30004-2/production/_ext/2027566358/drv_tmr.o
                0x9d02eac4                DRV_TMR_Start

.text.TCPIP_IPV4_Cleanup
                0x9d02eb28       0x64
 .text.TCPIP_IPV4_Cleanup
                0x9d02eb28       0x64 build/DM30004-2/production/_ext/1899562614/ipv4.o

.text.TCPIP_UDP_SignalHandlerRegister
                0x9d02eb8c       0x64
 .text.TCPIP_UDP_SignalHandlerRegister
                0x9d02eb8c       0x64 build/DM30004-2/production/_ext/1899562614/udp.o
                0x9d02eb8c                TCPIP_UDP_SignalHandlerRegister

.text.TCPIP_DHCP_Deinitialize
                0x9d02ebf0       0x64
 .text.TCPIP_DHCP_Deinitialize
                0x9d02ebf0       0x64 build/DM30004-2/production/_ext/1899562614/dhcp.o
                0x9d02ebf0                TCPIP_DHCP_Deinitialize

.text.TCPIP_STACK_AddressServiceEvent
                0x9d02ec54       0x64
 .text.TCPIP_STACK_AddressServiceEvent
                0x9d02ec54       0x64 build/DM30004-2/production/_ext/1899562614/tcpip_manager.o
                0x9d02ec54                TCPIP_STACK_AddressServiceEvent

.text.send_controller_invite
                0x9d02ecb8       0x64
 .text.send_controller_invite
                0x9d02ecb8       0x64 build/DM30004-2/production/_ext/1442095083/unabto_attach.o

.text.verify_connection_encryption
                0x9d02ed1c       0x64
 .text.verify_connection_encryption
                0x9d02ed1c       0x64 build/DM30004-2/production/_ext/1442095083/unabto_connection.o
                0x9d02ed1c                verify_connection_encryption

.text.unabto_find_payload
                0x9d02ed80       0x64
 .text.unabto_find_payload
                0x9d02ed80       0x64 build/DM30004-2/production/_ext/1442095083/unabto_packet_util.o
                0x9d02ed80                unabto_find_payload

.text.memmove   0x9d02ede4       0x64
 .text.memmove  0x9d02ede4       0x64 /opt/microchip/xc32/v1.43/bin/bin/../../lib/gcc/pic32mx/4.8.3/../../../../pic32mx/lib/libc.a(memmove.o)
                0x9d02ede4                memmove

.text._DRV_ETHPHY_ClientOpReset
                0x9d02ee48       0x60
 .text._DRV_ETHPHY_ClientOpReset
                0x9d02ee48       0x60 build/DM30004-2/production/_ext/2030533247/drv_ethphy.o

.text._DRV_ETHPHY_ClientOpLinkStat
                0x9d02eea8       0x60
 .text._DRV_ETHPHY_ClientOpLinkStat
                0x9d02eea8       0x60 build/DM30004-2/production/_ext/2030533247/drv_ethphy.o

.text._DRV_ETHPHY_ClientOpNegResult
                0x9d02ef08       0x60
 .text._DRV_ETHPHY_ClientOpNegResult
                0x9d02ef08       0x60 build/DM30004-2/production/_ext/2030533247/drv_ethphy.o

.text._DRV_ETHPHY_ClientOpNegComplete
                0x9d02ef68       0x60
 .text._DRV_ETHPHY_ClientOpNegComplete
                0x9d02ef68       0x60 build/DM30004-2/production/_ext/2030533247/drv_ethphy.o

.text._DRV_ETHPHY_ClientOpNegRestart
                0x9d02efc8       0x60
 .text._DRV_ETHPHY_ClientOpNegRestart
                0x9d02efc8       0x60 build/DM30004-2/production/_ext/2030533247/drv_ethphy.o

.text._DRV_ETHPHY_SetupPhaseNegotiate
                0x9d02f028       0x60
 .text._DRV_ETHPHY_SetupPhaseNegotiate
                0x9d02f028       0x60 build/DM30004-2/production/_ext/2030533247/drv_ethphy.o

.text.IPv4RegisterFilter
                0x9d02f088       0x60
 .text.IPv4RegisterFilter
                0x9d02f088       0x60 build/DM30004-2/production/_ext/1899562614/ipv4.o
                0x9d02f088                IPv4RegisterFilter

.text.TCPIP_UDP_GetIsReady
                0x9d02f0e8       0x60
 .text.TCPIP_UDP_GetIsReady
                0x9d02f0e8       0x60 build/DM30004-2/production/_ext/1899562614/udp.o
                0x9d02f0e8                TCPIP_UDP_GetIsReady

.text._DHCPOptionProcessMsgType
                0x9d02f148       0x60
 .text._DHCPOptionProcessMsgType
                0x9d02f148       0x60 build/DM30004-2/production/_ext/1899562614/dhcp.o

.text._DNSClientCleanup
                0x9d02f1a8       0x60
 .text._DNSClientCleanup
                0x9d02f1a8       0x60 build/DM30004-2/production/_ext/1899562614/dns.o

.text.TCPIP_OAHASH_EntriesRemoveAll
                0x9d02f208       0x60
 .text.TCPIP_OAHASH_EntriesRemoveAll
                0x9d02f208       0x60 build/DM30004-2/production/_ext/1899562614/oahash.o
                0x9d02f208                TCPIP_OAHASH_EntriesRemoveAll

.rodata         0x9d02f268       0x60
 .rodata        0x9d02f268       0x60 build/DM30004-2/production/_ext/1899562614/tcpip_helpers.o

.text.fix_for_broken_routers
                0x9d02f2c8       0x60
 .text.fix_for_broken_routers
                0x9d02f2c8       0x60 build/DM30004-2/production/_ext/1442095083/unabto_attach.o
                0x9d02f2c8                fix_for_broken_routers

.text.unabto_crypto_max_data
                0x9d02f328       0x60
 .text.unabto_crypto_max_data
                0x9d02f328       0x60 build/DM30004-2/production/_ext/1442095083/unabto_crypto.o
                0x9d02f328                unabto_crypto_max_data

.text.unabto_payload_read_ep
                0x9d02f388       0x60
 .text.unabto_payload_read_ep
                0x9d02f388       0x60 build/DM30004-2/production/_ext/1442095083/unabto_packet_util.o
                0x9d02f388                unabto_payload_read_ep

.text.sitofp    0x9d02f3e8       0x60
 .text.sitofp   0x9d02f3e8       0x60 /opt/microchip/xc32/v1.43/bin/bin/../../lib/gcc/pic32mx/4.8.3/../../../../pic32mx/lib/libm.a(sitofp.o)
                0x9d02f3e8                __floatsisf
                0x9d02f3e8                sitofp
                0x9d02f3e8                litofp

.text._DRV_ETHPHY_ClientOpSetup
                0x9d02f448       0x5c
 .text._DRV_ETHPHY_ClientOpSetup
                0x9d02f448       0x5c build/DM30004-2/production/_ext/2030533247/drv_ethphy.o

.text.DRV_ETHPHY_LinkStatusGet
                0x9d02f4a4       0x5c
 .text.DRV_ETHPHY_LinkStatusGet
                0x9d02f4a4       0x5c build/DM30004-2/production/_ext/2030533247/drv_ethphy.o
                0x9d02f4a4                DRV_ETHPHY_LinkStatusGet

.text.DRV_ETHPHY_NegotiationResultGet
                0x9d02f500       0x5c
 .text.DRV_ETHPHY_NegotiationResultGet
                0x9d02f500       0x5c build/DM30004-2/production/_ext/2030533247/drv_ethphy.o
                0x9d02f500                DRV_ETHPHY_NegotiationResultGet

.text._DRV_ETHPHY_ClientOpSmiRead
                0x9d02f55c       0x5c
 .text._DRV_ETHPHY_ClientOpSmiRead
                0x9d02f55c       0x5c build/DM30004-2/production/_ext/2030533247/drv_ethphy.o

.text._DNS_NetIsValid
                0x9d02f5b8       0x5c
 .text._DNS_NetIsValid
                0x9d02f5b8       0x5c build/DM30004-2/production/_ext/1899562614/dns.o

.text.fnv_32_hash
                0x9d02f614       0x5c
 .text.fnv_32_hash
                0x9d02f614       0x5c build/DM30004-2/production/_ext/1899562614/hash_fnv.o
                0x9d02f614                fnv_32_hash

.text.nabto_write_con
                0x9d02f670       0x5c
 .text.nabto_write_con
                0x9d02f670       0x5c build/DM30004-2/production/_ext/1442095083/unabto_connection.o
                0x9d02f670                nabto_write_con

.text.unabto_packet_find_handler
                0x9d02f6cc       0x5c
 .text.unabto_packet_find_handler
                0x9d02f6cc       0x5c build/DM30004-2/production/_ext/1442095083/unabto_packet.o
                0x9d02f6cc                unabto_packet_find_handler

.text.vsnprintf
                0x9d02f728       0x5c
 .text.vsnprintf
                0x9d02f728       0x5c /opt/microchip/xc32/v1.43/bin/bin/../../lib/gcc/pic32mx/4.8.3/../../../../pic32mx/lib/libc.a(vsnprintf.o)
                0x9d02f728                vsnprintf

.text.TCPIP_STACK_Init
                0x9d02f784       0x58
 .text.TCPIP_STACK_Init
                0x9d02f784       0x58 build/DM30004-2/production/_ext/1280997252/system_init.o
                0x9d02f784                TCPIP_STACK_Init

.text.DRV_ETHMAC_PIC32MACLinkCheck
                0x9d02f7dc       0x58
 .text.DRV_ETHMAC_PIC32MACLinkCheck
                0x9d02f7dc       0x58 build/DM30004-2/production/_ext/854379441/drv_ethmac.o
                0x9d02f7dc                DRV_ETHMAC_PIC32MACLinkCheck

.text._MacTxDiscardQueues
                0x9d02f834       0x58
 .text._MacTxDiscardQueues
                0x9d02f834       0x58 build/DM30004-2/production/_ext/854379441/drv_ethmac.o

.text.DRV_TMR_Open
                0x9d02f88c       0x58
 .text.DRV_TMR_Open
                0x9d02f88c       0x58 build/DM30004-2/production/_ext/2027566358/drv_tmr.o
                0x9d02f88c                DRV_TMR_Open

.text.SYS_DEVCON_SystemUnlock
                0x9d02f8e4       0x58
 .text.SYS_DEVCON_SystemUnlock
                0x9d02f8e4       0x58 build/DM30004-2/production/_ext/1322803601/sys_devcon.o
                0x9d02f8e4                SYS_DEVCON_SystemUnlock

.text.SYS_INT_SourceDisable
                0x9d02f93c       0x58
 .text.SYS_INT_SourceDisable
                0x9d02f93c       0x58 build/DM30004-2/production/_ext/1204230505/sys_int_pic32.o
                0x9d02f93c                SYS_INT_SourceDisable

.text.TCPIP_IPV4_CheckPktTx
                0x9d02f994       0x58
 .text.TCPIP_IPV4_CheckPktTx
                0x9d02f994       0x58 build/DM30004-2/production/_ext/1899562614/ipv4.o

.text._DHCPOptionProcessLease
                0x9d02f9ec       0x58
 .text._DHCPOptionProcessLease
                0x9d02f9ec       0x58 build/DM30004-2/production/_ext/1899562614/dhcp.o

.text._DHCPOptionProcessRenewT
                0x9d02fa44       0x58
 .text._DHCPOptionProcessRenewT
                0x9d02fa44       0x58 build/DM30004-2/production/_ext/1899562614/dhcp.o

.text._DHCPOptionProcessRebindT
                0x9d02fa9c       0x58
 .text._DHCPOptionProcessRebindT
                0x9d02fa9c       0x58 build/DM30004-2/production/_ext/1899562614/dhcp.o

.text.TCPIP_Helper_ProtectedSingleListLock
                0x9d02faf4       0x58
 .text.TCPIP_Helper_ProtectedSingleListLock
                0x9d02faf4       0x58 build/DM30004-2/production/_ext/1899562614/tcpip_helpers.o
                0x9d02faf4                TCPIP_Helper_ProtectedSingleListLock

.text.TCPIP_STACK_NetByAddress
                0x9d02fb4c       0x58
 .text.TCPIP_STACK_NetByAddress
                0x9d02fb4c       0x58 build/DM30004-2/production/_ext/1899562614/tcpip_manager.o
                0x9d02fb4c                TCPIP_STACK_NetByAddress

.text.TCPIP_Notification_Remove
                0x9d02fba4       0x58
 .text.TCPIP_Notification_Remove
                0x9d02fba4       0x58 build/DM30004-2/production/_ext/1899562614/tcpip_notify.o
                0x9d02fba4                TCPIP_Notification_Remove

.text.send_and_encrypt_packet
                0x9d02fbfc       0x58
 .text.send_and_encrypt_packet
                0x9d02fbfc       0x58 build/DM30004-2/production/_ext/1442095083/unabto_packet.o
                0x9d02fbfc                send_and_encrypt_packet

.text.nabto_dns_is_resolved
                0x9d02fc54       0x58
 .text.nabto_dns_is_resolved
                0x9d02fc54       0x58 build/DM30004-2/production/_ext/2107900007/unabto_harmony_dns.o
                0x9d02fc54                nabto_dns_is_resolved

.text.nabto_close_socket
                0x9d02fcac       0x58
 .text.nabto_close_socket
                0x9d02fcac       0x58 build/DM30004-2/production/_ext/2107900007/unabto_harmony_network.o
                0x9d02fcac                nabto_close_socket

.text.main_entry
                0x9d02fd04       0x54
 .text.main_entry
                0x9d02fd04       0x54 /opt/microchip/xc32/v1.43/bin/bin/../../lib/gcc/pic32mx/4.8.3/../../../../pic32mx/lib/./proc/32MX795F512L/crt0_mips32r2.o
                0x9d02fd38                __crt0_exit

.text.CRYPT_HMAC_SetKey
                0x9d02fd58       0x54
 .text.CRYPT_HMAC_SetKey
                0x9d02fd58       0x54 build/DM30004-2/production/_ext/458569783/crypto.o
                0x9d02fd58                CRYPT_HMAC_SetKey

.text.DRV_ETHMAC_PIC32MACOpen
                0x9d02fdac       0x54
 .text.DRV_ETHMAC_PIC32MACOpen
                0x9d02fdac       0x54 build/DM30004-2/production/_ext/854379441/drv_ethmac.o
                0x9d02fdac                DRV_ETHMAC_PIC32MACOpen

.text._DRV_ETHMAC_LinkStateStartLink
                0x9d02fe00       0x54
 .text._DRV_ETHMAC_LinkStateStartLink
                0x9d02fe00       0x54 build/DM30004-2/production/_ext/854379441/drv_ethmac.o

.text._EnetDescriptorsCount
                0x9d02fe54       0x54
 .text._EnetDescriptorsCount
                0x9d02fe54       0x54 build/DM30004-2/production/_ext/854379441/drv_ethmac_lib.o

.text.DRV_ETHPHY_Initialize
                0x9d02fea8       0x54
 .text.DRV_ETHPHY_Initialize
                0x9d02fea8       0x54 build/DM30004-2/production/_ext/2030533247/drv_ethphy.o
                0x9d02fea8                DRV_ETHPHY_Initialize

.text.SYS_TMR_ObjectDelete
                0x9d02fefc       0x54
 .text.SYS_TMR_ObjectDelete
                0x9d02fefc       0x54 build/DM30004-2/production/_ext/62100799/sys_tmr.o
                0x9d02fefc                SYS_TMR_ObjectDelete

.text.unabto_connection_set_future_stamp
                0x9d02ff50       0x54
 .text.unabto_connection_set_future_stamp
                0x9d02ff50       0x54 build/DM30004-2/production/_ext/1442095083/unabto_connection.o

.text.nabto_rd_payload
                0x9d02ffa4       0x54
 .text.nabto_rd_payload
                0x9d02ffa4       0x54 build/DM30004-2/production/_ext/1442095083/unabto_packet_util.o
                0x9d02ffa4                nabto_rd_payload

.text.unabto_stream_stats_write_u32
                0x9d02fff8       0x54
 .text.unabto_stream_stats_write_u32
                0x9d02fff8       0x54 build/DM30004-2/production/_ext/1442095083/unabto_stream_event.o
                0x9d02fff8                unabto_stream_stats_write_u32

.text.wc_InitSha
                0x9d03004c       0x50
 .text.wc_InitSha
                0x9d03004c       0x50 build/DM30004-2/production/_ext/458569783/sha.o
                0x9d03004c                wc_InitSha

.text.CRYPT_AES_CBC_Encrypt
                0x9d03009c       0x50
 .text.CRYPT_AES_CBC_Encrypt
                0x9d03009c       0x50 build/DM30004-2/production/_ext/458569783/crypto.o
                0x9d03009c                CRYPT_AES_CBC_Encrypt

.text.CRYPT_AES_CBC_Decrypt
                0x9d0300ec       0x50
 .text.CRYPT_AES_CBC_Decrypt
                0x9d0300ec       0x50 build/DM30004-2/production/_ext/458569783/crypto.o
                0x9d0300ec                CRYPT_AES_CBC_Decrypt

.text._XtlEventsTcp2Eth
                0x9d03013c       0x50
 .text._XtlEventsTcp2Eth
                0x9d03013c       0x50 build/DM30004-2/production/_ext/854379441/drv_ethmac.o

.text.DRV_ETHPHY_HWConfigFlagsGet
                0x9d03018c       0x50
 .text.DRV_ETHPHY_HWConfigFlagsGet
                0x9d03018c       0x50 build/DM30004-2/production/_ext/2030533247/drv_ethphy.o
                0x9d03018c                DRV_ETHPHY_HWConfigFlagsGet

.text._DRV_ETHPHY_NegResultPhase_ANLPAD
                0x9d0301dc       0x50
 .text._DRV_ETHPHY_NegResultPhase_ANLPAD
                0x9d0301dc       0x50 build/DM30004-2/production/_ext/2030533247/drv_ethphy.o

.text._DRV_ETHPHY_NegResultPhase_ANEXP
                0x9d03022c       0x50
 .text._DRV_ETHPHY_NegResultPhase_ANEXP
                0x9d03022c       0x50 build/DM30004-2/production/_ext/2030533247/drv_ethphy.o

.text._DHCPOptionWriteParamRequest
                0x9d03027c       0x50
 .text._DHCPOptionWriteParamRequest
                0x9d03027c       0x50 build/DM30004-2/production/_ext/1899562614/dhcp.o

.text._DHCPOptionProcessSrvIdent
                0x9d0302cc       0x50
 .text._DHCPOptionProcessSrvIdent
                0x9d0302cc       0x50 build/DM30004-2/production/_ext/1899562614/dhcp.o

.text.TCPIP_DNS_OAHASH_KeyHash
                0x9d03031c       0x50
 .text.TCPIP_DNS_OAHASH_KeyHash
                0x9d03031c       0x50 build/DM30004-2/production/_ext/1899562614/dns.o

.text._TCPIPStackModuleSignalGet
                0x9d03036c       0x50
 .text._TCPIPStackModuleSignalGet
                0x9d03036c       0x50 build/DM30004-2/production/_ext/1899562614/tcpip_manager.o
                0x9d03036c                _TCPIPStackModuleSignalGet

.text.TCPIP_Notification_Add
                0x9d0303bc       0x50
 .text.TCPIP_Notification_Add
                0x9d0303bc       0x50 build/DM30004-2/production/_ext/1899562614/tcpip_notify.o
                0x9d0303bc                TCPIP_Notification_Add

.text._TCPIP_PKT_PacketAcknowledge
                0x9d03040c       0x50
 .text._TCPIP_PKT_PacketAcknowledge
                0x9d03040c       0x50 build/DM30004-2/production/_ext/1899562614/tcpip_packet.o
                0x9d03040c                _TCPIP_PKT_PacketAcknowledge

.text.unabto_tick
                0x9d03045c       0x50
 .text.unabto_tick
                0x9d03045c       0x50 build/DM30004-2/production/_ext/1442095083/unabto_common_main.o
                0x9d03045c                unabto_tick

.text.send_to_basestation
                0x9d0304ac       0x50
 .text.send_to_basestation
                0x9d0304ac       0x50 build/DM30004-2/production/_ext/1442095083/unabto_packet.o
                0x9d0304ac                send_to_basestation

.text.unabto_payload_read_crypto
                0x9d0304fc       0x50
 .text.unabto_payload_read_crypto
                0x9d0304fc       0x50 build/DM30004-2/production/_ext/1442095083/unabto_packet_util.o
                0x9d0304fc                unabto_payload_read_crypto

.text.unabto_stream_init
                0x9d03054c       0x50
 .text.unabto_stream_init
                0x9d03054c       0x50 build/DM30004-2/production/_ext/1442095083/unabto_stream_event.o
                0x9d03054c                unabto_stream_init

.text.send_rst  0x9d03059c       0x50
 .text.send_rst
                0x9d03059c       0x50 build/DM30004-2/production/_ext/1442095083/unabto_stream_window.o

.text.sbrk      0x9d0305ec       0x50
 .text.sbrk     0x9d0305ec       0x50 /opt/microchip/xc32/v1.43/bin/bin/../../lib/gcc/pic32mx/4.8.3/../../../../pic32mx/lib/libpic32.a(sbrk.o)
                0x9d0305ec                sbrk

.text.SYS_CLK_SecondaryOscillatorEnable
                0x9d03063c       0x4c
 .text.SYS_CLK_SecondaryOscillatorEnable
                0x9d03063c       0x4c build/DM30004-2/production/_ext/2025569787/sys_clk_static.o
                0x9d03063c                SYS_CLK_SecondaryOscillatorEnable

.text._MACTxPacketAckCallback
                0x9d030688       0x4c
 .text._MACTxPacketAckCallback
                0x9d030688       0x4c build/DM30004-2/production/_ext/854379441/drv_ethmac.o

.text.DRV_ETHPHY_Reset
                0x9d0306d4       0x4c
 .text.DRV_ETHPHY_Reset
                0x9d0306d4       0x4c build/DM30004-2/production/_ext/2030533247/drv_ethphy.o
                0x9d0306d4                DRV_ETHPHY_Reset

.text.DRV_ETHPHY_NegotiationIsComplete
                0x9d030720       0x4c
 .text.DRV_ETHPHY_NegotiationIsComplete
                0x9d030720       0x4c build/DM30004-2/production/_ext/2030533247/drv_ethphy.o
                0x9d030720                DRV_ETHPHY_NegotiationIsComplete

.text._DRV_PHY_NegCompleteSetOperResult
                0x9d03076c       0x4c
 .text._DRV_PHY_NegCompleteSetOperResult
                0x9d03076c       0x4c build/DM30004-2/production/_ext/2030533247/drv_ethphy.o

.text._DRV_ETHPHY_SetupPhaseNegotiate_SubPhase4
                0x9d0307b8       0x4c
 .text._DRV_ETHPHY_SetupPhaseNegotiate_SubPhase4
                0x9d0307b8       0x4c build/DM30004-2/production/_ext/2030533247/drv_ethphy.o

.text.SYS_TMR_TickCountGetLong
                0x9d030804       0x4c
 .text.SYS_TMR_TickCountGetLong
                0x9d030804       0x4c build/DM30004-2/production/_ext/62100799/sys_tmr.o
                0x9d030804                SYS_TMR_TickCountGetLong

.text.TCPIP_UDP_Discard
                0x9d030850       0x4c
 .text.TCPIP_UDP_Discard
                0x9d030850       0x4c build/DM30004-2/production/_ext/1899562614/udp.o
                0x9d030850                TCPIP_UDP_Discard

.text._TCPIP_HEAP_Calloc
                0x9d03089c       0x4c
 .text._TCPIP_HEAP_Calloc
                0x9d03089c       0x4c build/DM30004-2/production/_ext/1899562614/tcpip_heap_internal.o

.text._ARPRemoveCacheEntries
                0x9d0308e8       0x4c
 .text._ARPRemoveCacheEntries
                0x9d0308e8       0x4c build/DM30004-2/production/_ext/1899562614/arp.o

.text.TCPIP_STACK_DNSServiceCanStart
                0x9d030934       0x4c
 .text.TCPIP_STACK_DNSServiceCanStart
                0x9d030934       0x4c build/DM30004-2/production/_ext/1899562614/tcpip_manager.o
                0x9d030934                TCPIP_STACK_DNSServiceCanStart

.text.TCPIP_Notification_RemoveAll
                0x9d030980       0x4c
 .text.TCPIP_Notification_RemoveAll
                0x9d030980       0x4c build/DM30004-2/production/_ext/1899562614/tcpip_notify.o
                0x9d030980                TCPIP_Notification_RemoveAll

.text.statistics_time_event
                0x9d0309cc       0x4c
 .text.statistics_time_event
                0x9d0309cc       0x4c build/DM30004-2/production/_ext/1442095083/unabto_connection.o
                0x9d0309cc                statistics_time_event

.text.send_and_encrypt_packet_con
                0x9d030a18       0x4c
 .text.send_and_encrypt_packet_con
                0x9d030a18       0x4c build/DM30004-2/production/_ext/1442095083/unabto_packet.o
                0x9d030a18                send_and_encrypt_packet_con

.text.stream_reset
                0x9d030a64       0x4c
 .text.stream_reset
                0x9d030a64       0x4c build/DM30004-2/production/_ext/1442095083/unabto_stream_event.o
                0x9d030a64                stream_reset

.text.nabto_stream_tcb_release
                0x9d030ab0       0x4c
 .text.nabto_stream_tcb_release
                0x9d030ab0       0x4c build/DM30004-2/production/_ext/1442095083/unabto_stream_window.o
                0x9d030ab0                nabto_stream_tcb_release

.text           0x9d030afc       0x4c
 .text          0x9d030afc       0x4c /opt/microchip/xc32/v1.43/bin/bin/../../lib/gcc/pic32mx/4.8.3/libgcc.a(floatunsisf.o)
                0x9d030afc                __floatunsisf

.text.calloc    0x9d030b48       0x4c
 .text.calloc   0x9d030b48       0x4c /opt/microchip/xc32/v1.43/bin/bin/../../lib/gcc/pic32mx/4.8.3/../../../../pic32mx/lib/libc.a(calloc.o)
                0x9d030b48                calloc

.text.SYS_CLK_Initialize
                0x9d030b94       0x48
 .text.SYS_CLK_Initialize
                0x9d030b94       0x48 build/DM30004-2/production/_ext/2025569787/sys_clk_static.o
                0x9d030b94                SYS_CLK_Initialize

.text.Hash_DRBG_Uninstantiate
                0x9d030bdc       0x48
 .text.Hash_DRBG_Uninstantiate
                0x9d030bdc       0x48 build/DM30004-2/production/_ext/458569783/random.o

.text.DRV_ETHPHY_Tasks
                0x9d030c24       0x48
 .text.DRV_ETHPHY_Tasks
                0x9d030c24       0x48 build/DM30004-2/production/_ext/2030533247/drv_ethphy.o
                0x9d030c24                DRV_ETHPHY_Tasks

.text.DRV_ETHPHY_RestartNegotiation
                0x9d030c6c       0x48
 .text.DRV_ETHPHY_RestartNegotiation
                0x9d030c6c       0x48 build/DM30004-2/production/_ext/2030533247/drv_ethphy.o
                0x9d030c6c                DRV_ETHPHY_RestartNegotiation

.text._DRV_ETHPHY_NegRestartPhaseWrite
                0x9d030cb4       0x48
 .text._DRV_ETHPHY_NegRestartPhaseWrite
                0x9d030cb4       0x48 build/DM30004-2/production/_ext/2030533247/drv_ethphy.o

.text._DRV_ETHPHY_ClientOpSmiWrite
                0x9d030cfc       0x48
 .text._DRV_ETHPHY_ClientOpSmiWrite
                0x9d030cfc       0x48 build/DM30004-2/production/_ext/2030533247/drv_ethphy.o

.text.DRV_TMR_Close
                0x9d030d44       0x48
 .text.DRV_TMR_Close
                0x9d030d44       0x48 build/DM30004-2/production/_ext/2027566358/drv_tmr.o
                0x9d030d44                DRV_TMR_Close

.text.SYS_DEVCON_SystemLock
                0x9d030d8c       0x48
 .text.SYS_DEVCON_SystemLock
                0x9d030d8c       0x48 build/DM30004-2/production/_ext/1322803601/sys_devcon.o
                0x9d030d8c                SYS_DEVCON_SystemLock

.text._UDPIsAvailablePort
                0x9d030dd4       0x48
 .text._UDPIsAvailablePort
                0x9d030dd4       0x48 build/DM30004-2/production/_ext/1899562614/udp.o

.text.TCPIP_UDP_DestinationPortSet
                0x9d030e1c       0x48
 .text.TCPIP_UDP_DestinationPortSet
                0x9d030e1c       0x48 build/DM30004-2/production/_ext/1899562614/udp.o
                0x9d030e1c                TCPIP_UDP_DestinationPortSet

.text.TCPIP_HEAP_Create
                0x9d030e64       0x48
 .text.TCPIP_HEAP_Create
                0x9d030e64       0x48 build/DM30004-2/production/_ext/1899562614/tcpip_heap_alloc.o
                0x9d030e64                TCPIP_HEAP_Create

.text.TCPIP_ARP_HandlerDeRegister
                0x9d030eac       0x48
 .text.TCPIP_ARP_HandlerDeRegister
                0x9d030eac       0x48 build/DM30004-2/production/_ext/1899562614/arp.o
                0x9d030eac                TCPIP_ARP_HandlerDeRegister

.text._DHCPOptionWriteMsgType
                0x9d030ef4       0x48
 .text._DHCPOptionWriteMsgType
                0x9d030ef4       0x48 build/DM30004-2/production/_ext/1899562614/dhcp.o

.text.TCPIP_Helper_SingleListAppend
                0x9d030f3c       0x48
 .text.TCPIP_Helper_SingleListAppend
                0x9d030f3c       0x48 build/DM30004-2/production/_ext/1899562614/tcpip_helpers.o
                0x9d030f3c                TCPIP_Helper_SingleListAppend

.text.TCPIP_STACK_IPAddToNet
                0x9d030f84       0x48
 .text.TCPIP_STACK_IPAddToNet
                0x9d030f84       0x48 build/DM30004-2/production/_ext/1899562614/tcpip_manager.o
                0x9d030f84                TCPIP_STACK_IPAddToNet

.rodata         0x9d030fcc       0x48
 .rodata        0x9d030fcc       0x48 build/DM30004-2/production/_ext/1442095083/unabto_packet_util.o

.text._bootstrap_exception_handler
                0x9d031014       0x48
 .text._bootstrap_exception_handler
                0x9d031014       0x48 /opt/microchip/xc32/v1.43/bin/bin/../../lib/gcc/pic32mx/4.8.3/../../../../pic32mx/lib/libpic32.a(default-bootstrap-exception-handler.o)
                0x9d031014                _bootstrap_exception_handler

.vector_default
                0x9d03105c       0x48
 .vector_default
                0x9d03105c       0x48 /opt/microchip/xc32/v1.43/bin/bin/../../lib/gcc/pic32mx/4.8.3/../../../../pic32mx/lib/libpic32.a(defaultinterrupt.o)
                0x9d03105c                _DefaultInterrupt

.text.SYS_Tasks
                0x9d0310a4       0x44
 .text.SYS_Tasks
                0x9d0310a4       0x44 build/DM30004-2/production/_ext/1280997252/system_tasks.o
                0x9d0310a4                SYS_Tasks

.text.wc_AesSetKey
                0x9d0310e8       0x44
 .text.wc_AesSetKey
                0x9d0310e8       0x44 build/DM30004-2/production/_ext/458569783/aes.o
                0x9d0310e8                wc_AesSetKey

.text.CRYPT_AES_KeySet
                0x9d03112c       0x44
 .text.CRYPT_AES_KeySet
                0x9d03112c       0x44 build/DM30004-2/production/_ext/458569783/crypto.o
                0x9d03112c                CRYPT_AES_KeySet

.text.Ipv4DeRegisterFilter
                0x9d031170       0x44
 .text.Ipv4DeRegisterFilter
                0x9d031170       0x44 build/DM30004-2/production/_ext/1899562614/ipv4.o
                0x9d031170                Ipv4DeRegisterFilter

.text.TCPIP_UDP_TxPointerGet
                0x9d0311b4       0x44
 .text.TCPIP_UDP_TxPointerGet
                0x9d0311b4       0x44 build/DM30004-2/production/_ext/1899562614/udp.o
                0x9d0311b4                TCPIP_UDP_TxPointerGet

.text._SwapARPPacket
                0x9d0311f8       0x44
 .text._SwapARPPacket
                0x9d0311f8       0x44 build/DM30004-2/production/_ext/1899562614/arp.o

.text.TCPIP_DNS_ClientDeinitialize
                0x9d03123c       0x44
 .text.TCPIP_DNS_ClientDeinitialize
                0x9d03123c       0x44 build/DM30004-2/production/_ext/1899562614/dns.o
                0x9d03123c                TCPIP_DNS_ClientDeinitialize

.text.TCPIP_Helper_ProtectedSingleListInitialize
                0x9d031280       0x44
 .text.TCPIP_Helper_ProtectedSingleListInitialize
                0x9d031280       0x44 build/DM30004-2/production/_ext/1899562614/tcpip_helpers.o
                0x9d031280                TCPIP_Helper_ProtectedSingleListInitialize

.text._TCPIP_STACK_TickHandler
                0x9d0312c4       0x44
 .text._TCPIP_STACK_TickHandler
                0x9d0312c4       0x44 build/DM30004-2/production/_ext/1899562614/tcpip_manager.o

.text.TCPIP_STACK_NetIsBcastAddress
                0x9d031308       0x44
 .text.TCPIP_STACK_NetIsBcastAddress
                0x9d031308       0x44 build/DM30004-2/production/_ext/1899562614/tcpip_manager.o
                0x9d031308                TCPIP_STACK_NetIsBcastAddress

.text.TCPIP_STACK_NetAddressMac
                0x9d03134c       0x44
 .text.TCPIP_STACK_NetAddressMac
                0x9d03134c       0x44 build/DM30004-2/production/_ext/1899562614/tcpip_manager.o
                0x9d03134c                TCPIP_STACK_NetAddressMac

.text.nabto_connect_event_from_gsp
                0x9d031390       0x44
 .text.nabto_connect_event_from_gsp
                0x9d031390       0x44 build/DM30004-2/production/_ext/1442095083/unabto_connection.o
                0x9d031390                nabto_connect_event_from_gsp

.text.unabto_payload_read_typed_buffer
                0x9d0313d4       0x44
 .text.unabto_payload_read_typed_buffer
                0x9d0313d4       0x44 build/DM30004-2/production/_ext/1442095083/unabto_packet_util.o
                0x9d0313d4                unabto_payload_read_typed_buffer

.text.unabto_stream_stats_write_u16
                0x9d031418       0x44
 .text.unabto_stream_stats_write_u16
                0x9d031418       0x44 build/DM30004-2/production/_ext/1442095083/unabto_stream_event.o
                0x9d031418                unabto_stream_stats_write_u16

.text.PLIB_ETH_RxSetBufferSize
                0x9d03145c       0x44
 .text.PLIB_ETH_RxSetBufferSize
                0x9d03145c       0x44 ../../../../../microchip/harmony/v1_11/bin/framework/peripheral/PIC32MX795F512L_peripherals.a(plib_eth_lib.o)
                0x9d03145c                PLIB_ETH_RxSetBufferSize

.text           0x9d0314a0       0x88
 .text          0x9d0314a0       0x44 /opt/microchip/xc32/v1.43/bin/bin/../../lib/gcc/pic32mx/4.8.3/../../../../pic32mx/lib/pic32_software_reset.o
                0x9d0314a0                __pic32_software_reset
 .text          0x9d0314e4       0x44 /opt/microchip/xc32/v1.43/bin/bin/../../lib/gcc/pic32mx/4.8.3/libgcc.a(floatunsidf.o)
                0x9d0314e4                __floatunsidf

.text._general_exception_handler
                0x9d031528       0x40
 .text._general_exception_handler
                0x9d031528       0x40 build/DM30004-2/production/_ext/1280997252/system_exceptions.o
                0x9d031528                _general_exception_handler

.text.wc_InitMd5
                0x9d031568       0x40
 .text.wc_InitMd5
                0x9d031568       0x40 build/DM30004-2/production/_ext/458569783/md5.o
                0x9d031568                wc_InitMd5

.text.CRYPT_HMAC_DataAdd
                0x9d0315a8       0x40
 .text.CRYPT_HMAC_DataAdd
                0x9d0315a8       0x40 build/DM30004-2/production/_ext/458569783/crypto.o
                0x9d0315a8                CRYPT_HMAC_DataAdd

.text.CRYPT_HMAC_Finalize
                0x9d0315e8       0x40
 .text.CRYPT_HMAC_Finalize
                0x9d0315e8       0x40 build/DM30004-2/production/_ext/458569783/crypto.o
                0x9d0315e8                CRYPT_HMAC_Finalize

.text.CRYPT_RNG_BlockGenerate
                0x9d031628       0x40
 .text.CRYPT_RNG_BlockGenerate
                0x9d031628       0x40 build/DM30004-2/production/_ext/458569783/crypto.o
                0x9d031628                CRYPT_RNG_BlockGenerate

.text._DRV_ETHPHY_NegCompletePhaseResultNoWait
                0x9d031668       0x40
 .text._DRV_ETHPHY_NegCompletePhaseResultNoWait
                0x9d031668       0x40 build/DM30004-2/production/_ext/2030533247/drv_ethphy.o

.text.TCPIP_Helper_ProtectedSingleListUnlock
                0x9d0316a8       0x40
 .text.TCPIP_Helper_ProtectedSingleListUnlock
                0x9d0316a8       0x40 build/DM30004-2/production/_ext/1899562614/tcpip_helpers.o
                0x9d0316a8                TCPIP_Helper_ProtectedSingleListUnlock

.text.nabto_rendezvous_stop
                0x9d0316e8       0x40
 .text.nabto_rendezvous_stop
                0x9d0316e8       0x40 build/DM30004-2/production/_ext/1442095083/unabto_connection.o
                0x9d0316e8                nabto_rendezvous_stop

.text.windowStatus
                0x9d031728       0x40
 .text.windowStatus
                0x9d031728       0x40 build/DM30004-2/production/_ext/1442095083/unabto_stream_window.o
                0x9d031728                windowStatus

.text.unabto_stream_get_duration
                0x9d031768       0x40
 .text.unabto_stream_get_duration
                0x9d031768       0x40 build/DM30004-2/production/_ext/1442095083/unabto_stream_window.o
                0x9d031768                unabto_stream_get_duration

.text._DRV_ETHMAC_LinkStateDown
                0x9d0317a8       0x3c
 .text._DRV_ETHMAC_LinkStateDown
                0x9d0317a8       0x3c build/DM30004-2/production/_ext/854379441/drv_ethmac.o

.text.DRV_ETHMAC_SingleListHeadRemove
                0x9d0317e4       0x3c
 .text.DRV_ETHMAC_SingleListHeadRemove
                0x9d0317e4       0x3c build/DM30004-2/production/_ext/854379441/drv_ethmac_lib.o
                0x9d0317e4                DRV_ETHMAC_SingleListHeadRemove

.text._UDPTxPktValid
                0x9d031820       0x3c
 .text._UDPTxPktValid
                0x9d031820       0x3c build/DM30004-2/production/_ext/1899562614/udp.o

.text._UDPFreeRxQueue
                0x9d03185c       0x3c
 .text._UDPFreeRxQueue
                0x9d03185c       0x3c build/DM30004-2/production/_ext/1899562614/udp.o

.text._ARPTxAckFnc
                0x9d031898       0x3c
 .text._ARPTxAckFnc
                0x9d031898       0x3c build/DM30004-2/production/_ext/1899562614/arp.o

.text.TCPIP_ARP_HashKeyHash
                0x9d0318d4       0x3c
 .text.TCPIP_ARP_HashKeyHash
                0x9d0318d4       0x3c build/DM30004-2/production/_ext/1899562614/arp.o
                0x9d0318d4                TCPIP_ARP_HashKeyHash

.text.TCPIP_DNS_IsResolved
                0x9d031910       0x3c
 .text.TCPIP_DNS_IsResolved
                0x9d031910       0x3c build/DM30004-2/production/_ext/1899562614/dns.o
                0x9d031910                TCPIP_DNS_IsResolved

.text.TCPIP_OAHASH_Initialize
                0x9d03194c       0x3c
 .text.TCPIP_OAHASH_Initialize
                0x9d03194c       0x3c build/DM30004-2/production/_ext/1899562614/oahash.o
                0x9d03194c                TCPIP_OAHASH_Initialize

.text.TCPIP_Helper_SingleListHeadRemove
                0x9d031988       0x3c
 .text.TCPIP_Helper_SingleListHeadRemove
                0x9d031988       0x3c build/DM30004-2/production/_ext/1899562614/tcpip_helpers.o
                0x9d031988                TCPIP_Helper_SingleListHeadRemove

.text._TCPIPSignalEntryNotify
                0x9d0319c4       0x3c
 .text._TCPIPSignalEntryNotify
                0x9d0319c4       0x3c build/DM30004-2/production/_ext/1899562614/tcpip_manager.o

.text._TCPIPStackSetConfigAddress
                0x9d031a00       0x3c
 .text._TCPIPStackSetConfigAddress
                0x9d031a00       0x3c build/DM30004-2/production/_ext/1899562614/tcpip_manager.o
                0x9d031a00                _TCPIPStackSetConfigAddress

.text.unabto_count_active_connections
                0x9d031a3c       0x3c
 .text.unabto_count_active_connections
                0x9d031a3c       0x3c build/DM30004-2/production/_ext/1442095083/unabto_connection.o
                0x9d031a3c                unabto_count_active_connections

.rodata         0x9d031a78       0x3c
 .rodata        0x9d031a78       0x3c build/DM30004-2/production/_ext/1442095083/unabto_context.o

.text.nabto_crypto_release
                0x9d031ab4       0x3c
 .text.nabto_crypto_release
                0x9d031ab4       0x3c build/DM30004-2/production/_ext/1442095083/unabto_crypto.o
                0x9d031ab4                nabto_crypto_release

.text.insert_optional_payload
                0x9d031af0       0x3c
 .text.insert_optional_payload
                0x9d031af0       0x3c build/DM30004-2/production/_ext/1442095083/unabto_packet_util.o
                0x9d031af0                insert_optional_payload

.text.unabto_stream_stats_write_u8
                0x9d031b2c       0x3c
 .text.unabto_stream_stats_write_u8
                0x9d031b2c       0x3c build/DM30004-2/production/_ext/1442095083/unabto_stream_event.o
                0x9d031b2c                unabto_stream_stats_write_u8

.text.setLed    0x9d031b68       0x38
 .text.setLed   0x9d031b68       0x38 build/DM30004-2/production/_ext/1360937237/stream_echo.o
                0x9d031b68                setLed

.text.BSP_LEDStateSet
                0x9d031ba0       0x38
 .text.BSP_LEDStateSet
                0x9d031ba0       0x38 build/DM30004-2/production/_ext/632331575/bsp_sys_init.o
                0x9d031ba0                BSP_LEDStateSet

.text.wolfSSL_Malloc
                0x9d031bd8       0x38
 .text.wolfSSL_Malloc
                0x9d031bd8       0x38 build/DM30004-2/production/_ext/458569783/memory.o
                0x9d031bd8                wolfSSL_Malloc

.text._EthMacReset
                0x9d031c10       0x38
 .text._EthMacReset
                0x9d031c10       0x38 build/DM30004-2/production/_ext/854379441/drv_ethmac_lib.o

.text.DRV_ETHMAC_LibDescriptorGetBuffer
                0x9d031c48       0x38
 .text.DRV_ETHMAC_LibDescriptorGetBuffer
                0x9d031c48       0x38 build/DM30004-2/production/_ext/854379441/drv_ethmac_lib.o
                0x9d031c48                DRV_ETHMAC_LibDescriptorGetBuffer

.text.DRV_ETHMAC_LibRxPendingBuffersGet
                0x9d031c80       0x38
 .text.DRV_ETHMAC_LibRxPendingBuffersGet
                0x9d031c80       0x38 build/DM30004-2/production/_ext/854379441/drv_ethmac_lib.o
                0x9d031c80                DRV_ETHMAC_LibRxPendingBuffersGet

.text.DRV_ETHMAC_LibRxScheduledBuffersGet
                0x9d031cb8       0x38
 .text.DRV_ETHMAC_LibRxScheduledBuffersGet
                0x9d031cb8       0x38 build/DM30004-2/production/_ext/854379441/drv_ethmac_lib.o
                0x9d031cb8                DRV_ETHMAC_LibRxScheduledBuffersGet

.text.DRV_ETHMAC_LibTxPendingBuffersGet
                0x9d031cf0       0x38
 .text.DRV_ETHMAC_LibTxPendingBuffersGet
                0x9d031cf0       0x38 build/DM30004-2/production/_ext/854379441/drv_ethmac_lib.o
                0x9d031cf0                DRV_ETHMAC_LibTxPendingBuffersGet

.text._DRV_PHY_SMIReadStart
                0x9d031d28       0x38
 .text._DRV_PHY_SMIReadStart
                0x9d031d28       0x38 build/DM30004-2/production/_ext/2030533247/drv_ethphy.o

.text._DRV_PHY_SMIWriteStart
                0x9d031d60       0x38
 .text._DRV_PHY_SMIWriteStart
                0x9d031d60       0x38 build/DM30004-2/production/_ext/2030533247/drv_ethphy.o

.text.DRV_ETHPHY_SMIStatus
                0x9d031d98       0x38
 .text.DRV_ETHPHY_SMIStatus
                0x9d031d98       0x38 build/DM30004-2/production/_ext/2030533247/drv_ethphy.o
                0x9d031d98                DRV_ETHPHY_SMIStatus

.text._DRV_ETHPHY_ResetPhaseIdle
                0x9d031dd0       0x38
 .text._DRV_ETHPHY_ResetPhaseIdle
                0x9d031dd0       0x38 build/DM30004-2/production/_ext/2030533247/drv_ethphy.o

.text.SYS_RANDOM_CryptoBlockGet
                0x9d031e08       0x38
 .text.SYS_RANDOM_CryptoBlockGet
                0x9d031e08       0x38 build/DM30004-2/production/_ext/1310142747/sys_random.o
                0x9d031e08                SYS_RANDOM_CryptoBlockGet

.text._UDPSocketDcpt
                0x9d031e40       0x38
 .text._UDPSocketDcpt
                0x9d031e40       0x38 build/DM30004-2/production/_ext/1899562614/udp.o

.text._ARPAllocateTxPacket
                0x9d031e78       0x38
 .text._ARPAllocateTxPacket
                0x9d031e78       0x38 build/DM30004-2/production/_ext/1899562614/arp.o

.text.TCPIP_STACK_IndexToNet
                0x9d031eb0       0x38
 .text.TCPIP_STACK_IndexToNet
                0x9d031eb0       0x38 build/DM30004-2/production/_ext/1899562614/tcpip_manager.o
                0x9d031eb0                TCPIP_STACK_IndexToNet

.text.TCPIP_STACK_AddressServiceDefaultSet
                0x9d031ee8       0x38
 .text.TCPIP_STACK_AddressServiceDefaultSet
                0x9d031ee8       0x38 build/DM30004-2/production/_ext/1899562614/tcpip_manager.o
                0x9d031ee8                TCPIP_STACK_AddressServiceDefaultSet

.text.TCPIP_PKT_PayloadLen
                0x9d031f20       0x38
 .text.TCPIP_PKT_PayloadLen
                0x9d031f20       0x38 build/DM30004-2/production/_ext/1899562614/tcpip_packet.o
                0x9d031f20                TCPIP_PKT_PayloadLen

.text.nabto_ctx_reset
                0x9d031f58       0x38
 .text.nabto_ctx_reset
                0x9d031f58       0x38 build/DM30004-2/production/_ext/1442095083/unabto_context.o

.text.insert_data_header
                0x9d031f90       0x38
 .text.insert_data_header
                0x9d031f90       0x38 build/DM30004-2/production/_ext/1442095083/unabto_packet_util.o
                0x9d031f90                insert_data_header

.text.stream_initial_config
                0x9d031fc8       0x38
 .text.stream_initial_config
                0x9d031fc8       0x38 build/DM30004-2/production/_ext/1442095083/unabto_stream_event.o
                0x9d031fc8                stream_initial_config

.text.unabto_stream_index
                0x9d032000       0x38
 .text.unabto_stream_index
                0x9d032000       0x38 build/DM30004-2/production/_ext/1442095083/unabto_stream_event.o
                0x9d032000                unabto_stream_index

.text.nabto_stream_tcb_event_error
                0x9d032038       0x38
 .text.nabto_stream_tcb_event_error
                0x9d032038       0x38 build/DM30004-2/production/_ext/1442095083/unabto_stream_window.o

.text.unabto_stream_advertised_window_size
                0x9d032070       0x38
 .text.unabto_stream_advertised_window_size
                0x9d032070       0x38 build/DM30004-2/production/_ext/1442095083/unabto_stream_window.o
                0x9d032070                unabto_stream_advertised_window_size

.text.nabto_stream_make_rst_response_window
                0x9d0320a8       0x38
 .text.nabto_stream_make_rst_response_window
                0x9d0320a8       0x38 build/DM30004-2/production/_ext/1442095083/unabto_stream_window.o
                0x9d0320a8                nabto_stream_make_rst_response_window

.text.SYS_INT_SourceRestore
                0x9d0320e0       0x34
 .text.SYS_INT_SourceRestore
                0x9d0320e0       0x34 build/DM30004-2/production/_ext/1280997252/system_interrupt.o
                0x9d0320e0                SYS_INT_SourceRestore

.text.readLed   0x9d032114       0x34
 .text.readLed  0x9d032114       0x34 build/DM30004-2/production/_ext/1360937237/stream_echo.o
                0x9d032114                readLed

.text.DRV_ETHMAC_LibTxAcknowledgeBuffer
                0x9d032148       0x34
 .text.DRV_ETHMAC_LibTxAcknowledgeBuffer
                0x9d032148       0x34 build/DM30004-2/production/_ext/854379441/drv_ethmac_lib.o
                0x9d032148                DRV_ETHMAC_LibTxAcknowledgeBuffer

.text.DRV_ETHPHY_PhyAddressGet
                0x9d03217c       0x34
 .text.DRV_ETHPHY_PhyAddressGet
                0x9d03217c       0x34 build/DM30004-2/production/_ext/2030533247/drv_ethphy.o
                0x9d03217c                DRV_ETHPHY_PhyAddressGet

.text.DRV_ETHPHY_ClientOperationAbort
                0x9d0321b0       0x34
 .text.DRV_ETHPHY_ClientOperationAbort
                0x9d0321b0       0x34 build/DM30004-2/production/_ext/2030533247/drv_ethphy.o
                0x9d0321b0                DRV_ETHPHY_ClientOperationAbort

.text._DRV_ETHPHY_LinkStatPhaseIdle
                0x9d0321e4       0x34
 .text._DRV_ETHPHY_LinkStatPhaseIdle
                0x9d0321e4       0x34 build/DM30004-2/production/_ext/2030533247/drv_ethphy.o

.text._DRV_ETHPHY_NegResultPhaseIdle
                0x9d032218       0x34
 .text._DRV_ETHPHY_NegResultPhaseIdle
                0x9d032218       0x34 build/DM30004-2/production/_ext/2030533247/drv_ethphy.o

.text._DRV_ETHPHY_NegCompletePhaseIdle
                0x9d03224c       0x34
 .text._DRV_ETHPHY_NegCompletePhaseIdle
                0x9d03224c       0x34 build/DM30004-2/production/_ext/2030533247/drv_ethphy.o

.text._DRV_ETHPHY_NegRestartPhaseIdle
                0x9d032280       0x34
 .text._DRV_ETHPHY_NegRestartPhaseIdle
                0x9d032280       0x34 build/DM30004-2/production/_ext/2030533247/drv_ethphy.o

.text._UDPUpdatePacketLock
                0x9d0322b4       0x34
 .text._UDPUpdatePacketLock
                0x9d0322b4       0x34 build/DM30004-2/production/_ext/1899562614/udp.o

.text.TCPIP_STACK_NetAddressBcast
                0x9d0322e8       0x34
 .text.TCPIP_STACK_NetAddressBcast
                0x9d0322e8       0x34 build/DM30004-2/production/_ext/1899562614/tcpip_manager.o
                0x9d0322e8                TCPIP_STACK_NetAddressBcast

.text.TCPIP_STACK_DNSServiceSelect
                0x9d03231c       0x34
 .text.TCPIP_STACK_DNSServiceSelect
                0x9d03231c       0x34 build/DM30004-2/production/_ext/1899562614/tcpip_manager.o
                0x9d03231c                TCPIP_STACK_DNSServiceSelect

.text.TCPIP_STACK_AddressServiceSelect
                0x9d032350       0x34
 .text.TCPIP_STACK_AddressServiceSelect
                0x9d032350       0x34 build/DM30004-2/production/_ext/1899562614/tcpip_manager.o
                0x9d032350                TCPIP_STACK_AddressServiceSelect

.text.TCPIP_STACK_NetAddress
                0x9d032384       0x34
 .text.TCPIP_STACK_NetAddress
                0x9d032384       0x34 build/DM30004-2/production/_ext/1899562614/tcpip_manager.o
                0x9d032384                TCPIP_STACK_NetAddress

.text._TCPIPStackHandleToNetLinked
                0x9d0323b8       0x34
 .text._TCPIPStackHandleToNetLinked
                0x9d0323b8       0x34 build/DM30004-2/production/_ext/1899562614/tcpip_manager.o
                0x9d0323b8                _TCPIPStackHandleToNetLinked

.text.TCPIP_STACK_NetIsReady
                0x9d0323ec       0x34
 .text.TCPIP_STACK_NetIsReady
                0x9d0323ec       0x34 build/DM30004-2/production/_ext/1899562614/tcpip_manager.o
                0x9d0323ec                TCPIP_STACK_NetIsReady

.text.unabto_time_event
                0x9d032420       0x34
 .text.unabto_time_event
                0x9d032420       0x34 build/DM30004-2/production/_ext/1442095083/unabto_common_main.o
                0x9d032420                unabto_time_event

.text.nabto_init_connections
                0x9d032454       0x34
 .text.nabto_init_connections
                0x9d032454       0x34 build/DM30004-2/production/_ext/1442095083/unabto_connection.o
                0x9d032454                nabto_init_connections

.text.nabto_crypto_reinit_a
                0x9d032488       0x34
 .text.nabto_crypto_reinit_a
                0x9d032488       0x34 build/DM30004-2/production/_ext/1442095083/unabto_crypto.o
                0x9d032488                nabto_crypto_reinit_a

.text.unabto_stream_mark_segment_for_retransmission
                0x9d0324bc       0x34
 .text.unabto_stream_mark_segment_for_retransmission
                0x9d0324bc       0x34 build/DM30004-2/production/_ext/1442095083/unabto_stream_window.o

.text.exit      0x9d0324f0       0x34
 .text.exit     0x9d0324f0       0x34 /opt/microchip/xc32/v1.43/bin/bin/../../lib/gcc/pic32mx/4.8.3/../../../../pic32mx/lib/libc.a(exit.o)
                0x9d0324f0                exit

.text.CRYPT_RNG_Initialize
                0x9d032524       0x30
 .text.CRYPT_RNG_Initialize
                0x9d032524       0x30 build/DM30004-2/production/_ext/458569783/crypto.o
                0x9d032524                CRYPT_RNG_Initialize

.text._MacCallocCallback
                0x9d032554       0x30
 .text._MacCallocCallback
                0x9d032554       0x30 build/DM30004-2/production/_ext/854379441/drv_ethmac.o

.text.DRV_ETHMAC_PIC32MACDeinitialize
                0x9d032584       0x30
 .text.DRV_ETHMAC_PIC32MACDeinitialize
                0x9d032584       0x30 build/DM30004-2/production/_ext/854379441/drv_ethmac.o
                0x9d032584                DRV_ETHMAC_PIC32MACDeinitialize

.text.DRV_ETHMAC_SingleListTailAdd
                0x9d0325b4       0x30
 .text.DRV_ETHMAC_SingleListTailAdd
                0x9d0325b4       0x30 build/DM30004-2/production/_ext/854379441/drv_ethmac_lib.o
                0x9d0325b4                DRV_ETHMAC_SingleListTailAdd

.text.DRV_ETHPHY_VendorDataGet
                0x9d0325e4       0x30
 .text.DRV_ETHPHY_VendorDataGet
                0x9d0325e4       0x30 build/DM30004-2/production/_ext/2030533247/drv_ethphy.o
                0x9d0325e4                DRV_ETHPHY_VendorDataGet

.text._TCPIP_HEAP_FreeSize
                0x9d032614       0x30
 .text._TCPIP_HEAP_FreeSize
                0x9d032614       0x30 build/DM30004-2/production/_ext/1899562614/tcpip_heap_internal.o

.text._DHCPSocketRxSignalHandler
                0x9d032644       0x30
 .text._DHCPSocketRxSignalHandler
                0x9d032644       0x30 build/DM30004-2/production/_ext/1899562614/dhcp.o

.text._DNSSocketRxSignalHandler
                0x9d032674       0x30
 .text._DNSSocketRxSignalHandler
                0x9d032674       0x30 build/DM30004-2/production/_ext/1899562614/dns.o

.text.TCPIP_OAHASH_EntryRemove
                0x9d0326a4       0x30
 .text.TCPIP_OAHASH_EntryRemove
                0x9d0326a4       0x30 build/DM30004-2/production/_ext/1899562614/oahash.o
                0x9d0326a4                TCPIP_OAHASH_EntryRemove

.text.TCPIP_Helper_SingleListTailAdd
                0x9d0326d4       0x30
 .text.TCPIP_Helper_SingleListTailAdd
                0x9d0326d4       0x30 build/DM30004-2/production/_ext/1899562614/tcpip_helpers.o
                0x9d0326d4                TCPIP_Helper_SingleListTailAdd

.text.TCPIP_STACK_NetAddressGet
                0x9d032704       0x30
 .text.TCPIP_STACK_NetAddressGet
                0x9d032704       0x30 build/DM30004-2/production/_ext/1899562614/tcpip_manager.o
                0x9d032704                TCPIP_STACK_NetAddressGet

.text.TCPIP_STACK_NetMaskGet
                0x9d032734       0x30
 .text.TCPIP_STACK_NetMaskGet
                0x9d032734       0x30 build/DM30004-2/production/_ext/1899562614/tcpip_manager.o
                0x9d032734                TCPIP_STACK_NetMaskGet

.text.TCPIP_STACK_NetworkIsLinked
                0x9d032764       0x30
 .text.TCPIP_STACK_NetworkIsLinked
                0x9d032764       0x30 build/DM30004-2/production/_ext/1899562614/tcpip_manager.o
                0x9d032764                TCPIP_STACK_NetworkIsLinked

.text._TCPIPStackModuleRxExtract
                0x9d032794       0x30
 .text._TCPIPStackModuleRxExtract
                0x9d032794       0x30 build/DM30004-2/production/_ext/1899562614/tcpip_manager.o
                0x9d032794                _TCPIPStackModuleRxExtract

.text.unabto_abuffer_init
                0x9d0327c4       0x30
 .text.unabto_abuffer_init
                0x9d0327c4       0x30 build/DM30004-2/production/_ext/1442095083/unabto_buffers.o
                0x9d0327c4                unabto_abuffer_init

.text.nabto_dns_resolve
                0x9d0327f4       0x30
 .text.nabto_dns_resolve
                0x9d0327f4       0x30 build/DM30004-2/production/_ext/2107900007/unabto_harmony_dns.o
                0x9d0327f4                nabto_dns_resolve

.text.nabtoIsStampPassed
                0x9d032824       0x30
 .text.nabtoIsStampPassed
                0x9d032824       0x30 build/DM30004-2/production/_ext/2107900007/unabto_harmony_time.o
                0x9d032824                nabtoIsStampPassed

.text.free      0x9d032854       0x30
 .text.free     0x9d032854       0x30 /opt/microchip/xc32/v1.43/bin/bin/../../lib/gcc/pic32mx/4.8.3/../../../../pic32mx/lib/libc.a(malloc.o)
                0x9d032854                free

.text.DRV_ETHPHY_Reinitialize
                0x9d032884       0x2c
 .text.DRV_ETHPHY_Reinitialize
                0x9d032884       0x2c build/DM30004-2/production/_ext/2030533247/drv_ethphy.o
                0x9d032884                DRV_ETHPHY_Reinitialize

.text._SYS_TMR_AlarmCallback
                0x9d0328b0       0x2c
 .text._SYS_TMR_AlarmCallback
                0x9d0328b0       0x2c build/DM30004-2/production/_ext/62100799/sys_tmr.o

.text.TCPIP_OAHASH_EntryGet
                0x9d0328dc       0x2c
 .text.TCPIP_OAHASH_EntryGet
                0x9d0328dc       0x2c build/DM30004-2/production/_ext/1899562614/oahash.o
                0x9d0328dc                TCPIP_OAHASH_EntryGet

.text.TCPIP_Notification_Deinitialize
                0x9d032908       0x2c
 .text.TCPIP_Notification_Deinitialize
                0x9d032908       0x2c build/DM30004-2/production/_ext/1899562614/tcpip_notify.o
                0x9d032908                TCPIP_Notification_Deinitialize

.text.nabto_context_reinit
                0x9d032934       0x2c
 .text.nabto_context_reinit
                0x9d032934       0x2c build/DM30004-2/production/_ext/1442095083/unabto_context.o
                0x9d032934                nabto_context_reinit

.text.unabto_crypto_required_length
                0x9d032960       0x2c
 .text.unabto_crypto_required_length
                0x9d032960       0x2c build/DM30004-2/production/_ext/1442095083/unabto_crypto.o
                0x9d032960                unabto_crypto_required_length

.text.unabto_stream_release
                0x9d03298c       0x2c
 .text.unabto_stream_release
                0x9d03298c       0x2c build/DM30004-2/production/_ext/1442095083/unabto_stream.o
                0x9d03298c                unabto_stream_release

.text.nabto_stream_window_payload_length
                0x9d0329b8       0x2c
 .text.nabto_stream_window_payload_length
                0x9d0329b8       0x2c build/DM30004-2/production/_ext/1442095083/unabto_stream_window.o
                0x9d0329b8                nabto_stream_window_payload_length

.text._stub_sbd_memlayout
                0x9d0329e4       0x2c
 .text._stub_sbd_memlayout
                0x9d0329e4       0x2c /opt/microchip/xc32/v1.43/bin/bin/../../lib/gcc/pic32mx/4.8.3/../../../../pic32mx/lib/libpic32.a(sbrk.o)
                0x9d0329e4                _stub_sbd_memlayout
                0x9d0329e4                _sbd_memlayout

.text.BSP_Initialize
                0x9d032a10       0x28
 .text.BSP_Initialize
                0x9d032a10       0x28 build/DM30004-2/production/_ext/632331575/bsp_sys_init.o
                0x9d032a10                BSP_Initialize

.text._MacTxFreeCallback
                0x9d032a38       0x28
 .text._MacTxFreeCallback
                0x9d032a38       0x28 build/DM30004-2/production/_ext/854379441/drv_ethmac.o

.text.SYS_TMR_TickCountGet
                0x9d032a60       0x28
 .text.SYS_TMR_TickCountGet
                0x9d032a60       0x28 build/DM30004-2/production/_ext/62100799/sys_tmr.o
                0x9d032a60                SYS_TMR_TickCountGet

.text._TCPIP_HEAP_Size
                0x9d032a88       0x28
 .text._TCPIP_HEAP_Size
                0x9d032a88       0x28 build/DM30004-2/production/_ext/1899562614/tcpip_heap_internal.o

.text._TCPIP_HEAP_LastError
                0x9d032ab0       0x28
 .text._TCPIP_HEAP_LastError
                0x9d032ab0       0x28 build/DM30004-2/production/_ext/1899562614/tcpip_heap_internal.o

.text.TCPIP_STACK_NetMACAddressGet
                0x9d032ad8       0x28
 .text.TCPIP_STACK_NetMACAddressGet
                0x9d032ad8       0x28 build/DM30004-2/production/_ext/1899562614/tcpip_manager.o
                0x9d032ad8                TCPIP_STACK_NetMACAddressGet

.text._TCPIPStackSignalHandlerDeregister
                0x9d032b00       0x28
 .text._TCPIPStackSignalHandlerDeregister
                0x9d032b00       0x28 build/DM30004-2/production/_ext/1899562614/tcpip_manager.o
                0x9d032b00                _TCPIPStackSignalHandlerDeregister

.text.nabto_context_init
                0x9d032b28       0x28
 .text.nabto_context_init
                0x9d032b28       0x28 build/DM30004-2/production/_ext/1442095083/unabto_context.o
                0x9d032b28                nabto_context_init

.text.unabto_packet_init_handlers
                0x9d032b50       0x28
 .text.unabto_packet_init_handlers
                0x9d032b50       0x28 build/DM30004-2/production/_ext/1442095083/unabto_packet.o
                0x9d032b50                unabto_packet_init_handlers

.text.nabto_stream_tcb_is_writeable
                0x9d032b78       0x28
 .text.nabto_stream_tcb_is_writeable
                0x9d032b78       0x28 build/DM30004-2/production/_ext/1442095083/unabto_stream_window.o
                0x9d032b78                nabto_stream_tcb_is_writeable

.text.PLIB_ETH_MACSetMaxFrame
                0x9d032ba0       0x28
 .text.PLIB_ETH_MACSetMaxFrame
                0x9d032ba0       0x28 ../../../../../microchip/harmony/v1_11/bin/framework/peripheral/PIC32MX795F512L_peripherals.a(plib_eth_lib.o)
                0x9d032ba0                PLIB_ETH_MACSetMaxFrame

.text.DRV_ETHMAC_PIC32MACClose
                0x9d032bc8       0x24
 .text.DRV_ETHMAC_PIC32MACClose
                0x9d032bc8       0x24 build/DM30004-2/production/_ext/854379441/drv_ethmac.o
                0x9d032bc8                DRV_ETHMAC_PIC32MACClose

.text.SYS_TMR_TickCounterFrequencyGet
                0x9d032bec       0x24
 .text.SYS_TMR_TickCounterFrequencyGet
                0x9d032bec       0x24 build/DM30004-2/production/_ext/62100799/sys_tmr.o
                0x9d032bec                SYS_TMR_TickCounterFrequencyGet

.text.SYS_TMR_SystemCountFrequencyGet
                0x9d032c10       0x24
 .text.SYS_TMR_SystemCountFrequencyGet
                0x9d032c10       0x24 build/DM30004-2/production/_ext/62100799/sys_tmr.o
                0x9d032c10                SYS_TMR_SystemCountFrequencyGet

.text.TCPIP_UDP_Put
                0x9d032c34       0x24
 .text.TCPIP_UDP_Put
                0x9d032c34       0x24 build/DM30004-2/production/_ext/1899562614/udp.o
                0x9d032c34                TCPIP_UDP_Put

.text._DHCPOptionWriteEnd
                0x9d032c58       0x24
 .text._DHCPOptionWriteEnd
                0x9d032c58       0x24 build/DM30004-2/production/_ext/1899562614/dhcp.o

.text._TCPIPSignalEntrySetNotify
                0x9d032c7c       0x24
 .text._TCPIPSignalEntrySetNotify
                0x9d032c7c       0x24 build/DM30004-2/production/_ext/1899562614/tcpip_manager.o

.text.nabto_connection_index
                0x9d032ca0       0x24
 .text.nabto_connection_index
                0x9d032ca0       0x24 build/DM30004-2/production/_ext/1442095083/unabto_connection.o
                0x9d032ca0                nabto_connection_index

.rodata         0x9d032cc4       0x24
 .rodata        0x9d032cc4       0x24 build/DM30004-2/production/_ext/1442095083/unabto_prf.o

.text.unabto_stream_read
                0x9d032ce8       0x24
 .text.unabto_stream_read
                0x9d032ce8       0x24 build/DM30004-2/production/_ext/1442095083/unabto_stream.o
                0x9d032ce8                unabto_stream_read

.text.unabto_stream_ack_number_to_send
                0x9d032d0c       0x24
 .text.unabto_stream_ack_number_to_send
                0x9d032d0c       0x24 build/DM30004-2/production/_ext/1442095083/unabto_stream_window.o
                0x9d032d0c                unabto_stream_ack_number_to_send

.text.toupper   0x9d032d30       0x24
 .text.toupper  0x9d032d30       0x24 /opt/microchip/xc32/v1.43/bin/bin/../../lib/gcc/pic32mx/4.8.3/../../../../pic32mx/lib/libc.a(ctypef.o)
                0x9d032d30                toupper

.text.main      0x9d032d54       0x20
 .text.main     0x9d032d54       0x20 build/DM30004-2/production/_ext/1360937237/main.o
                0x9d032d54                main

.text.BSP_LEDStateGet
                0x9d032d74       0x20
 .text.BSP_LEDStateGet
                0x9d032d74       0x20 build/DM30004-2/production/_ext/632331575/bsp_sys_init.o
                0x9d032d74                BSP_LEDStateGet

.text.DRV_ETHMAC_PIC32MACStatus
                0x9d032d94       0x20
 .text.DRV_ETHMAC_PIC32MACStatus
                0x9d032d94       0x20 build/DM30004-2/production/_ext/854379441/drv_ethmac.o
                0x9d032d94                DRV_ETHMAC_PIC32MACStatus

.text._DRV_ETHMAC_GetFrmTxOk
                0x9d032db4       0x20
 .text._DRV_ETHMAC_GetFrmTxOk
                0x9d032db4       0x20 build/DM30004-2/production/_ext/854379441/drv_ethmac.o

.text._DRV_ETHMAC_GetFrmRxOk
                0x9d032dd4       0x20
 .text._DRV_ETHMAC_GetFrmRxOk
                0x9d032dd4       0x20 build/DM30004-2/production/_ext/854379441/drv_ethmac.o

.text._DRV_ETHMAC_GetFrmPktCount
                0x9d032df4       0x20
 .text._DRV_ETHMAC_GetFrmPktCount
                0x9d032df4       0x20 build/DM30004-2/production/_ext/854379441/drv_ethmac.o

.text._DRV_ETHMAC_GetFrmRxOvflow
                0x9d032e14       0x20
 .text._DRV_ETHMAC_GetFrmRxOvflow
                0x9d032e14       0x20 build/DM30004-2/production/_ext/854379441/drv_ethmac.o

.text._DRV_ETHMAC_GetFrmFcsError
                0x9d032e34       0x20
 .text._DRV_ETHMAC_GetFrmFcsError
                0x9d032e34       0x20 build/DM30004-2/production/_ext/854379441/drv_ethmac.o

.text._DRV_ETHMAC_GetAlignError
                0x9d032e54       0x20
 .text._DRV_ETHMAC_GetAlignError
                0x9d032e54       0x20 build/DM30004-2/production/_ext/854379441/drv_ethmac.o

.text._DRV_ETHMAC_GetSCollisionCount
                0x9d032e74       0x20
 .text._DRV_ETHMAC_GetSCollisionCount
                0x9d032e74       0x20 build/DM30004-2/production/_ext/854379441/drv_ethmac.o

.text._DRV_ETHMAC_GetMCollisionCount
                0x9d032e94       0x20
 .text._DRV_ETHMAC_GetMCollisionCount
                0x9d032e94       0x20 build/DM30004-2/production/_ext/854379441/drv_ethmac.o

.text.DRV_ETHPHY_Close
                0x9d032eb4       0x20
 .text.DRV_ETHPHY_Close
                0x9d032eb4       0x20 build/DM30004-2/production/_ext/2030533247/drv_ethphy.o
                0x9d032eb4                DRV_ETHPHY_Close

.text._DRV_ETHPHY_ClientObjectAllocate
                0x9d032ed4       0x20
 .text._DRV_ETHPHY_ClientObjectAllocate
                0x9d032ed4       0x20 build/DM30004-2/production/_ext/2030533247/drv_ethphy.o
                0x9d032ed4                _DRV_ETHPHY_ClientObjectAllocate

.text.TCPIP_HEAP_Malloc
                0x9d032ef4       0x20
 .text.TCPIP_HEAP_Malloc
                0x9d032ef4       0x20 build/DM30004-2/production/_ext/1899562614/tcpip_heap_alloc.o
                0x9d032ef4                TCPIP_HEAP_Malloc

.text.TCPIP_HEAP_Calloc
                0x9d032f14       0x20
 .text.TCPIP_HEAP_Calloc
                0x9d032f14       0x20 build/DM30004-2/production/_ext/1899562614/tcpip_heap_alloc.o
                0x9d032f14                TCPIP_HEAP_Calloc

.text.TCPIP_HEAP_Free
                0x9d032f34       0x20
 .text.TCPIP_HEAP_Free
                0x9d032f34       0x20 build/DM30004-2/production/_ext/1899562614/tcpip_heap_alloc.o
                0x9d032f34                TCPIP_HEAP_Free

.text.TCPIP_DNS_OAHASH_KeyCompare
                0x9d032f54       0x20
 .text.TCPIP_DNS_OAHASH_KeyCompare
                0x9d032f54       0x20 build/DM30004-2/production/_ext/1899562614/dns.o

.text.TCPIP_STACK_Status
                0x9d032f74       0x20
 .text.TCPIP_STACK_Status
                0x9d032f74       0x20 build/DM30004-2/production/_ext/1899562614/tcpip_manager.o
                0x9d032f74                TCPIP_STACK_Status

.text.init_application_event_framework
                0x9d032f94       0x20
 .text.init_application_event_framework
                0x9d032f94       0x20 build/DM30004-2/production/_ext/1442095083/unabto_app_adapter.o
                0x9d032f94                init_application_event_framework

.text.unabto_stream_is_connection_reliable
                0x9d032fb4       0x20
 .text.unabto_stream_is_connection_reliable
                0x9d032fb4       0x20 build/DM30004-2/production/_ext/1442095083/unabto_stream_environment.o
                0x9d032fb4                unabto_stream_is_connection_reliable

.text.PLIB_ETH_EventsGet
                0x9d032fd4       0x20
 .text.PLIB_ETH_EventsGet
                0x9d032fd4       0x20 ../../../../../microchip/harmony/v1_11/bin/framework/peripheral/PIC32MX795F512L_peripherals.a(plib_eth_lib.o)
                0x9d032fd4                PLIB_ETH_EventsGet

.text.stream_echo_init
                0x9d032ff4       0x1c
 .text.stream_echo_init
                0x9d032ff4       0x1c build/DM30004-2/production/_ext/1360937237/stream_echo.o
                0x9d032ff4                stream_echo_init

.text._DRV_ETHPHY_ClientOpSmiScan
                0x9d033010       0x1c
 .text._DRV_ETHPHY_ClientOpSmiScan
                0x9d033010       0x1c build/DM30004-2/production/_ext/2030533247/drv_ethphy.o

.text.DRV_ETHPHY_VendorDataSet
                0x9d03302c       0x1c
 .text.DRV_ETHPHY_VendorDataSet
                0x9d03302c       0x1c build/DM30004-2/production/_ext/2030533247/drv_ethphy.o
                0x9d03302c                DRV_ETHPHY_VendorDataSet

.rodata         0x9d033048       0x1c
 .rodata        0x9d033048       0x1c build/DM30004-2/production/_ext/2027566358/drv_tmr.o

.text.SYS_RANDOM_PseudoGet
                0x9d033064       0x1c
 .text.SYS_RANDOM_PseudoGet
                0x9d033064       0x1c build/DM30004-2/production/_ext/1310142747/sys_random.o
                0x9d033064                SYS_RANDOM_PseudoGet

.text.SYS_TMR_CallbackStop
                0x9d033080       0x1c
 .text.SYS_TMR_CallbackStop
                0x9d033080       0x1c build/DM30004-2/production/_ext/62100799/sys_tmr.o
                0x9d033080                SYS_TMR_CallbackStop

.text.SYS_TMR_CallbackPeriodic
                0x9d03309c       0x1c
 .text.SYS_TMR_CallbackPeriodic
                0x9d03309c       0x1c build/DM30004-2/production/_ext/62100799/sys_tmr.o
                0x9d03309c                SYS_TMR_CallbackPeriodic

.text.TCPIP_UDP_ServerOpen
                0x9d0330b8       0x1c
 .text.TCPIP_UDP_ServerOpen
                0x9d0330b8       0x1c build/DM30004-2/production/_ext/1899562614/udp.o
                0x9d0330b8                TCPIP_UDP_ServerOpen

.text.TCPIP_UDP_ClientOpen
                0x9d0330d4       0x1c
 .text.TCPIP_UDP_ClientOpen
                0x9d0330d4       0x1c build/DM30004-2/production/_ext/1899562614/udp.o
                0x9d0330d4                TCPIP_UDP_ClientOpen

.text.TCPIP_UDP_TxPutIsReady
                0x9d0330f0       0x1c
 .text.TCPIP_UDP_TxPutIsReady
                0x9d0330f0       0x1c build/DM30004-2/production/_ext/1899562614/udp.o
                0x9d0330f0                TCPIP_UDP_TxPutIsReady

.text.TCPIP_DNS_Resolve
                0x9d03310c       0x1c
 .text.TCPIP_DNS_Resolve
                0x9d03310c       0x1c build/DM30004-2/production/_ext/1899562614/dns.o
                0x9d03310c                TCPIP_DNS_Resolve

.text.TCPIP_Helper_ChecksumFold
                0x9d033128       0x1c
 .text.TCPIP_Helper_ChecksumFold
                0x9d033128       0x1c build/DM30004-2/production/_ext/1899562614/tcpip_helpers.o
                0x9d033128                TCPIP_Helper_ChecksumFold

.text.TCPIP_Notification_Initialize
                0x9d033144       0x1c
 .text.TCPIP_Notification_Initialize
                0x9d033144       0x1c build/DM30004-2/production/_ext/1899562614/tcpip_notify.o
                0x9d033144                TCPIP_Notification_Initialize

.text.unabto_query_request_init
                0x9d033160       0x1c
 .text.unabto_query_request_init
                0x9d033160       0x1c build/DM30004-2/production/_ext/1442095083/unabto_query_rw.o
                0x9d033160                unabto_query_request_init

.text.unabto_query_response_init
                0x9d03317c       0x1c
 .text.unabto_query_response_init
                0x9d03317c       0x1c build/DM30004-2/production/_ext/1442095083/unabto_query_rw.o
                0x9d03317c                unabto_query_response_init

.text.unabto_query_response_used
                0x9d033198       0x1c
 .text.unabto_query_response_used
                0x9d033198       0x1c build/DM30004-2/production/_ext/1442095083/unabto_query_rw.o
                0x9d033198                unabto_query_response_used

.text.unabto_stream_ack
                0x9d0331b4       0x1c
 .text.unabto_stream_ack
                0x9d0331b4       0x1c build/DM30004-2/production/_ext/1442095083/unabto_stream.o
                0x9d0331b4                unabto_stream_ack

.text.unabto_stream_close
                0x9d0331d0       0x1c
 .text.unabto_stream_close
                0x9d0331d0       0x1c build/DM30004-2/production/_ext/1442095083/unabto_stream.o
                0x9d0331d0                unabto_stream_close

.text.nabto_stream_state_name
                0x9d0331ec       0x1c
 .text.nabto_stream_state_name
                0x9d0331ec       0x1c build/DM30004-2/production/_ext/1442095083/unabto_stream.o
                0x9d0331ec                nabto_stream_state_name

.text.nabto_stream_tcb_state_name
                0x9d033208       0x1c
 .text.nabto_stream_tcb_state_name
                0x9d033208       0x1c build/DM30004-2/production/_ext/1442095083/unabto_stream_window.o
                0x9d033208                nabto_stream_tcb_state_name

.rodata         0x9d033224       0x1c
 .rodata        0x9d033224       0x1c build/DM30004-2/production/_ext/2107900007/unabto_harmony_network.o

.text.nabto_random
                0x9d033240       0x1c
 .text.nabto_random
                0x9d033240       0x1c build/DM30004-2/production/_ext/2107900007/unabto_harmony_random.o
                0x9d033240                nabto_random

.text.nabtoGetStamp
                0x9d03325c       0x1c
 .text.nabtoGetStamp
                0x9d03325c       0x1c build/DM30004-2/production/_ext/2107900007/unabto_harmony_time.o
                0x9d03325c                nabtoGetStamp

.text.PLIB_ETH_RxFiltersSet
                0x9d033278       0x1c
 .text.PLIB_ETH_RxFiltersSet
                0x9d033278       0x1c ../../../../../microchip/harmony/v1_11/bin/framework/peripheral/PIC32MX795F512L_peripherals.a(plib_eth_lib.o)
                0x9d033278                PLIB_ETH_RxFiltersSet

.text.PLIB_ETH_RxFiltersClr
                0x9d033294       0x1c
 .text.PLIB_ETH_RxFiltersClr
                0x9d033294       0x1c ../../../../../microchip/harmony/v1_11/bin/framework/peripheral/PIC32MX795F512L_peripherals.a(plib_eth_lib.o)
                0x9d033294                PLIB_ETH_RxFiltersClr

.text.PLIB_ETH_RxFiltersHTSet
                0x9d0332b0       0x1c
 .text.PLIB_ETH_RxFiltersHTSet
                0x9d0332b0       0x1c ../../../../../microchip/harmony/v1_11/bin/framework/peripheral/PIC32MX795F512L_peripherals.a(plib_eth_lib.o)
                0x9d0332b0                PLIB_ETH_RxFiltersHTSet

.text.srand     0x9d0332cc       0x1c
 .text.srand    0x9d0332cc       0x1c /opt/microchip/xc32/v1.43/bin/bin/../../lib/gcc/pic32mx/4.8.3/../../../../pic32mx/lib/libc.a(rand.o)
                0x9d0332cc                srand

.text.DRV_ETHPHY_Deinitialize
                0x9d024bc8       0x18
 .text.DRV_ETHPHY_Deinitialize
                0x9d024bc8       0x18 build/DM30004-2/production/_ext/2030533247/drv_ethphy.o
                0x9d024bc8                DRV_ETHPHY_Deinitialize

.text.DRV_ETHPHY_Status
                0x9d0332e8       0x18
 .text.DRV_ETHPHY_Status
                0x9d0332e8       0x18 build/DM30004-2/production/_ext/2030533247/drv_ethphy.o
                0x9d0332e8                DRV_ETHPHY_Status

.text.DRV_ETHPHY_ClientStatus
                0x9d033300       0x18
 .text.DRV_ETHPHY_ClientStatus
                0x9d033300       0x18 build/DM30004-2/production/_ext/2030533247/drv_ethphy.o
                0x9d033300                DRV_ETHPHY_ClientStatus

.text.DRV_ETHPHY_ClientOperationResult
                0x9d033318       0x18
 .text.DRV_ETHPHY_ClientOperationResult
                0x9d033318       0x18 build/DM30004-2/production/_ext/2030533247/drv_ethphy.o
                0x9d033318                DRV_ETHPHY_ClientOperationResult

.text.SYS_DEVCON_JTAGDisable
                0x9d033330       0x18
 .text.SYS_DEVCON_JTAGDisable
                0x9d033330       0x18 build/DM30004-2/production/_ext/1322803601/sys_devcon.o
                0x9d033330                SYS_DEVCON_JTAGDisable

.text.SYS_INT_Initialize
                0x9d033348       0x18
 .text.SYS_INT_Initialize
                0x9d033348       0x18 build/DM30004-2/production/_ext/1204230505/sys_int_pic32.o
                0x9d033348                SYS_INT_Initialize

.text.SYS_TMR_ModuleStatusGet
                0x9d033360       0x18
 .text.SYS_TMR_ModuleStatusGet
                0x9d033360       0x18 build/DM30004-2/production/_ext/62100799/sys_tmr.o
                0x9d033360                SYS_TMR_ModuleStatusGet

.text.TCPIP_ARP_HashKeyCompare
                0x9d033378       0x18
 .text.TCPIP_ARP_HashKeyCompare
                0x9d033378       0x18 build/DM30004-2/production/_ext/1899562614/arp.o
                0x9d033378                TCPIP_ARP_HashKeyCompare

.text.TCPIP_STACK_NetIxGet
                0x9d033390       0x18
 .text.TCPIP_STACK_NetIxGet
                0x9d033390       0x18 build/DM30004-2/production/_ext/1899562614/tcpip_manager.o
                0x9d033390                TCPIP_STACK_NetIxGet

.text.TCPIP_STACK_GatewayAddressSet
                0x9d0333a8       0x18
 .text.TCPIP_STACK_GatewayAddressSet
                0x9d0333a8       0x18 build/DM30004-2/production/_ext/1899562614/tcpip_manager.o
                0x9d0333a8                TCPIP_STACK_GatewayAddressSet

.text.TCPIP_STACK_PrimaryDNSAddressSet
                0x9d0333c0       0x18
 .text.TCPIP_STACK_PrimaryDNSAddressSet
                0x9d0333c0       0x18 build/DM30004-2/production/_ext/1899562614/tcpip_manager.o
                0x9d0333c0                TCPIP_STACK_PrimaryDNSAddressSet

.text.TCPIP_STACK_SecondaryDNSAddressSet
                0x9d0333d8       0x18
 .text.TCPIP_STACK_SecondaryDNSAddressSet
                0x9d0333d8       0x18 build/DM30004-2/production/_ext/1899562614/tcpip_manager.o
                0x9d0333d8                TCPIP_STACK_SecondaryDNSAddressSet

.text.unabto_abuffer_get_used
                0x9d0333f0       0x18
 .text.unabto_abuffer_get_used
                0x9d0333f0       0x18 build/DM30004-2/production/_ext/1442095083/unabto_buffers.o
                0x9d0333f0                unabto_abuffer_get_used

.rodata         0x9d033408       0x18
 .rodata        0x9d033408       0x18 build/DM30004-2/production/_ext/2107900007/unabto_harmony_dns.o

.text.PLIB_ETH_EventsEnableSet
                0x9d033420       0x18
 .text.PLIB_ETH_EventsEnableSet
                0x9d033420       0x18 ../../../../../microchip/harmony/v1_11/bin/framework/peripheral/PIC32MX795F512L_peripherals.a(plib_eth_lib.o)
                0x9d033420                PLIB_ETH_EventsEnableSet

.text.PLIB_ETH_EventsEnableClr
                0x9d033438       0x18
 .text.PLIB_ETH_EventsEnableClr
                0x9d033438       0x18 ../../../../../microchip/harmony/v1_11/bin/framework/peripheral/PIC32MX795F512L_peripherals.a(plib_eth_lib.o)
                0x9d033438                PLIB_ETH_EventsEnableClr

.text.PLIB_ETH_EventsClr
                0x9d033450       0x18
 .text.PLIB_ETH_EventsClr
                0x9d033450       0x18 ../../../../../microchip/harmony/v1_11/bin/framework/peripheral/PIC32MX795F512L_peripherals.a(plib_eth_lib.o)
                0x9d033450                PLIB_ETH_EventsClr

.text           0x9d033468       0x18
 .text          0x9d033468       0x18 /opt/microchip/xc32/v1.43/bin/bin/../../lib/gcc/pic32mx/4.8.3/../../../../pic32mx/lib/libpic32.a(default-nmi-handler.o)
                0x9d033468                _nmi_handler

.text.SYS_DEVCON_Initialize
                0x9d033480       0x14
 .text.SYS_DEVCON_Initialize
                0x9d033480       0x14 build/DM30004-2/production/_ext/1322803601/sys_devcon.o
                0x9d033480                SYS_DEVCON_Initialize

.text.nabtoStampDiff
                0x9d033494       0x14
 .text.nabtoStampDiff
                0x9d033494       0x14 build/DM30004-2/production/_ext/2107900007/unabto_harmony_time.o
                0x9d033494                nabtoStampDiff

.rodata         0x9d0334a8       0x10
 .rodata        0x9d0334a8       0x10 build/DM30004-2/production/_ext/2030533247/drv_extphy_smsc8740.o
                0x9d0334a8                DRV_ETHPHY_OBJECT_SMSC_LAN8740

.text.TCPIP_ARP_HashKeyCopy
                0x9d0334b8       0x10
 .text.TCPIP_ARP_HashKeyCopy
                0x9d0334b8       0x10 build/DM30004-2/production/_ext/1899562614/arp.o
                0x9d0334b8                TCPIP_ARP_HashKeyCopy

.text.TCPIP_Helper_SingleListInitialize
                0x9d0334c8       0x10
 .text.TCPIP_Helper_SingleListInitialize
                0x9d0334c8       0x10 build/DM30004-2/production/_ext/1899562614/tcpip_helpers.o
                0x9d0334c8                TCPIP_Helper_SingleListInitialize

.text.unabto_extended_rendezvous_init_port_sequence
                0x9d0334d8       0x10
 .text.unabto_extended_rendezvous_init_port_sequence
                0x9d0334d8       0x10 build/DM30004-2/production/_ext/1442095083/unabto_extended_rendezvous.o
                0x9d0334d8                unabto_extended_rendezvous_init_port_sequence

.rodata         0x9d0334e8       0x10
 .rodata        0x9d0334e8       0x10 build/DM30004-2/production/_ext/1442095083/unabto_stream.o

.text.SYS_CLK_SystemFrequencyGet
                0x9d0334f8        0xc
 .text.SYS_CLK_SystemFrequencyGet
                0x9d0334f8        0xc build/DM30004-2/production/_ext/2025569787/sys_clk_static.o
                0x9d0334f8                SYS_CLK_SystemFrequencyGet

.text.SYS_CLK_PeripheralFrequencyGet
                0x9d033504        0xc
 .text.SYS_CLK_PeripheralFrequencyGet
                0x9d033504        0xc build/DM30004-2/production/_ext/2025569787/sys_clk_static.o
                0x9d033504                SYS_CLK_PeripheralFrequencyGet

.text.DRV_ETHMAC_PIC32MACEventPendingGet
                0x9d033510        0xc
 .text.DRV_ETHMAC_PIC32MACEventPendingGet
                0x9d033510        0xc build/DM30004-2/production/_ext/854379441/drv_ethmac.o
                0x9d033510                DRV_ETHMAC_PIC32MACEventPendingGet

.text.DRV_EXTPHY_SMIClockGet
                0x9d03351c        0xc
 .text.DRV_EXTPHY_SMIClockGet
                0x9d03351c        0xc build/DM30004-2/production/_ext/2030533247/drv_extphy_smsc8740.o

.text.TCPIP_STACK_NumberOfNetworksGet
                0x9d033528        0xc
 .text.TCPIP_STACK_NumberOfNetworksGet
                0x9d033528        0xc build/DM30004-2/production/_ext/1899562614/tcpip_manager.o
                0x9d033528                TCPIP_STACK_NumberOfNetworksGet

.text.TCPIP_STACK_NetBIOSName
                0x9d033534        0xc
 .text.TCPIP_STACK_NetBIOSName
                0x9d033534        0xc build/DM30004-2/production/_ext/1899562614/tcpip_manager.o
                0x9d033534                TCPIP_STACK_NetBIOSName

.text.framework_event_query
                0x9d033540        0xc
 .text.framework_event_query
                0x9d033540        0xc build/DM30004-2/production/_ext/1442095083/unabto_app_adapter.o
                0x9d033540                framework_event_query

.text.unabto_buffer_init
                0x9d03354c        0xc
 .text.unabto_buffer_init
                0x9d03354c        0xc build/DM30004-2/production/_ext/1442095083/unabto_buffers.o
                0x9d03354c                unabto_buffer_init

.text.nabto_crypto_reset
                0x9d033558        0xc
 .text.nabto_crypto_reset
                0x9d033558        0xc build/DM30004-2/production/_ext/1442095083/unabto_crypto.o
                0x9d033558                nabto_crypto_reset

.text.unabto_query_request_size
                0x9d033564        0xc
 .text.unabto_query_request_size
                0x9d033564        0xc build/DM30004-2/production/_ext/1442095083/unabto_query_rw.o
                0x9d033564                unabto_query_request_size

.text.APP_Initialize
                0x9d033570        0x8
 .text.APP_Initialize
                0x9d033570        0x8 build/DM30004-2/production/_ext/1360937237/app.o
                0x9d033570                APP_Initialize

.text.application_event
                0x9d033578        0x8
 .text.application_event
                0x9d033578        0x8 build/DM30004-2/production/_ext/1360937237/app.o
                0x9d033578                application_event

.text.DRV_ETHMAC_PIC32MACReinitialize
                0x9d033580        0x8
 .text.DRV_ETHMAC_PIC32MACReinitialize
                0x9d033580        0x8 build/DM30004-2/production/_ext/854379441/drv_ethmac.o
                0x9d033580                DRV_ETHMAC_PIC32MACReinitialize

.text.DRV_ETHMAC_PIC32MACPowerMode
                0x9d033588        0x8
 .text.DRV_ETHMAC_PIC32MACPowerMode
                0x9d033588        0x8 build/DM30004-2/production/_ext/854379441/drv_ethmac.o
                0x9d033588                DRV_ETHMAC_PIC32MACPowerMode

.text._DRV_ETHPHY_ClientOpNone
                0x9d033590        0x8
 .text._DRV_ETHPHY_ClientOpNone
                0x9d033590        0x8 build/DM30004-2/production/_ext/2030533247/drv_ethphy.o

.text.SYS_DEVCON_Tasks
                0x9d033598        0x8
 .text.SYS_DEVCON_Tasks
                0x9d033598        0x8 build/DM30004-2/production/_ext/1322803601/sys_devcon.o
                0x9d033598                SYS_DEVCON_Tasks

.text._TCPIP_HEAP_BufferMapNonCached
                0x9d0335a0        0x8
 .text._TCPIP_HEAP_BufferMapNonCached
                0x9d0335a0        0x8 build/DM30004-2/production/_ext/1899562614/tcpip_heap_alloc.o
                0x9d0335a0                _TCPIP_HEAP_BufferMapNonCached

.text._DHCPOptionProcessEnd
                0x9d0335a8        0x8
 .text._DHCPOptionProcessEnd
                0x9d0335a8        0x8 build/DM30004-2/production/_ext/1899562614/dhcp.o

.text.TCPIP_STACK_NetDefaultGet
                0x9d0335b0        0x8
 .text.TCPIP_STACK_NetDefaultGet
                0x9d0335b0        0x8 build/DM30004-2/production/_ext/1899562614/tcpip_manager.o
                0x9d0335b0                TCPIP_STACK_NetDefaultGet

.text.TCPIP_PKT_Deinitialize
                0x9d0335b8        0x8
 .text.TCPIP_PKT_Deinitialize
                0x9d0335b8        0x8 build/DM30004-2/production/_ext/1899562614/tcpip_packet.o
                0x9d0335b8                TCPIP_PKT_Deinitialize

.text.framework_release_handle
                0x9d0335c0        0x8
 .text.framework_release_handle
                0x9d0335c0        0x8 build/DM30004-2/production/_ext/1442095083/unabto_app_adapter.o
                0x9d0335c0                framework_release_handle

.text.framework_event_poll
                0x9d0335c8        0x8
 .text.framework_event_poll
                0x9d0335c8        0x8 build/DM30004-2/production/_ext/1442095083/unabto_app_adapter.o
                0x9d0335c8                framework_event_poll

.text.nabtoMsec2Stamp
                0x9d0335d0        0x8
 .text.nabtoMsec2Stamp
                0x9d0335d0        0x8 build/DM30004-2/production/_ext/2107900007/unabto_harmony_time.o
                0x9d0335d0                nabtoMsec2Stamp

.text._on_reset
                0x9d0335d8        0x8
 .text._on_reset
                0x9d0335d8        0x8 /opt/microchip/xc32/v1.43/bin/bin/../../lib/gcc/pic32mx/4.8.3/../../../../pic32mx/lib/libpic32.a(default-on-reset.o)
                0x9d0335d8                _on_reset

.text._on_bootstrap
                0x9d0335e0        0x8
 .text._on_bootstrap
                0x9d0335e0        0x8 /opt/microchip/xc32/v1.43/bin/bin/../../lib/gcc/pic32mx/4.8.3/../../../../pic32mx/lib/libpic32.a(default-on-bootstrap.o)
                0x9d0335e0                _on_bootstrap

.text._cleanup  0x9d0335e8        0x8
 .text._cleanup
                0x9d0335e8        0x8 /opt/microchip/xc32/v1.43/bin/bin/../../lib/gcc/pic32mx/4.8.3/../../../../pic32mx/lib/libc.a(stdclean_simple.o)
                0x9d0335e8                _cleanup

.rodata         0x9d0335f0        0x8
 .rodata        0x9d0335f0        0x8 /opt/microchip/xc32/v1.43/bin/bin/../../lib/gcc/pic32mx/4.8.3/libgcc.a(floatunsidf.o)
